Archive member included to satisfy reference by file (symbol)

libcom32.a(graphics.o)        isolinux.o (syslinux_force_text_mode)
libcom32.a(writehex.o)        isolinux.o (pm_writehex2)
libcom32.a(conio.o)           isolinux.o (pm_write_serial)
libcom32.a(writestr.o)        isolinux.o (crlf)
libcom32.a(init.o)            isolinux.o (mem_init)
libcom32.a(rllpack.o)         isolinux.o (rllpack)
libcom32.a(iso9660.o)         isolinux.o (iso_fs_ops)
libcom32.a(readdir.o)         isolinux.o (opendir)
libcom32.a(mangle.o)          libcom32.a(iso9660.o) (generic_mangle_name)
libcom32.a(searchconfig.o)    libcom32.a(iso9660.o) (search_dirs)
libcom32.a(close.o)           libcom32.a(iso9660.o) (generic_close_file)
libcom32.a(nonextextent.o)    libcom32.a(iso9660.o) (no_next_extent)
libcom32.a(getfssec.o)        libcom32.a(iso9660.o) (generic_getfssec)
libcom32.a(cache.o)           libcom32.a(iso9660.o) (cache_init)
libcom32.a(diskio.o)          libcom32.a(cache.o) (getoneblk)
libcom32.a(diskio_bios.o)     isolinux.o (pm_fs_init)
libcom32.a(fs.o)              libcom32.a(iso9660.o) (alloc_inode)
libcom32.a(chdir.o)           libcom32.a(searchconfig.o) (realpath)
libcom32.a(hello.o)           isolinux.o (hello)
libcom32.a(errno.o)           libcom32.a(fs.o) (errno)
libcom32.a(cleanup.o)         isolinux.o (cleanup_hardware)
libcom32.a(pmapi.o)           isolinux.o (pm_api_vector)
libcom32.a(font.o)            libcom32.a(graphics.o) (use_font)
libcom32.a(load_env32.o)      isolinux.o (load_env32)
libcom32.a(bios.o)            libcom32.a(conio.o) (KbdMap)
libcom32.a(serirq.o)          libcom32.a(conio.o) (SerialHead)
libcom32.a(init.o)            isolinux.o (init)
libcom32.a(idle.o)            libcom32.a(conio.o) (reset_idle)
libcom32.a(call16.o)          libcom32.a(bios.o) (call16)
libcom32.a(lzo1x_f2.o)        isolinux.o (_lzo1x_decompress_asm_fast_safe)
libcom32.a(sysappend.o)       libcom32.a(pmapi.o) (sysappend_strings)
libcom32.a(path.o)            libcom32.a(load_env32.o) (path_add)
libcom32.a(malloc.o)          libcom32.a(bios.o) (bios_malloc)
libcom32.a(free.o)            libcom32.a(bios.o) (bios_free)
libcom32.a(kaboom.o)          libcom32.a(iso9660.o) (_kaboom)
libcom32.a(susp_rr.o)         libcom32.a(iso9660.o) (susp_rr_get_nm)
libcom32.a(getcwd.o)          libcom32.a(pmapi.o) (core_getcwd)
libcom32.a(dmi.o)             libcom32.a(bios.o) (dmi_init)
libcom32.a(sem_asm.o)         libcom32.a(malloc.o) (sem_down)
libcom32.a(semaphore.o)       libcom32.a(sem_asm.o) (__sem_down_slow)
libcom32.a(schedule.o)        libcom32.a(semaphore.o) (__schedule)
libcom32.a(root_thread.o)     libcom32.a(semaphore.o) (__current)
libcom32.a(thread_asm.o)      libcom32.a(schedule.o) (__switch_to)
libcom32.a(exit_thread.o)     libcom32.a(thread_asm.o) (__exit_thread)
/home/wrsadmin/github/syslinux-6.03/bios/com32/lib/libcom32core.a(memcpy.o)
                              (--whole-archive)
/home/wrsadmin/github/syslinux-6.03/bios/com32/lib/libcom32core.a(memset.o)
                              (--whole-archive)
/home/wrsadmin/github/syslinux-6.03/bios/com32/lib/libcom32core.a(memcmp.o)
                              (--whole-archive)
/home/wrsadmin/github/syslinux-6.03/bios/com32/lib/libcom32core.a(printf.o)
                              (--whole-archive)
/home/wrsadmin/github/syslinux-6.03/bios/com32/lib/libcom32core.a(strncmp.o)
                              (--whole-archive)
/home/wrsadmin/github/syslinux-6.03/bios/com32/lib/libcom32core.a(vfprintf.o)
                              (--whole-archive)
/home/wrsadmin/github/syslinux-6.03/bios/com32/lib/libcom32core.a(strlen.o)
                              (--whole-archive)
/home/wrsadmin/github/syslinux-6.03/bios/com32/lib/libcom32core.a(vsnprintf.o)
                              (--whole-archive)
/home/wrsadmin/github/syslinux-6.03/bios/com32/lib/libcom32core.a(snprintf.o)
                              (--whole-archive)
/home/wrsadmin/github/syslinux-6.03/bios/com32/lib/libcom32core.a(stpcpy.o)
                              (--whole-archive)
/home/wrsadmin/github/syslinux-6.03/bios/com32/lib/libcom32core.a(strcmp.o)
                              (--whole-archive)
/home/wrsadmin/github/syslinux-6.03/bios/com32/lib/libcom32core.a(strdup.o)
                              (--whole-archive)
/home/wrsadmin/github/syslinux-6.03/bios/com32/lib/libcom32core.a(strcpy.o)
                              (--whole-archive)
/home/wrsadmin/github/syslinux-6.03/bios/com32/lib/libcom32core.a(strncpy.o)
                              (--whole-archive)
/home/wrsadmin/github/syslinux-6.03/bios/com32/lib/libcom32core.a(setjmp.o)
                              (--whole-archive)
/home/wrsadmin/github/syslinux-6.03/bios/com32/lib/libcom32core.a(fopen.o)
                              (--whole-archive)
/home/wrsadmin/github/syslinux-6.03/bios/com32/lib/libcom32core.a(fread.o)
                              (--whole-archive)
/home/wrsadmin/github/syslinux-6.03/bios/com32/lib/libcom32core.a(fread2.o)
                              (--whole-archive)
/home/wrsadmin/github/syslinux-6.03/bios/com32/lib/libcom32core.a(puts.o)
                              (--whole-archive)
/home/wrsadmin/github/syslinux-6.03/bios/com32/lib/libcom32core.a(strtoul.o)
                              (--whole-archive)
/home/wrsadmin/github/syslinux-6.03/bios/com32/lib/libcom32core.a(strntoumax.o)
                              (--whole-archive)
/home/wrsadmin/github/syslinux-6.03/bios/com32/lib/libcom32core.a(strcasecmp.o)
                              (--whole-archive)
/home/wrsadmin/github/syslinux-6.03/bios/com32/lib/libcom32core.a(sprintf.o)
                              (--whole-archive)
/home/wrsadmin/github/syslinux-6.03/bios/com32/lib/libcom32core.a(strlcat.o)
                              (--whole-archive)
/home/wrsadmin/github/syslinux-6.03/bios/com32/lib/libcom32core.a(strchr.o)
                              (--whole-archive)
/home/wrsadmin/github/syslinux-6.03/bios/com32/lib/libcom32core.a(strlcpy.o)
                              (--whole-archive)
/home/wrsadmin/github/syslinux-6.03/bios/com32/lib/libcom32core.a(strncasecmp.o)
                              (--whole-archive)
/home/wrsadmin/github/syslinux-6.03/bios/com32/lib/libcom32core.a(ctypes.o)
                              (--whole-archive)
/home/wrsadmin/github/syslinux-6.03/bios/com32/lib/libcom32core.a(fputs.o)
                              (--whole-archive)
/home/wrsadmin/github/syslinux-6.03/bios/com32/lib/libcom32core.a(fwrite2.o)
                              (--whole-archive)
/home/wrsadmin/github/syslinux-6.03/bios/com32/lib/libcom32core.a(fwrite.o)
                              (--whole-archive)
/home/wrsadmin/github/syslinux-6.03/bios/com32/lib/libcom32core.a(fgetc.o)
                              (--whole-archive)
/home/wrsadmin/github/syslinux-6.03/bios/com32/lib/libcom32core.a(fclose.o)
                              (--whole-archive)
/home/wrsadmin/github/syslinux-6.03/bios/com32/lib/libcom32core.a(lmalloc.o)
                              (--whole-archive)
/home/wrsadmin/github/syslinux-6.03/bios/com32/lib/libcom32core.a(err_read.o)
                              (--whole-archive)
/home/wrsadmin/github/syslinux-6.03/bios/com32/lib/libcom32core.a(err_write.o)
                              (--whole-archive)
/home/wrsadmin/github/syslinux-6.03/bios/com32/lib/libcom32core.a(null_read.o)
                              (--whole-archive)
/home/wrsadmin/github/syslinux-6.03/bios/com32/lib/libcom32core.a(stdcon_write.o)
                              (--whole-archive)
/home/wrsadmin/github/syslinux-6.03/bios/com32/lib/libcom32core.a(memscan.o)
                              (--whole-archive)
/home/wrsadmin/github/syslinux-6.03/bios/com32/lib/libcom32core.a(strrchr.o)
                              (--whole-archive)
/home/wrsadmin/github/syslinux-6.03/bios/com32/lib/libcom32core.a(strcat.o)
                              (--whole-archive)
/home/wrsadmin/github/syslinux-6.03/bios/com32/lib/libcom32core.a(__ashldi3.o)
                              (--whole-archive)
/home/wrsadmin/github/syslinux-6.03/bios/com32/lib/libcom32core.a(__udivdi3.o)
                              (--whole-archive)
/home/wrsadmin/github/syslinux-6.03/bios/com32/lib/libcom32core.a(__negdi2.o)
                              (--whole-archive)
/home/wrsadmin/github/syslinux-6.03/bios/com32/lib/libcom32core.a(__ashrdi3.o)
                              (--whole-archive)
/home/wrsadmin/github/syslinux-6.03/bios/com32/lib/libcom32core.a(__lshrdi3.o)
                              (--whole-archive)
/home/wrsadmin/github/syslinux-6.03/bios/com32/lib/libcom32core.a(__muldi3.o)
                              (--whole-archive)
/home/wrsadmin/github/syslinux-6.03/bios/com32/lib/libcom32core.a(__udivmoddi4.o)
                              (--whole-archive)
/home/wrsadmin/github/syslinux-6.03/bios/com32/lib/libcom32core.a(__umoddi3.o)
                              (--whole-archive)
/home/wrsadmin/github/syslinux-6.03/bios/com32/lib/libcom32core.a(__divdi3.o)
                              (--whole-archive)
/home/wrsadmin/github/syslinux-6.03/bios/com32/lib/libcom32core.a(__moddi3.o)
                              (--whole-archive)
/home/wrsadmin/github/syslinux-6.03/bios/com32/lib/libcom32core.a(debug.o)
                              (--whole-archive)
/home/wrsadmin/github/syslinux-6.03/bios/com32/lib/libcom32core.a(intcall.o)
                              (--whole-archive)
/home/wrsadmin/github/syslinux-6.03/bios/com32/lib/libcom32core.a(farcall.o)
                              (--whole-archive)
/home/wrsadmin/github/syslinux-6.03/bios/com32/lib/libcom32core.a(cfarcall.o)
                              (--whole-archive)
/home/wrsadmin/github/syslinux-6.03/bios/com32/lib/libcom32core.a(zeroregs.o)
                              (--whole-archive)
/home/wrsadmin/github/syslinux-6.03/bios/com32/lib/libcom32core.a(argv.o)
                              (--whole-archive)
/home/wrsadmin/github/syslinux-6.03/bios/com32/lib/libcom32core.a(sleep.o)
                              (--whole-archive)
/home/wrsadmin/github/syslinux-6.03/bios/com32/lib/libcom32core.a(fileinfo.o)
                              (--whole-archive)
/home/wrsadmin/github/syslinux-6.03/bios/com32/lib/libcom32core.a(opendev.o)
                              (--whole-archive)
/home/wrsadmin/github/syslinux-6.03/bios/com32/lib/libcom32core.a(read.o)
                              (--whole-archive)
/home/wrsadmin/github/syslinux-6.03/bios/com32/lib/libcom32core.a(write.o)
                              (--whole-archive)
/home/wrsadmin/github/syslinux-6.03/bios/com32/lib/libcom32core.a(ftell.o)
                              (--whole-archive)
/home/wrsadmin/github/syslinux-6.03/bios/com32/lib/libcom32core.a(close.o)
                              (--whole-archive)
/home/wrsadmin/github/syslinux-6.03/bios/com32/lib/libcom32core.a(open.o)
                              (--whole-archive)
/home/wrsadmin/github/syslinux-6.03/bios/com32/lib/libcom32core.a(fileread.o)
                              (--whole-archive)
/home/wrsadmin/github/syslinux-6.03/bios/com32/lib/libcom32core.a(fileclose.o)
                              (--whole-archive)
/home/wrsadmin/github/syslinux-6.03/bios/com32/lib/libcom32core.a(openmem.o)
                              (--whole-archive)
/home/wrsadmin/github/syslinux-6.03/bios/com32/lib/libcom32core.a(isatty.o)
                              (--whole-archive)
/home/wrsadmin/github/syslinux-6.03/bios/com32/lib/libcom32core.a(fstat.o)
                              (--whole-archive)
/home/wrsadmin/github/syslinux-6.03/bios/com32/lib/libcom32core.a(dprintf.o)
                              (--whole-archive)
/home/wrsadmin/github/syslinux-6.03/bios/com32/lib/libcom32core.a(vdprintf.o)
                              (--whole-archive)
/home/wrsadmin/github/syslinux-6.03/bios/com32/lib/libcom32core.a(idle.o)
                              (--whole-archive)
/home/wrsadmin/github/syslinux-6.03/bios/com32/lib/libcom32core.a(exit.o)
                              (--whole-archive)
/home/wrsadmin/github/syslinux-6.03/bios/com32/lib/libcom32core.a(common.o)
                              (--whole-archive)
/home/wrsadmin/github/syslinux-6.03/bios/com32/lib/libcom32core.a(elf_module.o)
                              (--whole-archive)
/home/wrsadmin/github/syslinux-6.03/bios/com32/lib/libcom32core.a(elfutils.o)
                              (--whole-archive)
/home/wrsadmin/github/syslinux-6.03/bios/com32/lib/libcom32core.a(exec.o)
                              (--whole-archive)
/home/wrsadmin/github/syslinux-6.03/bios/com32/lib/libcom32core.a(elf_module.o)
                              (--whole-archive)
libisolinux.a(rawcon.o)       (--whole-archive)
libisolinux.a(localboot.o)    (--whole-archive)
libisolinux.a(isolinux-c.o)   (--whole-archive)

Allocating common symbols
Common symbol       size              file

SysAppends          0x4               libcom32.a(sysappend.o)
errno               0x4               libcom32.a(errno.o)
KbdMap              0x100             libcom32.a(bios.o)
__process_exit_jmp  0x18              /home/wrsadmin/github/syslinux-6.03/bios/com32/lib/libcom32core.a(exec.o)
bios_free_mem       0x4               libcom32.a(init.o)
__com32_zero_regs   0x2c              /home/wrsadmin/github/syslinux-6.03/bios/com32/lib/libcom32core.a(zeroregs.o)
PXERetry            0x2               libcom32.a(bios.o)
VGAPos              0x2               libcom32.a(graphics.o)
zero_regs           0x2c              libcom32.a(call16.o)
sched_hook_func     0x4               libcom32.a(schedule.o)
ConfigName          0x100             libcom32.a(searchconfig.o)
__file_info         0x201600          /home/wrsadmin/github/syslinux-6.03/bios/com32/lib/libcom32core.a(fileinfo.o)
VGAFileBuf          0x100             libcom32.a(graphics.o)
idle_hook_func      0x4               libcom32.a(idle.o)
files               0x600             libcom32.a(fs.o)
KbdFlags            0x1               libcom32.a(bios.o)
VGAFileMBuf         0x100             libcom32.a(graphics.o)
__core_malloc_head  0x70              libcom32.a(init.o)
VGAFilePtr          0x4               libcom32.a(graphics.o)
_screensize         0x2               libcom32.a(conio.o)
sysappend_strings   0x4c              libcom32.a(sysappend.o)
_cursor             0x2               libcom32.a(conio.o)
config_cwd          0x100             libcom32.a(searchconfig.o)

Discarded input sections

 .group         0x0000000000000000        0x8 libcom32.a(graphics.o)
 .group         0x0000000000000000        0x8 libcom32.a(graphics.o)
 .group         0x0000000000000000        0x8 libcom32.a(writehex.o)
 .text.__x86.get_pc_thunk.bx
                0x0000000000000000        0x4 libcom32.a(writehex.o)
 .group         0x0000000000000000        0x8 libcom32.a(conio.o)
 .group         0x0000000000000000        0x8 libcom32.a(conio.o)
 .group         0x0000000000000000        0x8 libcom32.a(conio.o)
 .text.__x86.get_pc_thunk.ax
                0x0000000000000000        0x4 libcom32.a(conio.o)
 .text.__x86.get_pc_thunk.bx
                0x0000000000000000        0x4 libcom32.a(conio.o)
 .group         0x0000000000000000        0x8 libcom32.a(writestr.o)
 .text.__x86.get_pc_thunk.bx
                0x0000000000000000        0x4 libcom32.a(writestr.o)
 .group         0x0000000000000000        0x8 libcom32.a(init.o)
 .text.__x86.get_pc_thunk.bx
                0x0000000000000000        0x4 libcom32.a(init.o)
 .group         0x0000000000000000        0x8 libcom32.a(iso9660.o)
 .text.__x86.get_pc_thunk.bx
                0x0000000000000000        0x4 libcom32.a(iso9660.o)
 .group         0x0000000000000000        0x8 libcom32.a(readdir.o)
 .text.__x86.get_pc_thunk.bx
                0x0000000000000000        0x4 libcom32.a(readdir.o)
 .group         0x0000000000000000        0x8 libcom32.a(searchconfig.o)
 .text.__x86.get_pc_thunk.bx
                0x0000000000000000        0x4 libcom32.a(searchconfig.o)
 .group         0x0000000000000000        0x8 libcom32.a(close.o)
 .text.__x86.get_pc_thunk.bx
                0x0000000000000000        0x4 libcom32.a(close.o)
 .group         0x0000000000000000        0x8 libcom32.a(getfssec.o)
 .text.__x86.get_pc_thunk.bx
                0x0000000000000000        0x4 libcom32.a(getfssec.o)
 .group         0x0000000000000000        0x8 libcom32.a(cache.o)
 .text.__x86.get_pc_thunk.bx
                0x0000000000000000        0x4 libcom32.a(cache.o)
 .group         0x0000000000000000        0x8 libcom32.a(diskio.o)
 .text.__x86.get_pc_thunk.bx
                0x0000000000000000        0x4 libcom32.a(diskio.o)
 .group         0x0000000000000000        0x8 libcom32.a(diskio_bios.o)
 .group         0x0000000000000000        0x8 libcom32.a(diskio_bios.o)
 .text.__x86.get_pc_thunk.bx
                0x0000000000000000        0x4 libcom32.a(diskio_bios.o)
 .group         0x0000000000000000        0x8 libcom32.a(fs.o)
 .group         0x0000000000000000        0x8 libcom32.a(fs.o)
 .group         0x0000000000000000        0x8 libcom32.a(fs.o)
 .group         0x0000000000000000        0x8 libcom32.a(fs.o)
 .group         0x0000000000000000        0x8 libcom32.a(fs.o)
 .group         0x0000000000000000        0x8 libcom32.a(fs.o)
 .text.__x86.get_pc_thunk.ax
                0x0000000000000000        0x4 libcom32.a(fs.o)
 .text.__x86.get_pc_thunk.dx
                0x0000000000000000        0x4 libcom32.a(fs.o)
 .text.__x86.get_pc_thunk.bx
                0x0000000000000000        0x4 libcom32.a(fs.o)
 .group         0x0000000000000000        0x8 libcom32.a(chdir.o)
 .group         0x0000000000000000        0x8 libcom32.a(chdir.o)
 .text.__x86.get_pc_thunk.bx
                0x0000000000000000        0x4 libcom32.a(chdir.o)
 .text.__x86.get_pc_thunk.bp
                0x0000000000000000        0x4 libcom32.a(chdir.o)
 .group         0x0000000000000000        0x8 libcom32.a(hello.o)
 .text.__x86.get_pc_thunk.bx
                0x0000000000000000        0x4 libcom32.a(hello.o)
 .group         0x0000000000000000        0x8 libcom32.a(cleanup.o)
 .text.__x86.get_pc_thunk.ax
                0x0000000000000000        0x4 libcom32.a(cleanup.o)
 .group         0x0000000000000000        0x8 libcom32.a(font.o)
 .group         0x0000000000000000        0x8 libcom32.a(font.o)
 .group         0x0000000000000000        0x8 libcom32.a(font.o)
 .text.__x86.get_pc_thunk.ax
                0x0000000000000000        0x4 libcom32.a(font.o)
 .text.__x86.get_pc_thunk.dx
                0x0000000000000000        0x4 libcom32.a(font.o)
 .text.__x86.get_pc_thunk.bx
                0x0000000000000000        0x4 libcom32.a(font.o)
 .group         0x0000000000000000        0x8 libcom32.a(load_env32.o)
 .group         0x0000000000000000        0x8 libcom32.a(load_env32.o)
 .group         0x0000000000000000        0x8 libcom32.a(load_env32.o)
 .text.__x86.get_pc_thunk.ax
                0x0000000000000000        0x4 libcom32.a(load_env32.o)
 .text.__x86.get_pc_thunk.dx
                0x0000000000000000        0x4 libcom32.a(load_env32.o)
 .text.__x86.get_pc_thunk.bx
                0x0000000000000000        0x4 libcom32.a(load_env32.o)
 .group         0x0000000000000000        0x8 libcom32.a(bios.o)
 .group         0x0000000000000000        0x8 libcom32.a(bios.o)
 .group         0x0000000000000000        0x8 libcom32.a(bios.o)
 .text.__x86.get_pc_thunk.ax
                0x0000000000000000        0x4 libcom32.a(bios.o)
 .text.__x86.get_pc_thunk.bx
                0x0000000000000000        0x4 libcom32.a(bios.o)
 .text.__x86.get_pc_thunk.bp
                0x0000000000000000        0x4 libcom32.a(bios.o)
 .group         0x0000000000000000        0x8 libcom32.a(serirq.o)
 .group         0x0000000000000000        0x8 libcom32.a(serirq.o)
 .text.__x86.get_pc_thunk.cx
                0x0000000000000000        0x4 libcom32.a(serirq.o)
 .text.__x86.get_pc_thunk.bx
                0x0000000000000000        0x4 libcom32.a(serirq.o)
 .group         0x0000000000000000        0x8 libcom32.a(init.o)
 .text.__x86.get_pc_thunk.ax
                0x0000000000000000        0x4 libcom32.a(init.o)
 .group         0x0000000000000000        0x8 libcom32.a(idle.o)
 .group         0x0000000000000000        0x8 libcom32.a(idle.o)
 .text.__x86.get_pc_thunk.ax
                0x0000000000000000        0x4 libcom32.a(idle.o)
 .text.__x86.get_pc_thunk.bx
                0x0000000000000000        0x4 libcom32.a(idle.o)
 .group         0x0000000000000000        0x8 libcom32.a(call16.o)
 .text.__x86.get_pc_thunk.bp
                0x0000000000000000        0x4 libcom32.a(call16.o)
 .group         0x0000000000000000        0x8 libcom32.a(sysappend.o)
 .group         0x0000000000000000        0x8 libcom32.a(sysappend.o)
 .text.__x86.get_pc_thunk.cx
                0x0000000000000000        0x4 libcom32.a(sysappend.o)
 .text.__x86.get_pc_thunk.bx
                0x0000000000000000        0x4 libcom32.a(sysappend.o)
 .group         0x0000000000000000        0x8 libcom32.a(path.o)
 .text.__x86.get_pc_thunk.bx
                0x0000000000000000        0x4 libcom32.a(path.o)
 .group         0x0000000000000000        0x8 libcom32.a(malloc.o)
 .group         0x0000000000000000        0x8 libcom32.a(malloc.o)
 .group         0x0000000000000000        0x8 libcom32.a(malloc.o)
 .text.__x86.get_pc_thunk.cx
                0x0000000000000000        0x4 libcom32.a(malloc.o)
 .text.__x86.get_pc_thunk.bx
                0x0000000000000000        0x4 libcom32.a(malloc.o)
 .text.__x86.get_pc_thunk.si
                0x0000000000000000        0x4 libcom32.a(malloc.o)
 .group         0x0000000000000000        0x8 libcom32.a(free.o)
 .text.__x86.get_pc_thunk.bx
                0x0000000000000000        0x4 libcom32.a(free.o)
 .group         0x0000000000000000        0x8 libcom32.a(kaboom.o)
 .text.__x86.get_pc_thunk.bx
                0x0000000000000000        0x4 libcom32.a(kaboom.o)
 .group         0x0000000000000000        0x8 libcom32.a(susp_rr.o)
 .text.__x86.get_pc_thunk.bx
                0x0000000000000000        0x4 libcom32.a(susp_rr.o)
 .group         0x0000000000000000        0x8 libcom32.a(getcwd.o)
 .text.__x86.get_pc_thunk.bx
                0x0000000000000000        0x4 libcom32.a(getcwd.o)
 .group         0x0000000000000000        0x8 libcom32.a(dmi.o)
 .group         0x0000000000000000        0x8 libcom32.a(dmi.o)
 .text.__x86.get_pc_thunk.bx
                0x0000000000000000        0x4 libcom32.a(dmi.o)
 .text.__x86.get_pc_thunk.di
                0x0000000000000000        0x4 libcom32.a(dmi.o)
 .group         0x0000000000000000        0x8 libcom32.a(semaphore.o)
 .text.__x86.get_pc_thunk.bx
                0x0000000000000000        0x4 libcom32.a(semaphore.o)
 .group         0x0000000000000000        0x8 libcom32.a(schedule.o)
 .text.__x86.get_pc_thunk.bx
                0x0000000000000000        0x4 libcom32.a(schedule.o)
 .group         0x0000000000000000        0x8 libcom32.a(exit_thread.o)
 .text.__x86.get_pc_thunk.bx
                0x0000000000000000        0x4 libcom32.a(exit_thread.o)
 .group         0x0000000000000000        0x8 /home/wrsadmin/github/syslinux-6.03/bios/com32/lib/libcom32core.a(printf.o)
 .text.__x86.get_pc_thunk.bx
                0x0000000000000000        0x4 /home/wrsadmin/github/syslinux-6.03/bios/com32/lib/libcom32core.a(printf.o)
 .group         0x0000000000000000        0x8 /home/wrsadmin/github/syslinux-6.03/bios/com32/lib/libcom32core.a(vfprintf.o)
 .text.__x86.get_pc_thunk.bx
                0x0000000000000000        0x4 /home/wrsadmin/github/syslinux-6.03/bios/com32/lib/libcom32core.a(vfprintf.o)
 .group         0x0000000000000000        0x8 /home/wrsadmin/github/syslinux-6.03/bios/com32/lib/libcom32core.a(vsnprintf.o)
 .text.__x86.get_pc_thunk.di
                0x0000000000000000        0x4 /home/wrsadmin/github/syslinux-6.03/bios/com32/lib/libcom32core.a(vsnprintf.o)
 .group         0x0000000000000000        0x8 /home/wrsadmin/github/syslinux-6.03/bios/com32/lib/libcom32core.a(snprintf.o)
 .text.__x86.get_pc_thunk.bx
                0x0000000000000000        0x4 /home/wrsadmin/github/syslinux-6.03/bios/com32/lib/libcom32core.a(snprintf.o)
 .group         0x0000000000000000        0x8 /home/wrsadmin/github/syslinux-6.03/bios/com32/lib/libcom32core.a(strdup.o)
 .text.__x86.get_pc_thunk.bx
                0x0000000000000000        0x4 /home/wrsadmin/github/syslinux-6.03/bios/com32/lib/libcom32core.a(strdup.o)
 .group         0x0000000000000000        0x8 /home/wrsadmin/github/syslinux-6.03/bios/com32/lib/libcom32core.a(fopen.o)
 .text.__x86.get_pc_thunk.bx
                0x0000000000000000        0x4 /home/wrsadmin/github/syslinux-6.03/bios/com32/lib/libcom32core.a(fopen.o)
 .group         0x0000000000000000        0x8 /home/wrsadmin/github/syslinux-6.03/bios/com32/lib/libcom32core.a(fread.o)
 .text.__x86.get_pc_thunk.bx
                0x0000000000000000        0x4 /home/wrsadmin/github/syslinux-6.03/bios/com32/lib/libcom32core.a(fread.o)
 .group         0x0000000000000000        0x8 /home/wrsadmin/github/syslinux-6.03/bios/com32/lib/libcom32core.a(fread2.o)
 .text.__x86.get_pc_thunk.bx
                0x0000000000000000        0x4 /home/wrsadmin/github/syslinux-6.03/bios/com32/lib/libcom32core.a(fread2.o)
 .group         0x0000000000000000        0x8 /home/wrsadmin/github/syslinux-6.03/bios/com32/lib/libcom32core.a(puts.o)
 .text.__x86.get_pc_thunk.bx
                0x0000000000000000        0x4 /home/wrsadmin/github/syslinux-6.03/bios/com32/lib/libcom32core.a(puts.o)
 .group         0x0000000000000000        0x8 /home/wrsadmin/github/syslinux-6.03/bios/com32/lib/libcom32core.a(strtoul.o)
 .text.__x86.get_pc_thunk.bx
                0x0000000000000000        0x4 /home/wrsadmin/github/syslinux-6.03/bios/com32/lib/libcom32core.a(strtoul.o)
 .group         0x0000000000000000        0x8 /home/wrsadmin/github/syslinux-6.03/bios/com32/lib/libcom32core.a(strntoumax.o)
 .text.__x86.get_pc_thunk.si
                0x0000000000000000        0x4 /home/wrsadmin/github/syslinux-6.03/bios/com32/lib/libcom32core.a(strntoumax.o)
 .group         0x0000000000000000        0x8 /home/wrsadmin/github/syslinux-6.03/bios/com32/lib/libcom32core.a(strcasecmp.o)
 .text.__x86.get_pc_thunk.cx
                0x0000000000000000        0x4 /home/wrsadmin/github/syslinux-6.03/bios/com32/lib/libcom32core.a(strcasecmp.o)
 .group         0x0000000000000000        0x8 /home/wrsadmin/github/syslinux-6.03/bios/com32/lib/libcom32core.a(sprintf.o)
 .text.__x86.get_pc_thunk.bx
                0x0000000000000000        0x4 /home/wrsadmin/github/syslinux-6.03/bios/com32/lib/libcom32core.a(sprintf.o)
 .group         0x0000000000000000        0x8 /home/wrsadmin/github/syslinux-6.03/bios/com32/lib/libcom32core.a(strncasecmp.o)
 .text.__x86.get_pc_thunk.bx
                0x0000000000000000        0x4 /home/wrsadmin/github/syslinux-6.03/bios/com32/lib/libcom32core.a(strncasecmp.o)
 .group         0x0000000000000000        0x8 /home/wrsadmin/github/syslinux-6.03/bios/com32/lib/libcom32core.a(fputs.o)
 .text.__x86.get_pc_thunk.bx
                0x0000000000000000        0x4 /home/wrsadmin/github/syslinux-6.03/bios/com32/lib/libcom32core.a(fputs.o)
 .group         0x0000000000000000        0x8 /home/wrsadmin/github/syslinux-6.03/bios/com32/lib/libcom32core.a(fwrite2.o)
 .text.__x86.get_pc_thunk.bx
                0x0000000000000000        0x4 /home/wrsadmin/github/syslinux-6.03/bios/com32/lib/libcom32core.a(fwrite2.o)
 .group         0x0000000000000000        0x8 /home/wrsadmin/github/syslinux-6.03/bios/com32/lib/libcom32core.a(fwrite.o)
 .text.__x86.get_pc_thunk.bx
                0x0000000000000000        0x4 /home/wrsadmin/github/syslinux-6.03/bios/com32/lib/libcom32core.a(fwrite.o)
 .group         0x0000000000000000        0x8 /home/wrsadmin/github/syslinux-6.03/bios/com32/lib/libcom32core.a(fgetc.o)
 .text.__x86.get_pc_thunk.bx
                0x0000000000000000        0x4 /home/wrsadmin/github/syslinux-6.03/bios/com32/lib/libcom32core.a(fgetc.o)
 .group         0x0000000000000000        0x8 /home/wrsadmin/github/syslinux-6.03/bios/com32/lib/libcom32core.a(fclose.o)
 .text.__x86.get_pc_thunk.bx
                0x0000000000000000        0x4 /home/wrsadmin/github/syslinux-6.03/bios/com32/lib/libcom32core.a(fclose.o)
 .group         0x0000000000000000        0x8 /home/wrsadmin/github/syslinux-6.03/bios/com32/lib/libcom32core.a(lmalloc.o)
 .text.__x86.get_pc_thunk.bx
                0x0000000000000000        0x4 /home/wrsadmin/github/syslinux-6.03/bios/com32/lib/libcom32core.a(lmalloc.o)
 .group         0x0000000000000000        0x8 /home/wrsadmin/github/syslinux-6.03/bios/com32/lib/libcom32core.a(err_read.o)
 .text.__x86.get_pc_thunk.ax
                0x0000000000000000        0x4 /home/wrsadmin/github/syslinux-6.03/bios/com32/lib/libcom32core.a(err_read.o)
 .group         0x0000000000000000        0x8 /home/wrsadmin/github/syslinux-6.03/bios/com32/lib/libcom32core.a(err_write.o)
 .text.__x86.get_pc_thunk.ax
                0x0000000000000000        0x4 /home/wrsadmin/github/syslinux-6.03/bios/com32/lib/libcom32core.a(err_write.o)
 .group         0x0000000000000000        0x8 /home/wrsadmin/github/syslinux-6.03/bios/com32/lib/libcom32core.a(stdcon_write.o)
 .text.__x86.get_pc_thunk.bx
                0x0000000000000000        0x4 /home/wrsadmin/github/syslinux-6.03/bios/com32/lib/libcom32core.a(stdcon_write.o)
 .group         0x0000000000000000        0x8 /home/wrsadmin/github/syslinux-6.03/bios/com32/lib/libcom32core.a(memscan.o)
 .group         0x0000000000000000        0x8 /home/wrsadmin/github/syslinux-6.03/bios/com32/lib/libcom32core.a(memscan.o)
 .group         0x0000000000000000        0x8 /home/wrsadmin/github/syslinux-6.03/bios/com32/lib/libcom32core.a(memscan.o)
 .text.__x86.get_pc_thunk.dx
                0x0000000000000000        0x4 /home/wrsadmin/github/syslinux-6.03/bios/com32/lib/libcom32core.a(memscan.o)
 .text.__x86.get_pc_thunk.cx
                0x0000000000000000        0x4 /home/wrsadmin/github/syslinux-6.03/bios/com32/lib/libcom32core.a(memscan.o)
 .text.__x86.get_pc_thunk.bx
                0x0000000000000000        0x4 /home/wrsadmin/github/syslinux-6.03/bios/com32/lib/libcom32core.a(memscan.o)
 .group         0x0000000000000000        0x8 /home/wrsadmin/github/syslinux-6.03/bios/com32/lib/libcom32core.a(strcat.o)
 .text.__x86.get_pc_thunk.bx
                0x0000000000000000        0x4 /home/wrsadmin/github/syslinux-6.03/bios/com32/lib/libcom32core.a(strcat.o)
 .group         0x0000000000000000        0x8 /home/wrsadmin/github/syslinux-6.03/bios/com32/lib/libcom32core.a(__udivdi3.o)
 .text.__x86.get_pc_thunk.bx
                0x0000000000000000        0x4 /home/wrsadmin/github/syslinux-6.03/bios/com32/lib/libcom32core.a(__udivdi3.o)
 .group         0x0000000000000000        0x8 /home/wrsadmin/github/syslinux-6.03/bios/com32/lib/libcom32core.a(__umoddi3.o)
 .text.__x86.get_pc_thunk.bx
                0x0000000000000000        0x4 /home/wrsadmin/github/syslinux-6.03/bios/com32/lib/libcom32core.a(__umoddi3.o)
 .group         0x0000000000000000        0x8 /home/wrsadmin/github/syslinux-6.03/bios/com32/lib/libcom32core.a(__divdi3.o)
 .text.__x86.get_pc_thunk.si
                0x0000000000000000        0x4 /home/wrsadmin/github/syslinux-6.03/bios/com32/lib/libcom32core.a(__divdi3.o)
 .group         0x0000000000000000        0x8 /home/wrsadmin/github/syslinux-6.03/bios/com32/lib/libcom32core.a(__moddi3.o)
 .text.__x86.get_pc_thunk.si
                0x0000000000000000        0x4 /home/wrsadmin/github/syslinux-6.03/bios/com32/lib/libcom32core.a(__moddi3.o)
 .group         0x0000000000000000        0x8 /home/wrsadmin/github/syslinux-6.03/bios/com32/lib/libcom32core.a(debug.o)
 .text.__x86.get_pc_thunk.bx
                0x0000000000000000        0x4 /home/wrsadmin/github/syslinux-6.03/bios/com32/lib/libcom32core.a(debug.o)
 .group         0x0000000000000000        0x8 /home/wrsadmin/github/syslinux-6.03/bios/com32/lib/libcom32core.a(intcall.o)
 .text.__x86.get_pc_thunk.bx
                0x0000000000000000        0x4 /home/wrsadmin/github/syslinux-6.03/bios/com32/lib/libcom32core.a(intcall.o)
 .group         0x0000000000000000        0x8 /home/wrsadmin/github/syslinux-6.03/bios/com32/lib/libcom32core.a(farcall.o)
 .text.__x86.get_pc_thunk.bx
                0x0000000000000000        0x4 /home/wrsadmin/github/syslinux-6.03/bios/com32/lib/libcom32core.a(farcall.o)
 .group         0x0000000000000000        0x8 /home/wrsadmin/github/syslinux-6.03/bios/com32/lib/libcom32core.a(cfarcall.o)
 .text.__x86.get_pc_thunk.bx
                0x0000000000000000        0x4 /home/wrsadmin/github/syslinux-6.03/bios/com32/lib/libcom32core.a(cfarcall.o)
 .group         0x0000000000000000        0x8 /home/wrsadmin/github/syslinux-6.03/bios/com32/lib/libcom32core.a(argv.o)
 .text.__x86.get_pc_thunk.si
                0x0000000000000000        0x4 /home/wrsadmin/github/syslinux-6.03/bios/com32/lib/libcom32core.a(argv.o)
 .group         0x0000000000000000        0x8 /home/wrsadmin/github/syslinux-6.03/bios/com32/lib/libcom32core.a(sleep.o)
 .text.__x86.get_pc_thunk.bx
                0x0000000000000000        0x4 /home/wrsadmin/github/syslinux-6.03/bios/com32/lib/libcom32core.a(sleep.o)
 .group         0x0000000000000000        0x8 /home/wrsadmin/github/syslinux-6.03/bios/com32/lib/libcom32core.a(opendev.o)
 .text.__x86.get_pc_thunk.bx
                0x0000000000000000        0x4 /home/wrsadmin/github/syslinux-6.03/bios/com32/lib/libcom32core.a(opendev.o)
 .group         0x0000000000000000        0x8 /home/wrsadmin/github/syslinux-6.03/bios/com32/lib/libcom32core.a(read.o)
 .text.__x86.get_pc_thunk.di
                0x0000000000000000        0x4 /home/wrsadmin/github/syslinux-6.03/bios/com32/lib/libcom32core.a(read.o)
 .group         0x0000000000000000        0x8 /home/wrsadmin/github/syslinux-6.03/bios/com32/lib/libcom32core.a(write.o)
 .text.__x86.get_pc_thunk.di
                0x0000000000000000        0x4 /home/wrsadmin/github/syslinux-6.03/bios/com32/lib/libcom32core.a(write.o)
 .group         0x0000000000000000        0x8 /home/wrsadmin/github/syslinux-6.03/bios/com32/lib/libcom32core.a(ftell.o)
 .text.__x86.get_pc_thunk.dx
                0x0000000000000000        0x4 /home/wrsadmin/github/syslinux-6.03/bios/com32/lib/libcom32core.a(ftell.o)
 .group         0x0000000000000000        0x8 /home/wrsadmin/github/syslinux-6.03/bios/com32/lib/libcom32core.a(close.o)
 .text.__x86.get_pc_thunk.di
                0x0000000000000000        0x4 /home/wrsadmin/github/syslinux-6.03/bios/com32/lib/libcom32core.a(close.o)
 .group         0x0000000000000000        0x8 /home/wrsadmin/github/syslinux-6.03/bios/com32/lib/libcom32core.a(open.o)
 .text.__x86.get_pc_thunk.bx
                0x0000000000000000        0x4 /home/wrsadmin/github/syslinux-6.03/bios/com32/lib/libcom32core.a(open.o)
 .group         0x0000000000000000        0x8 /home/wrsadmin/github/syslinux-6.03/bios/com32/lib/libcom32core.a(fileread.o)
 .text.__x86.get_pc_thunk.bx
                0x0000000000000000        0x4 /home/wrsadmin/github/syslinux-6.03/bios/com32/lib/libcom32core.a(fileread.o)
 .group         0x0000000000000000        0x8 /home/wrsadmin/github/syslinux-6.03/bios/com32/lib/libcom32core.a(fileclose.o)
 .text.__x86.get_pc_thunk.bx
                0x0000000000000000        0x4 /home/wrsadmin/github/syslinux-6.03/bios/com32/lib/libcom32core.a(fileclose.o)
 .group         0x0000000000000000        0x8 /home/wrsadmin/github/syslinux-6.03/bios/com32/lib/libcom32core.a(openmem.o)
 .text.__x86.get_pc_thunk.bx
                0x0000000000000000        0x4 /home/wrsadmin/github/syslinux-6.03/bios/com32/lib/libcom32core.a(openmem.o)
 .group         0x0000000000000000        0x8 /home/wrsadmin/github/syslinux-6.03/bios/com32/lib/libcom32core.a(isatty.o)
 .text.__x86.get_pc_thunk.dx
                0x0000000000000000        0x4 /home/wrsadmin/github/syslinux-6.03/bios/com32/lib/libcom32core.a(isatty.o)
 .group         0x0000000000000000        0x8 /home/wrsadmin/github/syslinux-6.03/bios/com32/lib/libcom32core.a(fstat.o)
 .text.__x86.get_pc_thunk.cx
                0x0000000000000000        0x4 /home/wrsadmin/github/syslinux-6.03/bios/com32/lib/libcom32core.a(fstat.o)
 .group         0x0000000000000000        0x8 /home/wrsadmin/github/syslinux-6.03/bios/com32/lib/libcom32core.a(idle.o)
 .text.__x86.get_pc_thunk.bx
                0x0000000000000000        0x4 /home/wrsadmin/github/syslinux-6.03/bios/com32/lib/libcom32core.a(idle.o)
 .group         0x0000000000000000        0x8 /home/wrsadmin/github/syslinux-6.03/bios/com32/lib/libcom32core.a(exit.o)
 .text.__x86.get_pc_thunk.bx
                0x0000000000000000        0x4 /home/wrsadmin/github/syslinux-6.03/bios/com32/lib/libcom32core.a(exit.o)
 .group         0x0000000000000000        0x8 /home/wrsadmin/github/syslinux-6.03/bios/com32/lib/libcom32core.a(common.o)
 .text.__x86.get_pc_thunk.bx
                0x0000000000000000        0x4 /home/wrsadmin/github/syslinux-6.03/bios/com32/lib/libcom32core.a(common.o)
 .group         0x0000000000000000        0x8 /home/wrsadmin/github/syslinux-6.03/bios/com32/lib/libcom32core.a(elf_module.o)
 .text.__x86.get_pc_thunk.bx
                0x0000000000000000        0x4 /home/wrsadmin/github/syslinux-6.03/bios/com32/lib/libcom32core.a(elf_module.o)
 .group         0x0000000000000000        0x8 /home/wrsadmin/github/syslinux-6.03/bios/com32/lib/libcom32core.a(elfutils.o)
 .text.__x86.get_pc_thunk.bx
                0x0000000000000000        0x4 /home/wrsadmin/github/syslinux-6.03/bios/com32/lib/libcom32core.a(elfutils.o)
 .group         0x0000000000000000        0x8 /home/wrsadmin/github/syslinux-6.03/bios/com32/lib/libcom32core.a(exec.o)
 .text.__x86.get_pc_thunk.bx
                0x0000000000000000        0x4 /home/wrsadmin/github/syslinux-6.03/bios/com32/lib/libcom32core.a(exec.o)
 .group         0x0000000000000000        0x8 /home/wrsadmin/github/syslinux-6.03/bios/com32/lib/libcom32core.a(elf_module.o)
 .text.__x86.get_pc_thunk.bx
                0x0000000000000000        0x4 /home/wrsadmin/github/syslinux-6.03/bios/com32/lib/libcom32core.a(elf_module.o)
 .group         0x0000000000000000        0x8 libisolinux.a(rawcon.o)
 .text.__x86.get_pc_thunk.bx
                0x0000000000000000        0x4 libisolinux.a(rawcon.o)
 .group         0x0000000000000000        0x8 libisolinux.a(localboot.o)
 .text.__x86.get_pc_thunk.bx
                0x0000000000000000        0x4 libisolinux.a(localboot.o)
 .group         0x0000000000000000        0x8 libisolinux.a(isolinux-c.o)
 .text.__x86.get_pc_thunk.dx
                0x0000000000000000        0x4 libisolinux.a(isolinux-c.o)

Memory Configuration

Name             Origin             Length             Attributes
*default*        0x0000000000000000 0xffffffffffffffff

Linker script and memory map

                0x0000000000010000                STACK32_LEN = 0x10000
                0x0000000000000000                . = 0x0
                0x0000000000000000                __module_start = .

.prefix         0x0000000000000000       0x14
 *(.prefix)
 .prefix        0x0000000000000000       0x14 isolinux.o
                0x0000000000001000                . = 0x1000

.earlybss       0x0000000000001000     0x28bc
                0x0000000000001000                __earlybss_start = .
 *(.earlybss)
 .earlybss      0x0000000000001000     0x28bc isolinux.o
                0x0000000000001000                trackbuf
                0x0000000000003012                BIOSName
                0x0000000000003014                BIOSType
                0x0000000000003017                DriveNumber
                0x0000000000003020                Hidden
                0x0000000000003030                spec_packet
                0x00000000000038b8                RealModeSSSP
                0x00000000000038bc                __earlybss_end = .
                0x00000000000028bc                __earlybss_len = (ABSOLUTE (__earlybss_end) - ABSOLUTE (__earlybss_start))
                0x0000000000000a2f                __earlybss_dwords = ((__earlybss_len + 0x3) >> 0x2)
                0x00000000000038bc                . = ALIGN (0x4)

.bss16          0x00000000000038c0      0x226
                0x00000000000038c0                __bss16_start = .
 *(.bss16)
 .bss16         0x00000000000038c0      0x221 isolinux.o
                0x00000000000038cc                KernelName
                0x00000000000039cc                CurrentDirName
                0x0000000000003add                OrigFDCTabPtr
 *fill*         0x0000000000003ae1        0x1 
 .bss16         0x0000000000003ae2        0x4 libcom32.a(fs.o)
                0x0000000000003ae2                SectorShift
                0x0000000000003ae4                SectorSize
                0x0000000000003ae6                __bss16_end = .
                0x0000000000000226                __bss16_len = (ABSOLUTE (__bss16_end) - ABSOLUTE (__bss16_start))
                0x000000000000008a                __bss16_dwords = ((__bss16_len + 0x3) >> 0x2)
                0x0000000000003ae8                . = ALIGN (0x4)

.config         0x0000000000003ae8        0x0 load address 0x0000000000008ef0
                0x0000000000003ae8                __config_start = .
 *(.config)
 .config        0x0000000000003ae8        0x0 isolinux.o
                0x0000000000003ae8                __config_end = .
                0x0000000000000000                __config_len = (ABSOLUTE (__config_end) - ABSOLUTE (__config_start))
                0x0000000000000000                __config_dwords = ((__config_len + 0x3) >> 0x2)
                0x0000000000003b00                . = ALIGN (0x80)

.replacestub    0x0000000000003b00        0x0 load address 0x0000000000008ef0
                0x0000000000003b00                __replacestub_start = .
 *(.replacestub)
 .replacestub   0x0000000000003b00        0x0 isolinux.o
                0x0000000000003b00                __replacestub_end = .
                0x0000000000000000                __replacestub_len = (ABSOLUTE (__replacestub_end) - ABSOLUTE (__replacestub_start))
                0x0000000000000000                __replacestub_dwords = ((__replacestub_len + 0x3) >> 0x2)
                0x0000000000003b00                . = ALIGN (0x10)
                0x0000000000003b00                __gentextnr_lma = .

.gentextnr      0x0000000000003b00      0x418
                0x0000000000003b00                __gentextnr_start = .
 *(.gentextnr)
 .gentextnr     0x0000000000003b00      0x418 isolinux.o
                0x0000000000003f18                __gentextnr_end = .
                0x0000000000000418                __gentextnr_len = (ABSOLUTE (__gentextnr_end) - ABSOLUTE (__gentextnr_start))
                0x0000000000000106                __gentextnr_dwords = ((__gentextnr_len + 0x3) >> 0x2)
                0x0000000000006c00                . = STACK_BASE

.stack16        0x0000000000006c00     0x1000
                0x0000000000006c00                __stack16_start = .
                0x0000000000007c00                . = (. + STACK_LEN)
 *fill*         0x0000000000006c00     0x1000 
                0x0000000000007c00                __stack16_end = .
 .stack16       0x0000000000007c00        0x0 isolinux.o
                0x0000000000001000                __stack16_len = (ABSOLUTE (__stack16_end) - ABSOLUTE (__stack16_start))
                0x0000000000000400                __stack16_dwords = ((__stack16_len + 0x3) >> 0x2)
                0x0000000000007c00                . = 0x7c00

.init           0x0000000000007c00      0x800
 FILL mask 0x90909090
                0x0000000000007c00                __init_start = .
 *(.init)
 .init          0x0000000000007c00      0x800 isolinux.o
                0x0000000000007c00                _start
                0x0000000000007c08                iso_boot_info
                0x0000000000007f21                getlinsec
                0x00000000000080c3                kaboom
                0x000000000000813a                syslinux_banner
                0x000000000000814c                copyright_str
                0x0000000000008384                bios_cdrom
                0x0000000000008400                __init_end = .
                0x0000000000000800                __init_len = (ABSOLUTE (__init_end) - ABSOLUTE (__init_start))
                0x0000000000000200                __init_dwords = ((__init_len + 0x3) >> 0x2)

.text16         0x0000000000008400      0x54c
 FILL mask 0x90909090
                0x0000000000008400                __text16_start = .
 *(.text16)
 .text16        0x0000000000008400      0x54c isolinux.o
                0x0000000000008482                local_boot16
                0x00000000000086c3                adv_init
                0x00000000000087f6                adv_write
                0x000000000000892a                bios_timer_cleanup
                0x0000000000008933                timer_irq
                0x0000000000008948                BIOS_timer_next
                0x000000000000894c                __text16_end = .
                0x000000000000054c                __text16_len = (ABSOLUTE (__text16_end) - ABSOLUTE (__text16_start))
                0x0000000000000153                __text16_dwords = ((__text16_len + 0x3) >> 0x2)
                0x0000000000008950                . = ALIGN (0x10)

.textnr         0x0000000000008950      0x360
 FILL mask 0x90909090
                0x0000000000008950                __textnr_start = .
 *(.textnr)
 .textnr        0x0000000000008950       0xae isolinux.o
                0x00000000000089fd                core_pm_null_hook
 *fill*         0x00000000000089fe        0x2 90909090
 .textnr        0x0000000000008a00      0x2b0 libcom32.a(lzo1x_f2.o)
                0x0000000000008a00                _lzo1x_decompress_asm_fast_safe
                0x0000000000008cb0                __textnr_end = .
                0x0000000000000360                __textnr_len = (ABSOLUTE (__textnr_end) - ABSOLUTE (__textnr_start))
                0x00000000000000d8                __textnr_dwords = ((__textnr_len + 0x3) >> 0x2)
                0x0000000000008cb0                . = ALIGN (0x10)
                0x0000000000008cb0                __bcopyxx_start = .

.bcopyxx.text   0x0000000000008cb0      0x147
 FILL mask 0x90909090
                0x0000000000008cb0                __bcopyxx_text_start = .
 *(.bcopyxx.text)
 .bcopyxx.text  0x0000000000008cb0      0x147 isolinux.o
                0x0000000000008d66                do_raw_shuffle_and_boot
                0x0000000000008df7                __bcopyxx_text_end = .
                0x0000000000000147                __bcopyxx_text_len = (ABSOLUTE (__bcopyxx_text_end) - ABSOLUTE (__bcopyxx_text_start))
                0x0000000000000052                __bcopyxx_text_dwords = ((__bcopyxx_text_len + 0x3) >> 0x2)

.bcopyxx.data   0x0000000000008e00       0x36
                0x0000000000008e00                __bcopyxx_data_start = .
 *(.bcopyxx.text)
                0x0000000000008e00                __bcopyxx_data_end = .
 .bcopyxx.data  0x0000000000008e00       0x36 isolinux.o
                0x0000000000000000                __bcopyxx_data_len = (ABSOLUTE (__bcopyxx_data_end) - ABSOLUTE (__bcopyxx_data_start))
                0x0000000000000000                __bcopyxx_data_dwords = ((__bcopyxx_data_len + 0x3) >> 0x2)
                0x0000000000008e36                __bcopyxx_end = .
                0x0000000000000186                __bcopyxx_len = (ABSOLUTE (__bcopyxx_end) - ABSOLUTE (__bcopyxx_start))
                0x0000000000000062                __bcopyxx_dwords = ((__bcopyxx_len + 0x3) >> 0x2)
                0x0000000000008e38                . = ALIGN (0x4)

.data16         0x0000000000008e40       0xaf
                0x0000000000008e40                __data16_start = .
 *(.data16)
 .data16        0x0000000000008e40       0xaf isolinux.o
                0x0000000000008e40                BaseStack
                0x0000000000008e50                __com32
                0x0000000000008e84                core_pm_hook
                0x0000000000008ebc                __jiffies
                0x0000000000008ec0                __ms_timer
                0x0000000000008eef                __data16_end = .
                0x00000000000000af                __data16_len = (ABSOLUTE (__data16_end) - ABSOLUTE (__data16_start))
                0x000000000000002c                __data16_dwords = ((__data16_len + 0x3) >> 0x2)
                0x0000000000008ef0                . = ALIGN (0x4)
                0x0000000000008ef0                __config_lma = .
                0x0000000000008ef0                . = (. + SIZEOF (.config))
                0x0000000000008ef0                . = ALIGN (0x4)
                0x0000000000008ef0                __replacestub_lma = .
                0x0000000000008ef0                . = (. + SIZEOF (.replacestub))
                0x0000000000008ef0                . = ALIGN (0x10)
                0x0000000000008ef0                __pm_code_lma = .
                0x0000000000008ef0                __high_clear_start = .
                0x0000000000009000                . = ALIGN (0x200)

.adv            0x0000000000009000      0x400
                0x0000000000009000                __adv_start = .
 *(.adv)
 .adv           0x0000000000009000      0x400 isolinux.o
                0x0000000000009400                __adv_end = .
                0x0000000000000400                __adv_len = (ABSOLUTE (__adv_end) - ABSOLUTE (__adv_start))
                0x0000000000000100                __adv_dwords = ((__adv_len + 0x3) >> 0x2)
                0x0000000000009400                . = ALIGN (0x4)

.uibss          0x0000000000009400      0x100
                0x0000000000009400                __uibss_start = .
 *(.uibss)
 .uibss         0x0000000000009400      0x100 isolinux.o
                0x0000000000009500                __uibss_end = .
                0x0000000000000100                __uibss_len = (ABSOLUTE (__uibss_end) - ABSOLUTE (__uibss_start))
                0x0000000000000040                __uibss_dwords = ((__uibss_len + 0x3) >> 0x2)
                0x0000000000009500                _end16 = .
                0x0000000000000001                __assert_end16 = ASSERT ((_end16 <= 0x10000), 64K overflow)
                0x0000000000010000                . = ALIGN (0x10000)

.real_mode      0x0000000000010000    0x10000
 *(.real_mode)
 .real_mode     0x0000000000010000    0x10000 isolinux.o
                0x0000000000010000                core_real_mode
                0x0000000000001000                real_mode_seg = (core_real_mode >> 0x4)
                0x0000000000020000                . = ALIGN (0x10000)

.xfer_buf       0x0000000000020000    0x10000
 *(.xfer_buf)
 .xfer_buf      0x0000000000020000    0x10000 isolinux.o
                0x0000000000020000                core_xfer_buf
                0x0000000000002000                xfer_buf_seg = (core_xfer_buf >> 0x4)
                0x0000000000030000                . = ALIGN (0x10)

.auxseg         0x0000000000030000        0x0
                0x0000000000030000                __auxseg_start = .
 *(.auxseg)
                0x0000000000030000                __auxseg_end = .
                0x0000000000000000                __auxseg_len = (ABSOLUTE (__auxseg_end) - ABSOLUTE (__auxseg_start))
                0x0000000000000000                __auxseg_dwords = ((__auxseg_len + 0x3) >> 0x2)
                0x0000000000003000                aux_seg = (__auxseg_start >> 0x4)

.lowmem         0x0000000000030000     0x2060
                0x0000000000030000                __lowmem_start = .
 *(.lowmem)
 .lowmem        0x0000000000030000       0x5c libcom32.a(diskio_bios.o)
 *fill*         0x000000000003005c        0x4 
 .lowmem        0x0000000000030060     0x2000 libcom32.a(font.o)
                0x0000000000030060                fontbuf
                0x0000000000032060                __lowmem_end = .
                0x0000000000002060                __lowmem_len = (ABSOLUTE (__lowmem_end) - ABSOLUTE (__lowmem_start))
                0x0000000000000818                __lowmem_dwords = ((__lowmem_len + 0x3) >> 0x2)
                0x0000000000032060                __high_clear_end = .
                0x0000000000029170                __high_clear_len = (ABSOLUTE (__high_clear_end) - ABSOLUTE (__high_clear_start))
                0x000000000000a45c                __high_clear_dwords = ((__high_clear_len + 0x3) >> 0x2)
                0x0000000000032060                . = ALIGN (0x10)
                0x0000000000032060                __lowmem_heap = .
                0x0000000000100000                . = 0x100000
                0x0000000000100000                __pm_code_start = .
                0x0000000000100000                __text_vma = .
                0x0000000000008ef0                __text_lma = __pm_code_lma

.text           0x0000000000100000     0x87d7 load address 0x0000000000008ef0
 FILL mask 0x90909090
                0x0000000000100000                __text_start = .
 *(.text)
 .text          0x0000000000100000      0x12d isolinux.o
                0x0000000000100000                core_farcall
                0x0000000000100006                core_intcall
                0x00000000001000a6                core_cfarcall
 .text          0x000000000010012d      0x4ef libcom32.a(graphics.o)
                0x00000000001001a7                syslinux_force_text_mode
                0x0000000000100233                vgadisplayfile
                0x00000000001005a1                vgahidecursor
                0x00000000001005bf                vgashowcursor
                0x00000000001005dd                using_vga
                0x000000000010060e                pm_using_vga
 .text          0x000000000010061c       0x71 libcom32.a(writehex.o)
                0x0000000000100660                writehex2
                0x0000000000100667                writehex4
                0x0000000000100671                writehex8
                0x000000000010067b                pm_writehex2
                0x0000000000100681                pm_writehex4
                0x0000000000100687                pm_writehex8
 .text          0x000000000010068d      0x37b libcom32.a(conio.o)
                0x000000000010068d                loadkeys
                0x00000000001006ce                write_serial
                0x000000000010072a                pm_write_serial
                0x0000000000100730                serialcfg
                0x0000000000100787                pm_serialcfg
                0x0000000000100792                write_serial_str
                0x00000000001007a7                bios_pollchar
                0x0000000000100831                pollchar
                0x0000000000100849                pm_pollchar
                0x0000000000100861                bios_getchar
                0x0000000000100970                bios_shiftflags
                0x00000000001009bf                kbd_shiftflags
                0x00000000001009e0                getchar
                0x00000000001009f8                pm_getchar
 .text          0x0000000000100a08       0x52 libcom32.a(writestr.o)
                0x0000000000100a08                crlf
                0x0000000000100a2a                writestr
                0x0000000000100a4b                pm_writestr
 .text          0x0000000000100a5a       0xf6 libcom32.a(init.o)
                0x0000000000100a5a                scan_highmem_area
                0x0000000000100abf                mem_init
 .text          0x0000000000100b50      0x153 libcom32.a(rllpack.o)
                0x0000000000100b50                rllpack
                0x0000000000100c10                rllunpack
 .text          0x0000000000100ca3      0x519 libcom32.a(iso9660.o)
 .text          0x00000000001011bc       0x91 libcom32.a(readdir.o)
                0x00000000001011bc                opendir
                0x0000000000101205                readdir
                0x0000000000101238                closedir
 .text          0x000000000010124d       0x57 libcom32.a(mangle.o)
                0x000000000010124d                generic_mangle_name
 .text          0x00000000001012a4       0xe7 libcom32.a(searchconfig.o)
                0x00000000001012a4                search_dirs
 .text          0x000000000010138b       0x23 libcom32.a(close.o)
                0x000000000010138b                generic_close_file
 .text          0x00000000001013ae        0x4 libcom32.a(nonextextent.o)
                0x00000000001013ae                no_next_extent
 .text          0x00000000001013b2      0x216 libcom32.a(getfssec.o)
                0x00000000001013b2                generic_getfssec
 .text          0x00000000001015c8      0x1f4 libcom32.a(cache.o)
                0x00000000001015c8                cache_init
                0x0000000000101663                cache_lock_block
                0x0000000000101684                _get_cache_block
                0x00000000001016d7                get_cache
                0x0000000000101726                cache_read
 .text          0x00000000001017bc       0x84 libcom32.a(diskio.o)
                0x00000000001017bc                getoneblk
                0x00000000001017fa                device_init
 .text          0x0000000000101840      0x7f6 libcom32.a(diskio_bios.o)
                0x0000000000101dca                bios_disk_init
                0x0000000000102014                pm_fs_init
 .text          0x0000000000102036      0x5ed libcom32.a(fs.o)
                0x0000000000102036                alloc_inode
                0x000000000010206b                put_inode
                0x00000000001020a2                _close_file
                0x00000000001020cf                open_config
                0x0000000000102146                mangle_name
                0x000000000010215c                pmapi_read_file
                0x00000000001021b3                searchdir
                0x0000000000102454                open_file
                0x00000000001024cf                close_file
                0x00000000001024f2                fs_uuid
                0x0000000000102518                fs_init
 .text          0x0000000000102623      0x226 libcom32.a(chdir.o)
                0x00000000001026a6                realpath
                0x0000000000102745                pm_realpath
                0x0000000000102769                chdir
 .text          0x0000000000102849      0x139 libcom32.a(hello.o)
                0x0000000000102883                myputchar
                0x00000000001028ae                myputs
                0x00000000001028c2                hello
                0x00000000001028ed                hexdump
                0x0000000000102950                mp1
                0x000000000010295a                mp2
                0x0000000000102964                mp3
                0x000000000010296e                mp4
                0x0000000000102978                mp5
 .text          0x0000000000102982        0x0 libcom32.a(errno.o)
 .text          0x0000000000102982       0x15 libcom32.a(cleanup.o)
                0x0000000000102982                cleanup_hardware
 .text          0x0000000000102997        0x0 libcom32.a(pmapi.o)
 .text          0x0000000000102997      0x253 libcom32.a(font.o)
                0x0000000000102997                bios_adjust_screen
                0x00000000001029ef                use_font
                0x0000000000102b08                loadfont
                0x0000000000102bad                adjust_screen
                0x0000000000102bc9                pm_adjust_screen
                0x0000000000102bcb                pm_userfont
 .text          0x0000000000102bea      0x30d libcom32.a(load_env32.o)
                0x0000000000102bff                init_module_subsystem
                0x0000000000102c2c                start_ldlinux
                0x0000000000102c81                load_env32
                0x0000000000102dad                com32_cmdline
                0x0000000000102dbe                create_args_and_load
                0x0000000000102ec6                pm_env32_run
 .text          0x0000000000102ef7      0xda6 libcom32.a(bios.o)
                0x00000000001032b6                bios_adv_init
                0x00000000001032e9                bios_adv_write
                0x00000000001037c8                bios_init
                0x0000000000103c86                syslinux_register_bios
 .text          0x0000000000103c9d      0x2ef libcom32.a(serirq.o)
                0x0000000000103db1                sirq_cleanup_nowipe
                0x0000000000103e28                sirq_cleanup
                0x0000000000103e4d                sirq_install
 .text          0x0000000000103f8c       0x14 libcom32.a(init.o)
                0x0000000000103f8c                init
 .text          0x0000000000103fa0       0x5f libcom32.a(idle.o)
                0x0000000000103fa0                reset_idle
                0x0000000000103fba                __idle
 .text          0x0000000000103fff       0x4a libcom32.a(call16.o)
                0x0000000000103fff                call16
 .text          0x0000000000104049        0x0 libcom32.a(lzo1x_f2.o)
 .text          0x0000000000104049      0x17d libcom32.a(sysappend.o)
                0x0000000000104049                do_sysappend
                0x00000000001040a7                sysappend_set_uuid
                0x0000000000104139                sysappend_set_fs_uuid
                0x000000000010418a                print_sysappend
 .text          0x00000000001041c6       0x62 libcom32.a(path.o)
                0x00000000001041c6                path_add
 .text          0x0000000000104228      0x334 libcom32.a(malloc.o)
                0x0000000000104276                bios_malloc
                0x0000000000104336                malloc
                0x0000000000104342                lmalloc
                0x000000000010436f                pmapi_lmalloc
                0x000000000010437e                bios_realloc
                0x0000000000104519                realloc
                0x0000000000104532                zalloc
 .text          0x000000000010455c      0x235 libcom32.a(free.o)
                0x000000000010463f                bios_free
                0x0000000000104647                free
                0x0000000000104685                __inject_free_block
                0x0000000000104722                comboot_cleanup_lowmem
 .text          0x0000000000104791       0x22 libcom32.a(kaboom.o)
                0x0000000000104791                _kaboom
 .text          0x00000000001047b3      0x69d libcom32.a(susp_rr.o)
                0x000000000010480d                susp_rr_get_entries
                0x0000000000104c37                susp_rr_get_nm
                0x0000000000104cca                susp_rr_check_signatures
 .text          0x0000000000104e50       0x44 libcom32.a(getcwd.o)
                0x0000000000104e50                core_getcwd
 .text          0x0000000000104e94      0x4a7 libcom32.a(dmi.o)
                0x0000000000104f98                dmi_init
 .text          0x000000000010533b       0x14 libcom32.a(sem_asm.o)
                0x000000000010533b                sem_down
                0x0000000000105346                sem_up
 .text          0x000000000010534f       0xe7 libcom32.a(semaphore.o)
                0x000000000010534f                sem_init
                0x000000000010535f                __sem_down_slow
                0x00000000001053f8                __sem_up_slow
 .text          0x0000000000105436       0x93 libcom32.a(schedule.o)
                0x0000000000105436                __schedule
                0x00000000001054bc                thread_yield
 .text          0x00000000001054c9        0x0 libcom32.a(root_thread.o)
 .text          0x00000000001054c9       0x3f libcom32.a(thread_asm.o)
                0x00000000001054c9                __switch_to
                0x00000000001054f9                __start_thread
 .text          0x0000000000105508       0x41 libcom32.a(exit_thread.o)
                0x0000000000105508                __exit_thread
 .text          0x0000000000105549       0x1a /home/wrsadmin/github/syslinux-6.03/bios/com32/lib/libcom32core.a(memcpy.o)
                0x0000000000105549                memcpy
 .text          0x0000000000105563       0x29 /home/wrsadmin/github/syslinux-6.03/bios/com32/lib/libcom32core.a(memset.o)
                0x0000000000105563                memset
 .text          0x000000000010558c       0x20 /home/wrsadmin/github/syslinux-6.03/bios/com32/lib/libcom32core.a(memcmp.o)
                0x000000000010558c                memcmp
 .text          0x00000000001055ac       0x20 /home/wrsadmin/github/syslinux-6.03/bios/com32/lib/libcom32core.a(printf.o)
                0x00000000001055ac                printf
 .text          0x00000000001055cc       0x2a /home/wrsadmin/github/syslinux-6.03/bios/com32/lib/libcom32core.a(strncmp.o)
                0x00000000001055cc                strncmp
 .text          0x00000000001055f6       0x4d /home/wrsadmin/github/syslinux-6.03/bios/com32/lib/libcom32core.a(vfprintf.o)
                0x00000000001055f6                vfprintf
 .text          0x0000000000105643        0xf /home/wrsadmin/github/syslinux-6.03/bios/com32/lib/libcom32core.a(strlen.o)
                0x0000000000105643                strlen
 .text          0x0000000000105652      0x9fc /home/wrsadmin/github/syslinux-6.03/bios/com32/lib/libcom32core.a(vsnprintf.o)
                0x0000000000105652                vsnprintf
 .text          0x000000000010604e       0x25 /home/wrsadmin/github/syslinux-6.03/bios/com32/lib/libcom32core.a(snprintf.o)
                0x000000000010604e                snprintf
 .text          0x0000000000106073        0xe /home/wrsadmin/github/syslinux-6.03/bios/com32/lib/libcom32core.a(stpcpy.o)
                0x0000000000106073                stpcpy
 .text          0x0000000000106081       0x20 /home/wrsadmin/github/syslinux-6.03/bios/com32/lib/libcom32core.a(strcmp.o)
                0x0000000000106081                strcmp
 .text          0x00000000001060a1       0x38 /home/wrsadmin/github/syslinux-6.03/bios/com32/lib/libcom32core.a(strdup.o)
                0x00000000001060a1                strdup
 .text          0x00000000001060d9       0x10 /home/wrsadmin/github/syslinux-6.03/bios/com32/lib/libcom32core.a(strcpy.o)
                0x00000000001060d9                strcpy
 .text          0x00000000001060e9       0x18 /home/wrsadmin/github/syslinux-6.03/bios/com32/lib/libcom32core.a(strncpy.o)
                0x00000000001060e9                strncpy
 *fill*         0x0000000000106101        0x3 90909090
 .text          0x0000000000106104       0x2a /home/wrsadmin/github/syslinux-6.03/bios/com32/lib/libcom32core.a(setjmp.o)
                0x0000000000106104                setjmp
                0x0000000000106104                _setjmp
                0x000000000010611c                longjmp
 .text          0x000000000010612e       0x71 /home/wrsadmin/github/syslinux-6.03/bios/com32/lib/libcom32core.a(fopen.o)
                0x000000000010612e                fopen
 .text          0x000000000010619f       0x65 /home/wrsadmin/github/syslinux-6.03/bios/com32/lib/libcom32core.a(fread.o)
                0x000000000010619f                _fread
 .text          0x0000000000106204       0x24 /home/wrsadmin/github/syslinux-6.03/bios/com32/lib/libcom32core.a(fread2.o)
                0x0000000000106204                fread
 .text          0x0000000000106228       0x36 /home/wrsadmin/github/syslinux-6.03/bios/com32/lib/libcom32core.a(puts.o)
                0x0000000000106228                puts
 .text          0x000000000010625e       0x16 /home/wrsadmin/github/syslinux-6.03/bios/com32/lib/libcom32core.a(strtoul.o)
                0x000000000010625e                strtoul
 .text          0x0000000000106274      0x1a2 /home/wrsadmin/github/syslinux-6.03/bios/com32/lib/libcom32core.a(strntoumax.o)
                0x0000000000106274                strntoumax
 .text          0x0000000000106416       0x47 /home/wrsadmin/github/syslinux-6.03/bios/com32/lib/libcom32core.a(strcasecmp.o)
                0x0000000000106416                strcasecmp
 .text          0x000000000010645d       0x24 /home/wrsadmin/github/syslinux-6.03/bios/com32/lib/libcom32core.a(sprintf.o)
                0x000000000010645d                sprintf
 .text          0x0000000000106481       0x2f /home/wrsadmin/github/syslinux-6.03/bios/com32/lib/libcom32core.a(strlcat.o)
                0x0000000000106481                strlcat
 .text          0x00000000001064b0       0x11 /home/wrsadmin/github/syslinux-6.03/bios/com32/lib/libcom32core.a(strchr.o)
                0x00000000001064b0                strchr
 .text          0x00000000001064c1       0x1f /home/wrsadmin/github/syslinux-6.03/bios/com32/lib/libcom32core.a(strlcpy.o)
                0x00000000001064c1                strlcpy
 .text          0x00000000001064e0       0x5a /home/wrsadmin/github/syslinux-6.03/bios/com32/lib/libcom32core.a(strncasecmp.o)
                0x00000000001064e0                strncasecmp
 .text          0x000000000010653a        0x0 /home/wrsadmin/github/syslinux-6.03/bios/com32/lib/libcom32core.a(ctypes.o)
 .text          0x000000000010653a       0x31 /home/wrsadmin/github/syslinux-6.03/bios/com32/lib/libcom32core.a(fputs.o)
                0x000000000010653a                fputs
 .text          0x000000000010656b       0x24 /home/wrsadmin/github/syslinux-6.03/bios/com32/lib/libcom32core.a(fwrite2.o)
                0x000000000010656b                fwrite
 .text          0x000000000010658f       0x65 /home/wrsadmin/github/syslinux-6.03/bios/com32/lib/libcom32core.a(fwrite.o)
                0x000000000010658f                _fwrite
 .text          0x00000000001065f4       0x31 /home/wrsadmin/github/syslinux-6.03/bios/com32/lib/libcom32core.a(fgetc.o)
                0x00000000001065f4                fgetc
 .text          0x0000000000106625       0x14 /home/wrsadmin/github/syslinux-6.03/bios/com32/lib/libcom32core.a(fclose.o)
                0x0000000000106625                fclose
 .text          0x0000000000106639       0x4a /home/wrsadmin/github/syslinux-6.03/bios/com32/lib/libcom32core.a(lmalloc.o)
                0x0000000000106639                lzalloc
                0x0000000000106670                lfree
 .text          0x0000000000106683       0x1a /home/wrsadmin/github/syslinux-6.03/bios/com32/lib/libcom32core.a(err_read.o)
 .text          0x000000000010669d       0x1a /home/wrsadmin/github/syslinux-6.03/bios/com32/lib/libcom32core.a(err_write.o)
 .text          0x00000000001066b7        0x3 /home/wrsadmin/github/syslinux-6.03/bios/com32/lib/libcom32core.a(null_read.o)
 .text          0x00000000001066ba       0x6c /home/wrsadmin/github/syslinux-6.03/bios/com32/lib/libcom32core.a(stdcon_write.o)
 .text          0x0000000000106726       0xa1 /home/wrsadmin/github/syslinux-6.03/bios/com32/lib/libcom32core.a(memscan.o)
                0x0000000000106726                syslinux_memscan_add
                0x0000000000106752                syslinux_memscan_new
                0x0000000000106780                syslinux_scan_memory
 .text          0x00000000001067c7       0x16 /home/wrsadmin/github/syslinux-6.03/bios/com32/lib/libcom32core.a(strrchr.o)
                0x00000000001067c7                strrchr
 .text          0x00000000001067dd       0x26 /home/wrsadmin/github/syslinux-6.03/bios/com32/lib/libcom32core.a(strcat.o)
                0x00000000001067dd                strcat
 *fill*         0x0000000000106803        0x1 90909090
 .text          0x0000000000106804       0x11 /home/wrsadmin/github/syslinux-6.03/bios/com32/lib/libcom32core.a(__ashldi3.o)
                0x0000000000106804                __ashldi3
 .text          0x0000000000106815       0x29 /home/wrsadmin/github/syslinux-6.03/bios/com32/lib/libcom32core.a(__udivdi3.o)
                0x0000000000106815                __udivdi3
 *fill*         0x000000000010683e        0x2 90909090
 .text          0x0000000000106840        0x8 /home/wrsadmin/github/syslinux-6.03/bios/com32/lib/libcom32core.a(__negdi2.o)
                0x0000000000106840                __negdi2
 .text          0x0000000000106848       0x11 /home/wrsadmin/github/syslinux-6.03/bios/com32/lib/libcom32core.a(__ashrdi3.o)
                0x0000000000106848                __ashrdi3
 *fill*         0x0000000000106859        0x3 90909090
 .text          0x000000000010685c       0x11 /home/wrsadmin/github/syslinux-6.03/bios/com32/lib/libcom32core.a(__lshrdi3.o)
                0x000000000010685c                __lshrdi3
 *fill*         0x000000000010686d        0x3 90909090
 .text          0x0000000000106870       0x15 /home/wrsadmin/github/syslinux-6.03/bios/com32/lib/libcom32core.a(__muldi3.o)
                0x0000000000106870                __muldi3
 .text          0x0000000000106885       0xa2 /home/wrsadmin/github/syslinux-6.03/bios/com32/lib/libcom32core.a(__udivmoddi4.o)
                0x0000000000106885                __udivmoddi4
 .text          0x0000000000106927       0x34 /home/wrsadmin/github/syslinux-6.03/bios/com32/lib/libcom32core.a(__umoddi3.o)
                0x0000000000106927                __umoddi3
 .text          0x000000000010695b       0x7c /home/wrsadmin/github/syslinux-6.03/bios/com32/lib/libcom32core.a(__divdi3.o)
                0x000000000010695b                __divdi3
 .text          0x00000000001069d7       0x92 /home/wrsadmin/github/syslinux-6.03/bios/com32/lib/libcom32core.a(__moddi3.o)
                0x00000000001069d7                __moddi3
 .text          0x0000000000106a69       0x1c /home/wrsadmin/github/syslinux-6.03/bios/com32/lib/libcom32core.a(debug.o)
                0x0000000000106a69                syslinux_debug
 .text          0x0000000000106a85       0x20 /home/wrsadmin/github/syslinux-6.03/bios/com32/lib/libcom32core.a(intcall.o)
                0x0000000000106a85                __intcall
 .text          0x0000000000106aa5       0x53 /home/wrsadmin/github/syslinux-6.03/bios/com32/lib/libcom32core.a(farcall.o)
                0x0000000000106aa5                __farcall
 .text          0x0000000000106af8       0x28 /home/wrsadmin/github/syslinux-6.03/bios/com32/lib/libcom32core.a(cfarcall.o)
                0x0000000000106af8                __cfarcall
 .text          0x0000000000106b20        0x0 /home/wrsadmin/github/syslinux-6.03/bios/com32/lib/libcom32core.a(zeroregs.o)
 .text          0x0000000000106b20       0xb7 /home/wrsadmin/github/syslinux-6.03/bios/com32/lib/libcom32core.a(argv.o)
                0x0000000000106b20                __parse_argv
 .text          0x0000000000106bd7       0x48 /home/wrsadmin/github/syslinux-6.03/bios/com32/lib/libcom32core.a(sleep.o)
                0x0000000000106bd7                msleep
                0x0000000000106c06                sleep
 .text          0x0000000000106c1f        0x0 /home/wrsadmin/github/syslinux-6.03/bios/com32/lib/libcom32core.a(fileinfo.o)
 .text          0x0000000000106c1f       0xec /home/wrsadmin/github/syslinux-6.03/bios/com32/lib/libcom32core.a(opendev.o)
                0x0000000000106c1f                opendev
 .text          0x0000000000106d0b       0x3f /home/wrsadmin/github/syslinux-6.03/bios/com32/lib/libcom32core.a(read.o)
                0x0000000000106d0b                read
 .text          0x0000000000106d4a       0x40 /home/wrsadmin/github/syslinux-6.03/bios/com32/lib/libcom32core.a(write.o)
                0x0000000000106d4a                write
 .text          0x0000000000106d8a       0x1c /home/wrsadmin/github/syslinux-6.03/bios/com32/lib/libcom32core.a(ftell.o)
                0x0000000000106d8a                ftell
 .text          0x0000000000106da6       0x88 /home/wrsadmin/github/syslinux-6.03/bios/com32/lib/libcom32core.a(close.o)
                0x0000000000106da6                close
 .text          0x0000000000106e2e       0x78 /home/wrsadmin/github/syslinux-6.03/bios/com32/lib/libcom32core.a(open.o)
                0x0000000000106e2e                open
 .text          0x0000000000106ea6      0x11e /home/wrsadmin/github/syslinux-6.03/bios/com32/lib/libcom32core.a(fileread.o)
                0x0000000000106ea6                __file_get_block
                0x0000000000106ef0                __file_read
 .text          0x0000000000106fc4       0x1e /home/wrsadmin/github/syslinux-6.03/bios/com32/lib/libcom32core.a(fileclose.o)
                0x0000000000106fc4                __file_close
 .text          0x0000000000106fe2       0x4e /home/wrsadmin/github/syslinux-6.03/bios/com32/lib/libcom32core.a(openmem.o)
                0x0000000000106fe2                openmem
 .text          0x0000000000107030       0x3a /home/wrsadmin/github/syslinux-6.03/bios/com32/lib/libcom32core.a(isatty.o)
                0x0000000000107030                isatty
 .text          0x000000000010706a       0x67 /home/wrsadmin/github/syslinux-6.03/bios/com32/lib/libcom32core.a(fstat.o)
                0x000000000010706a                fstat
 .text          0x00000000001070d1        0x0 /home/wrsadmin/github/syslinux-6.03/bios/com32/lib/libcom32core.a(dprintf.o)
 .text          0x00000000001070d1        0x0 /home/wrsadmin/github/syslinux-6.03/bios/com32/lib/libcom32core.a(vdprintf.o)
 .text          0x00000000001070d1       0x26 /home/wrsadmin/github/syslinux-6.03/bios/com32/lib/libcom32core.a(idle.o)
                0x00000000001070d1                syslinux_reset_idle
                0x00000000001070e4                syslinux_idle
 .text          0x00000000001070f7       0x68 /home/wrsadmin/github/syslinux-6.03/bios/com32/lib/libcom32core.a(exit.o)
                0x00000000001070f7                _exit
                0x0000000000107119                exit
                0x000000000010714e                _Exit
 .text          0x000000000010715f      0x868 /home/wrsadmin/github/syslinux-6.03/bios/com32/lib/libcom32core.a(common.o)
                0x000000000010715f                findpath
                0x0000000000107204                image_load
                0x0000000000107236                image_unload
                0x000000000010726d                image_read
                0x00000000001072a5                image_skip
                0x00000000001072fa                image_seek
                0x000000000010731e                modules_init
                0x0000000000107321                modules_term
                0x0000000000107322                module_alloc
                0x0000000000107399                module_dep_alloc
                0x00000000001073bd                module_find
                0x000000000010740a                check_header_common
                0x000000000010744e                enforce_dependency
                0x00000000001074bc                clear_dependency
                0x0000000000107524                module_unloadable
                0x0000000000107537                _module_unload
                0x00000000001075b9                module_unload
                0x00000000001075ed                unload_modules_since
                0x000000000010767f                module_find_symbol
                0x000000000010782d                check_symbols
                0x0000000000107937                global_find_symbol
 .text          0x00000000001079c7      0x415 /home/wrsadmin/github/syslinux-6.03/bios/com32/lib/libcom32core.a(elf_module.o)
                0x00000000001079c7                load_segments
                0x0000000000107c03                perform_relocation
                0x0000000000107cef                resolve_symbols
 .text          0x0000000000107ddc       0xde /home/wrsadmin/github/syslinux-6.03/bios/com32/lib/libcom32core.a(elfutils.o)
                0x0000000000107ddc                elf_hash
                0x0000000000107e27                elf_gnu_hash
                0x0000000000107e41                elf_malloc
                0x0000000000107ea4                elf_free
 .text          0x0000000000107eba      0x16b /home/wrsadmin/github/syslinux-6.03/bios/com32/lib/libcom32core.a(exec.o)
                0x0000000000107eba                get_module_type
                0x0000000000107ec8                spawn_load
                0x0000000000108012                exec_term
 .text          0x0000000000108025      0x470 /home/wrsadmin/github/syslinux-6.03/bios/com32/lib/libcom32core.a(elf_module.o)
                0x0000000000108025                undefined_symbol
                0x0000000000108041                module_load
 .text          0x0000000000108495      0x197 libisolinux.a(rawcon.o)
                0x0000000000108495                writechr
                0x0000000000108623                pm_writechr
 .text          0x000000000010862c      0x131 libisolinux.a(localboot.o)
                0x000000000010862c                local_boot
                0x0000000000108754                pm_local_boot
 .text          0x000000000010875d       0x5e libisolinux.a(isolinux-c.o)
                0x000000000010875d                get_derivative_info
 *(.text.*)
 .text.__x86.get_pc_thunk.ax
                0x00000000001087bb        0x4 libcom32.a(graphics.o)
                0x00000000001087bb                __x86.get_pc_thunk.ax
 .text.__x86.get_pc_thunk.bx
                0x00000000001087bf        0x4 libcom32.a(graphics.o)
                0x00000000001087bf                __x86.get_pc_thunk.bx
 .text.__x86.get_pc_thunk.dx
                0x00000000001087c3        0x4 libcom32.a(conio.o)
                0x00000000001087c3                __x86.get_pc_thunk.dx
 .text.__x86.get_pc_thunk.bp
                0x00000000001087c7        0x4 libcom32.a(diskio_bios.o)
                0x00000000001087c7                __x86.get_pc_thunk.bp
 .text.__x86.get_pc_thunk.cx
                0x00000000001087cb        0x4 libcom32.a(fs.o)
                0x00000000001087cb                __x86.get_pc_thunk.cx
 .text.__x86.get_pc_thunk.si
                0x00000000001087cf        0x4 libcom32.a(fs.o)
                0x00000000001087cf                __x86.get_pc_thunk.si
 .text.__x86.get_pc_thunk.di
                0x00000000001087d3        0x4 libcom32.a(fs.o)
                0x00000000001087d3                __x86.get_pc_thunk.di
                0x00000000001087d7                __text_end = .

.plt            0x00000000001087e0        0x0 load address 0x00000000000116d0
 .plt           0x00000000001087e0        0x0 isolinux.o

.plt.got        0x00000000001087d8        0x0 load address 0x00000000000116c8
 .plt.got       0x00000000001087d8        0x0 isolinux.o
                0x00000000001087e0                . = ALIGN (0x10)
                0x00000000001087e0                __rodata_vma = .
                0x00000000000116d0                __rodata_lma = ((__rodata_vma + __text_lma) - __text_vma)

.rodata         0x00000000001087e0      0x6c5 load address 0x00000000000116d0
                0x00000000001087e0                __rodata_start = .
 *(.rodata)
 .rodata        0x00000000001087e0        0xc isolinux.o
                0x00000000001087e8                __syslinux_shuffler_size
 .rodata        0x00000000001087ec        0x6 libcom32.a(sysappend.o)
 *fill*         0x00000000001087f2        0x2 
 .rodata        0x00000000001087f4        0xe libcom32.a(dmi.o)
 *fill*         0x0000000000108802        0x2 
 .rodata        0x0000000000108804       0x7d /home/wrsadmin/github/syslinux-6.03/bios/com32/lib/libcom32core.a(vsnprintf.o)
 *fill*         0x0000000000108881       0x1f 
 .rodata        0x00000000001088a0      0x101 /home/wrsadmin/github/syslinux-6.03/bios/com32/lib/libcom32core.a(ctypes.o)
                0x00000000001088a0                __ctypes
 *fill*         0x00000000001089a1        0x3 
 .rodata        0x00000000001089a4       0x24 /home/wrsadmin/github/syslinux-6.03/bios/com32/lib/libcom32core.a(elf_module.o)
 *(.rodata.*)
 .rodata.str1.1
                0x00000000001089c8        0x2 libcom32.a(conio.o)
 .rodata.str1.1
                0x00000000001089ca       0x81 libcom32.a(iso9660.o)
                                         0x95 (size before relaxing)
 .rodata.str1.1
                0x0000000000108a4b        0x7 libcom32.a(searchconfig.o)
                                          0xa (size before relaxing)
 .rodata.str1.1
                0x0000000000108a52       0x5b libcom32.a(diskio_bios.o)
 .rodata.str1.1
                0x0000000000108aad       0x41 libcom32.a(fs.o)
                                         0x46 (size before relaxing)
 .rodata.str1.1
                0x0000000000108aee        0x2 libcom32.a(chdir.o)
 .rodata.str1.1
                0x0000000000108aee       0x58 libcom32.a(hello.o)
                                         0x5a (size before relaxing)
 .rodata.str1.1
                0x0000000000108b46        0x2 libcom32.a(font.o)
 .rodata.str1.1
                0x0000000000108b46       0x5c libcom32.a(load_env32.o)
                                         0x90 (size before relaxing)
 .rodata.str1.1
                0x0000000000108ba2       0xd2 libcom32.a(bios.o)
 .rodata.str1.1
                0x0000000000108c74        0x5 libcom32.a(sysappend.o)
                                          0xc (size before relaxing)
 .rodata.str1.1
                0x0000000000108c79       0x30 libcom32.a(free.o)
 .rodata.str1.1
                0x0000000000108ca9       0x26 libcom32.a(susp_rr.o)
                                         0x2b (size before relaxing)
 .rodata.str1.1
                0x0000000000108ccf       0x9b libcom32.a(dmi.o)
 .rodata.str1.1
                0x0000000000108d6a        0x5 libcom32.a(root_thread.o)
 .rodata.str1.1
                0x0000000000108d6f        0x7 /home/wrsadmin/github/syslinux-6.03/bios/com32/lib/libcom32core.a(vsnprintf.o)
 .rodata.str1.1
                0x0000000000108d76        0x2 /home/wrsadmin/github/syslinux-6.03/bios/com32/lib/libcom32core.a(puts.o)
 .rodata.str1.1
                0x0000000000108d76       0x1a /home/wrsadmin/github/syslinux-6.03/bios/com32/lib/libcom32core.a(debug.o)
 .rodata.str1.1
                0x0000000000108d90       0x1a /home/wrsadmin/github/syslinux-6.03/bios/com32/lib/libcom32core.a(common.o)
                                         0x24 (size before relaxing)
 .rodata.str1.1
                0x0000000000108daa       0x11 /home/wrsadmin/github/syslinux-6.03/bios/com32/lib/libcom32core.a(elf_module.o)
 .rodata.str1.1
                0x0000000000108dbb       0xcf /home/wrsadmin/github/syslinux-6.03/bios/com32/lib/libcom32core.a(elf_module.o)
 .rodata.str1.1
                0x0000000000108e8a       0x1b libisolinux.a(localboot.o)
                0x0000000000108ea5                __rodata_end = .

.gnu.version_d  0x0000000000108ea8        0x0 load address 0x0000000000011d98
 .gnu.version_d
                0x0000000000108ea8        0x0 isolinux.o

.gnu.version    0x0000000000108ea6        0x0 load address 0x0000000000011d96
 .gnu.version   0x0000000000108ea6        0x0 isolinux.o

.gnu.version_r  0x0000000000108ea8        0x0 load address 0x0000000000011d98
 .gnu.version_r
                0x0000000000108ea8        0x0 isolinux.o
                0x0000000000108ea8                . = ALIGN (0x4)
                0x0000000000108ea8                __ctors_vma = .
                0x0000000000011d98                __ctors_lma = ((__ctors_vma + __text_lma) - __text_vma)

.ctors          0x0000000000108ea8        0x0 load address 0x0000000000011d98
                0x0000000000108ea8                __ctors_start = .
 *(SORT(.ctors.*))
 *(.ctors)
                0x0000000000108ea8                __ctors_end = .
                0x0000000000108ea8                __dtors_vma = .
                0x0000000000011d98                __dtors_lma = ((__dtors_vma + __text_lma) - __text_vma)

.dtors          0x0000000000108ea8        0x0 load address 0x0000000000011d98
                0x0000000000108ea8                __dtors_start = .
 *(SORT(.dtors.*))
 *(.dtors)
                0x0000000000108ea8                __dtors_end = .
                0x0000000000108ea8                . = ALIGN (0x4)
                0x0000000000108ea8                __dynsym_vma = .
                0x0000000000011d98                __dynsym_lma = ((__dynsym_vma + __text_lma) - __text_vma)

.dynsym         0x0000000000108ea8     0x18a0 load address 0x0000000000011d98
                0x0000000000108ea8                __dynsym_start = .
 *(.dynsym)
 .dynsym        0x0000000000108ea8     0x18a0 isolinux.o
                0x000000000010a748                __dynsym_end = .
                0x00000000000018a0                __dynsym_len = (__dynsym_end - __dynsym_start)
                0x000000000010a748                . = ALIGN (0x4)
                0x000000000010a748                __dynstr_vma = .
                0x0000000000013638                __dynstr_lma = ((__dynstr_vma + __text_lma) - __text_vma)

.dynstr         0x000000000010a748     0x124a load address 0x0000000000013638
                0x000000000010a748                __dynstr_start = .
 *(.dynstr)
 .dynstr        0x000000000010a748     0x124a isolinux.o
                0x000000000010b992                __dynstr_end = .
                0x000000000000124a                __dynstr_len = (__dynstr_end - __dynstr_start)
                0x000000000010b994                . = ALIGN (0x4)
                0x000000000010b994                __gnu_hash_vma = .
                0x0000000000014884                __gnu_hash_lma = ((__gnu_hash_vma + __text_lma) - __text_vma)

.gnu.hash       0x000000000010b994      0xb10 load address 0x0000000000014884
                0x000000000010b994                __gnu_hash_start = .
 *(.gnu.hash)
 .gnu.hash      0x000000000010b994      0xb10 isolinux.o
                0x000000000010c4a4                __gnu_hash_end = .

.rel.dyn        0x000000000010c4a4      0x618 load address 0x0000000000015394
 .rel.plt       0x000000000010c4a4        0x0 isolinux.o
 .rel.got       0x000000000010c4a4       0x30 isolinux.o
 .rel.bss       0x000000000010c4d4        0x0 isolinux.o
 .rel.data.rel.ro
                0x000000000010c4d4       0xd8 isolinux.o
 .rel.init      0x000000000010c5ac       0x18 isolinux.o
 .rel.text16    0x000000000010c5c4       0x80 isolinux.o
 .rel.textnr    0x000000000010c644       0x88 isolinux.o
 .rel.bcopyxx.text
                0x000000000010c6cc       0x28 isolinux.o
 .rel.bcopyxx.data
                0x000000000010c6f4        0x8 isolinux.o
 .rel.data16    0x000000000010c6fc       0x38 isolinux.o
 .rel.rodata    0x000000000010c734       0x10 isolinux.o
 .rel.text      0x000000000010c744       0x90 isolinux.o
 .rel.data      0x000000000010c7d4        0x8 isolinux.o
 .rel.prefix    0x000000000010c7dc       0x20 isolinux.o
 .rel.data.rel.local
                0x000000000010c7fc      0x140 isolinux.o
 .rel.data.rel  0x000000000010c93c       0xf0 isolinux.o
 .rel.data.rel.ro.local
                0x000000000010ca2c       0x90 isolinux.o
                0x000000000010cabc                . = ALIGN (0x4)
                0x000000000010cabc                __dynlink_vma = .
                0x00000000000159ac                __dynlink_lma = ((__dynlink_vma + __text_lma) - __text_vma)

.dynlink        0x000000000010cabc        0x0 load address 0x00000000000159ac
                0x000000000010cabc                __dynlink_start = .
 *(.dynlink)
                0x000000000010cabc                __dynlink_end = .
                0x000000000010cabc                . = ALIGN (0x4)
                0x000000000010cabc                __got_vma = .
                0x00000000000159ac                __got_lma = ((__got_vma + __text_lma) - __text_vma)

.got            0x000000000010cabc       0x24 load address 0x00000000000159ac
                0x000000000010cabc                __got_start = .
 *(.got.plt)
 .got.plt       0x000000000010cabc        0xc isolinux.o
                0x000000000010cabc                _GLOBAL_OFFSET_TABLE_
 *(.got)
 .got           0x000000000010cac8       0x18 isolinux.o
                0x000000000010cae0                __got_end = .
                0x000000000010cae0                . = ALIGN (0x4)
                0x000000000010cae0                __dynamic_vma = .
                0x00000000000159d0                __dynamic_lma = ((__dynamic_vma + __text_lma) - __text_vma)

.dynamic        0x000000000010cae0       0x98 load address 0x00000000000159d0
                0x000000000010cae0                __dynamic_start = .
 *(.dynamic)
 .dynamic       0x000000000010cae0       0x98 isolinux.o
                0x000000000010cae0                _DYNAMIC
                0x000000000010cb78                __dynamic_end = .
                0x000000000010cb80                . = ALIGN (0x10)
                0x000000000010cb80                __data_vma = .
                0x0000000000015a70                __data_lma = ((__data_vma + __text_lma) - __text_vma)

.data           0x000000000010cb80      0x6a8 load address 0x0000000000015a70
                0x000000000010cb80                __data_start = .
 *(.data)
 .data          0x000000000010cb80        0x8 isolinux.o
                0x000000000010cb80                __syslinux_adv_ptr
                0x000000000010cb84                __syslinux_adv_size
 .data          0x000000000010cb88       0x14 libcom32.a(graphics.o)
                0x000000000010cb9a                VGAFontSize
 .data          0x000000000010cb9c        0x0 libcom32.a(writehex.o)
 .data          0x000000000010cb9c        0x6 libcom32.a(conio.o)
                0x000000000010cb9c                ScrollAttribute
                0x000000000010cb9d                DisplayMask
                0x000000000010cb9e                DisplayCon
                0x000000000010cba0                BaudDivisor
 .data          0x000000000010cba2        0x0 libcom32.a(writestr.o)
 .data          0x000000000010cba2        0x0 libcom32.a(init.o)
 .data          0x000000000010cba2        0x0 libcom32.a(rllpack.o)
 .data          0x000000000010cba2        0x0 libcom32.a(iso9660.o)
 .data          0x000000000010cba2        0x0 libcom32.a(readdir.o)
 .data          0x000000000010cba2        0x0 libcom32.a(mangle.o)
 .data          0x000000000010cba2        0x0 libcom32.a(searchconfig.o)
 .data          0x000000000010cba2        0x0 libcom32.a(close.o)
 .data          0x000000000010cba2        0x0 libcom32.a(nonextextent.o)
 .data          0x000000000010cba2        0x0 libcom32.a(getfssec.o)
 .data          0x000000000010cba2        0x0 libcom32.a(cache.o)
 .data          0x000000000010cba2        0x0 libcom32.a(diskio.o)
 .data          0x000000000010cba2        0x0 libcom32.a(diskio_bios.o)
 .data          0x000000000010cba2        0x2 libcom32.a(fs.o)
 .data          0x000000000010cba4        0x0 libcom32.a(chdir.o)
 .data          0x000000000010cba4        0xe libcom32.a(hello.o)
 .data          0x000000000010cbb2        0x0 libcom32.a(errno.o)
 .data          0x000000000010cbb2        0x0 libcom32.a(cleanup.o)
 .data          0x000000000010cbb2        0x0 libcom32.a(pmapi.o)
 .data          0x000000000010cbb2        0x4 libcom32.a(font.o)
                0x000000000010cbb2                GXPixRows
                0x000000000010cbb4                GXPixCols
 .data          0x000000000010cbb6        0x0 libcom32.a(load_env32.o)
 .data          0x000000000010cbb6        0x0 libcom32.a(bios.o)
 .data          0x000000000010cbb6        0x0 libcom32.a(serirq.o)
 .data          0x000000000010cbb6        0x0 libcom32.a(init.o)
 .data          0x000000000010cbb6        0x0 libcom32.a(idle.o)
 .data          0x000000000010cbb6        0x0 libcom32.a(call16.o)
 .data          0x000000000010cbb6        0x0 libcom32.a(lzo1x_f2.o)
 *fill*         0x000000000010cbb6        0xa 
 .data          0x000000000010cbc0       0x6d libcom32.a(sysappend.o)
 .data          0x000000000010cc2d        0x0 libcom32.a(path.o)
 .data          0x000000000010cc2d        0x0 libcom32.a(malloc.o)
 .data          0x000000000010cc2d        0x0 libcom32.a(free.o)
 .data          0x000000000010cc2d        0x0 libcom32.a(kaboom.o)
 .data          0x000000000010cc2d        0x0 libcom32.a(susp_rr.o)
 .data          0x000000000010cc2d        0x0 libcom32.a(getcwd.o)
 *fill*         0x000000000010cc2d        0x3 
 .data          0x000000000010cc30       0x18 libcom32.a(dmi.o)
 .data          0x000000000010cc48        0x0 libcom32.a(sem_asm.o)
 .data          0x000000000010cc48        0x0 libcom32.a(semaphore.o)
 .data          0x000000000010cc48        0x0 libcom32.a(schedule.o)
 .data          0x000000000010cc48        0x0 libcom32.a(root_thread.o)
 .data          0x000000000010cc48        0x0 libcom32.a(thread_asm.o)
 .data          0x000000000010cc48        0x0 libcom32.a(exit_thread.o)
 .data          0x000000000010cc48        0x0 /home/wrsadmin/github/syslinux-6.03/bios/com32/lib/libcom32core.a(memcpy.o)
 .data          0x000000000010cc48        0x0 /home/wrsadmin/github/syslinux-6.03/bios/com32/lib/libcom32core.a(memset.o)
 .data          0x000000000010cc48        0x0 /home/wrsadmin/github/syslinux-6.03/bios/com32/lib/libcom32core.a(memcmp.o)
 .data          0x000000000010cc48        0x0 /home/wrsadmin/github/syslinux-6.03/bios/com32/lib/libcom32core.a(printf.o)
 .data          0x000000000010cc48        0x0 /home/wrsadmin/github/syslinux-6.03/bios/com32/lib/libcom32core.a(strncmp.o)
 .data          0x000000000010cc48        0x0 /home/wrsadmin/github/syslinux-6.03/bios/com32/lib/libcom32core.a(vfprintf.o)
 .data          0x000000000010cc48        0x0 /home/wrsadmin/github/syslinux-6.03/bios/com32/lib/libcom32core.a(strlen.o)
 .data          0x000000000010cc48        0x0 /home/wrsadmin/github/syslinux-6.03/bios/com32/lib/libcom32core.a(vsnprintf.o)
 .data          0x000000000010cc48        0x0 /home/wrsadmin/github/syslinux-6.03/bios/com32/lib/libcom32core.a(snprintf.o)
 .data          0x000000000010cc48        0x0 /home/wrsadmin/github/syslinux-6.03/bios/com32/lib/libcom32core.a(stpcpy.o)
 .data          0x000000000010cc48        0x0 /home/wrsadmin/github/syslinux-6.03/bios/com32/lib/libcom32core.a(strcmp.o)
 .data          0x000000000010cc48        0x0 /home/wrsadmin/github/syslinux-6.03/bios/com32/lib/libcom32core.a(strdup.o)
 .data          0x000000000010cc48        0x0 /home/wrsadmin/github/syslinux-6.03/bios/com32/lib/libcom32core.a(strcpy.o)
 .data          0x000000000010cc48        0x0 /home/wrsadmin/github/syslinux-6.03/bios/com32/lib/libcom32core.a(strncpy.o)
 .data          0x000000000010cc48        0x0 /home/wrsadmin/github/syslinux-6.03/bios/com32/lib/libcom32core.a(setjmp.o)
 .data          0x000000000010cc48        0x0 /home/wrsadmin/github/syslinux-6.03/bios/com32/lib/libcom32core.a(fopen.o)
 .data          0x000000000010cc48        0x0 /home/wrsadmin/github/syslinux-6.03/bios/com32/lib/libcom32core.a(fread.o)
 .data          0x000000000010cc48        0x0 /home/wrsadmin/github/syslinux-6.03/bios/com32/lib/libcom32core.a(fread2.o)
 .data          0x000000000010cc48        0x0 /home/wrsadmin/github/syslinux-6.03/bios/com32/lib/libcom32core.a(puts.o)
 .data          0x000000000010cc48        0x0 /home/wrsadmin/github/syslinux-6.03/bios/com32/lib/libcom32core.a(strtoul.o)
 .data          0x000000000010cc48        0x0 /home/wrsadmin/github/syslinux-6.03/bios/com32/lib/libcom32core.a(strntoumax.o)
 .data          0x000000000010cc48        0x0 /home/wrsadmin/github/syslinux-6.03/bios/com32/lib/libcom32core.a(strcasecmp.o)
 .data          0x000000000010cc48        0x0 /home/wrsadmin/github/syslinux-6.03/bios/com32/lib/libcom32core.a(sprintf.o)
 .data          0x000000000010cc48        0x0 /home/wrsadmin/github/syslinux-6.03/bios/com32/lib/libcom32core.a(strlcat.o)
 .data          0x000000000010cc48        0x0 /home/wrsadmin/github/syslinux-6.03/bios/com32/lib/libcom32core.a(strchr.o)
 .data          0x000000000010cc48        0x0 /home/wrsadmin/github/syslinux-6.03/bios/com32/lib/libcom32core.a(strlcpy.o)
 .data          0x000000000010cc48        0x0 /home/wrsadmin/github/syslinux-6.03/bios/com32/lib/libcom32core.a(strncasecmp.o)
 .data          0x000000000010cc48        0x0 /home/wrsadmin/github/syslinux-6.03/bios/com32/lib/libcom32core.a(ctypes.o)
 .data          0x000000000010cc48        0x0 /home/wrsadmin/github/syslinux-6.03/bios/com32/lib/libcom32core.a(fputs.o)
 .data          0x000000000010cc48        0x0 /home/wrsadmin/github/syslinux-6.03/bios/com32/lib/libcom32core.a(fwrite2.o)
 .data          0x000000000010cc48        0x0 /home/wrsadmin/github/syslinux-6.03/bios/com32/lib/libcom32core.a(fwrite.o)
 .data          0x000000000010cc48        0x0 /home/wrsadmin/github/syslinux-6.03/bios/com32/lib/libcom32core.a(fgetc.o)
 .data          0x000000000010cc48        0x0 /home/wrsadmin/github/syslinux-6.03/bios/com32/lib/libcom32core.a(fclose.o)
 .data          0x000000000010cc48        0x0 /home/wrsadmin/github/syslinux-6.03/bios/com32/lib/libcom32core.a(lmalloc.o)
 .data          0x000000000010cc48        0x0 /home/wrsadmin/github/syslinux-6.03/bios/com32/lib/libcom32core.a(err_read.o)
 .data          0x000000000010cc48        0x0 /home/wrsadmin/github/syslinux-6.03/bios/com32/lib/libcom32core.a(err_write.o)
 .data          0x000000000010cc48        0x0 /home/wrsadmin/github/syslinux-6.03/bios/com32/lib/libcom32core.a(null_read.o)
 .data          0x000000000010cc48        0x0 /home/wrsadmin/github/syslinux-6.03/bios/com32/lib/libcom32core.a(stdcon_write.o)
 .data          0x000000000010cc48        0x0 /home/wrsadmin/github/syslinux-6.03/bios/com32/lib/libcom32core.a(memscan.o)
 .data          0x000000000010cc48        0x0 /home/wrsadmin/github/syslinux-6.03/bios/com32/lib/libcom32core.a(strrchr.o)
 .data          0x000000000010cc48        0x0 /home/wrsadmin/github/syslinux-6.03/bios/com32/lib/libcom32core.a(strcat.o)
 .data          0x000000000010cc48        0x0 /home/wrsadmin/github/syslinux-6.03/bios/com32/lib/libcom32core.a(__ashldi3.o)
 .data          0x000000000010cc48        0x0 /home/wrsadmin/github/syslinux-6.03/bios/com32/lib/libcom32core.a(__udivdi3.o)
 .data          0x000000000010cc48        0x0 /home/wrsadmin/github/syslinux-6.03/bios/com32/lib/libcom32core.a(__negdi2.o)
 .data          0x000000000010cc48        0x0 /home/wrsadmin/github/syslinux-6.03/bios/com32/lib/libcom32core.a(__ashrdi3.o)
 .data          0x000000000010cc48        0x0 /home/wrsadmin/github/syslinux-6.03/bios/com32/lib/libcom32core.a(__lshrdi3.o)
 .data          0x000000000010cc48        0x0 /home/wrsadmin/github/syslinux-6.03/bios/com32/lib/libcom32core.a(__muldi3.o)
 .data          0x000000000010cc48        0x0 /home/wrsadmin/github/syslinux-6.03/bios/com32/lib/libcom32core.a(__udivmoddi4.o)
 .data          0x000000000010cc48        0x0 /home/wrsadmin/github/syslinux-6.03/bios/com32/lib/libcom32core.a(__umoddi3.o)
 .data          0x000000000010cc48        0x0 /home/wrsadmin/github/syslinux-6.03/bios/com32/lib/libcom32core.a(__divdi3.o)
 .data          0x000000000010cc48        0x0 /home/wrsadmin/github/syslinux-6.03/bios/com32/lib/libcom32core.a(__moddi3.o)
 .data          0x000000000010cc48        0x0 /home/wrsadmin/github/syslinux-6.03/bios/com32/lib/libcom32core.a(debug.o)
 .data          0x000000000010cc48        0x0 /home/wrsadmin/github/syslinux-6.03/bios/com32/lib/libcom32core.a(intcall.o)
 .data          0x000000000010cc48        0x0 /home/wrsadmin/github/syslinux-6.03/bios/com32/lib/libcom32core.a(farcall.o)
 .data          0x000000000010cc48        0x0 /home/wrsadmin/github/syslinux-6.03/bios/com32/lib/libcom32core.a(cfarcall.o)
 .data          0x000000000010cc48        0x0 /home/wrsadmin/github/syslinux-6.03/bios/com32/lib/libcom32core.a(zeroregs.o)
 .data          0x000000000010cc48        0x0 /home/wrsadmin/github/syslinux-6.03/bios/com32/lib/libcom32core.a(argv.o)
 .data          0x000000000010cc48        0x0 /home/wrsadmin/github/syslinux-6.03/bios/com32/lib/libcom32core.a(sleep.o)
 .data          0x000000000010cc48        0x0 /home/wrsadmin/github/syslinux-6.03/bios/com32/lib/libcom32core.a(fileinfo.o)
 .data          0x000000000010cc48        0x0 /home/wrsadmin/github/syslinux-6.03/bios/com32/lib/libcom32core.a(opendev.o)
 .data          0x000000000010cc48        0x0 /home/wrsadmin/github/syslinux-6.03/bios/com32/lib/libcom32core.a(read.o)
 .data          0x000000000010cc48        0x0 /home/wrsadmin/github/syslinux-6.03/bios/com32/lib/libcom32core.a(write.o)
 .data          0x000000000010cc48        0x0 /home/wrsadmin/github/syslinux-6.03/bios/com32/lib/libcom32core.a(ftell.o)
 .data          0x000000000010cc48        0x0 /home/wrsadmin/github/syslinux-6.03/bios/com32/lib/libcom32core.a(close.o)
 .data          0x000000000010cc48        0x0 /home/wrsadmin/github/syslinux-6.03/bios/com32/lib/libcom32core.a(open.o)
 .data          0x000000000010cc48        0x0 /home/wrsadmin/github/syslinux-6.03/bios/com32/lib/libcom32core.a(fileread.o)
 .data          0x000000000010cc48        0x0 /home/wrsadmin/github/syslinux-6.03/bios/com32/lib/libcom32core.a(fileclose.o)
 .data          0x000000000010cc48        0x0 /home/wrsadmin/github/syslinux-6.03/bios/com32/lib/libcom32core.a(openmem.o)
 .data          0x000000000010cc48        0x0 /home/wrsadmin/github/syslinux-6.03/bios/com32/lib/libcom32core.a(isatty.o)
 .data          0x000000000010cc48        0x0 /home/wrsadmin/github/syslinux-6.03/bios/com32/lib/libcom32core.a(fstat.o)
 .data          0x000000000010cc48        0x0 /home/wrsadmin/github/syslinux-6.03/bios/com32/lib/libcom32core.a(dprintf.o)
 .data          0x000000000010cc48        0x0 /home/wrsadmin/github/syslinux-6.03/bios/com32/lib/libcom32core.a(vdprintf.o)
 .data          0x000000000010cc48        0x0 /home/wrsadmin/github/syslinux-6.03/bios/com32/lib/libcom32core.a(idle.o)
 .data          0x000000000010cc48        0x0 /home/wrsadmin/github/syslinux-6.03/bios/com32/lib/libcom32core.a(exit.o)
 .data          0x000000000010cc48        0x0 /home/wrsadmin/github/syslinux-6.03/bios/com32/lib/libcom32core.a(common.o)
 .data          0x000000000010cc48        0x0 /home/wrsadmin/github/syslinux-6.03/bios/com32/lib/libcom32core.a(elf_module.o)
 .data          0x000000000010cc48        0x0 /home/wrsadmin/github/syslinux-6.03/bios/com32/lib/libcom32core.a(elfutils.o)
 .data          0x000000000010cc48        0x0 /home/wrsadmin/github/syslinux-6.03/bios/com32/lib/libcom32core.a(exec.o)
 .data          0x000000000010cc48        0x0 /home/wrsadmin/github/syslinux-6.03/bios/com32/lib/libcom32core.a(elf_module.o)
 .data          0x000000000010cc48        0x0 libisolinux.a(rawcon.o)
 .data          0x000000000010cc48        0x0 libisolinux.a(localboot.o)
 .data          0x000000000010cc48        0x0 libisolinux.a(isolinux-c.o)
 *(.data.*)
 .data.rel.ro   0x000000000010cc48        0x0 isolinux.o
 .data.rel.local
                0x000000000010cc48       0x24 libcom32.a(iso9660.o)
 *fill*         0x000000000010cc6c       0x14 
 .data.rel.ro   0x000000000010cc80       0x48 libcom32.a(iso9660.o)
                0x000000000010cc80                iso_fs_ops
 *fill*         0x000000000010ccc8       0x18 
 .data.rel.ro   0x000000000010cce0       0x44 libcom32.a(pmapi.o)
                0x000000000010cce0                pm_api_vector
 .data.rel.local
                0x000000000010cd24       0x20 libcom32.a(load_env32.o)
 *fill*         0x000000000010cd44       0x1c 
 .data.rel      0x000000000010cd60      0x278 libcom32.a(load_env32.o)
                0x000000000010cd60                core_module
 *fill*         0x000000000010cfd8        0x8 
 .data.rel      0x000000000010cfe0       0x44 libcom32.a(bios.o)
                0x000000000010cfe0                bios_fw
                0x000000000010d00c                bios_mem_ops
                0x000000000010d018                bios_input_ops
 *fill*         0x000000000010d024       0x1c 
 .data.rel.local
                0x000000000010d040       0x44 libcom32.a(bios.o)
                0x000000000010d04c                bios_vesa_ops
                0x000000000010d058                bios_adv_ops
                0x000000000010d060                bios_output_ops
 .data.rel.local
                0x000000000010d084        0x8 libcom32.a(serirq.o)
                0x000000000010d084                SerialTail
                0x000000000010d088                SerialHead
 .data.rel.local
                0x000000000010d08c        0x8 libcom32.a(path.o)
                0x000000000010d08c                PATH
 .data.rel.local
                0x000000000010d094        0xc libcom32.a(malloc.o)
                0x000000000010d094                __malloc_semaphore
 .data.rel.ro.local
                0x000000000010d0a0       0xa8 libcom32.a(dmi.o)
 *fill*         0x000000000010d148       0x18 
 .data.rel.local
                0x000000000010d160       0x48 libcom32.a(root_thread.o)
                0x000000000010d160                __current
                0x000000000010d180                __root_thread
 .data.rel.ro.local
                0x000000000010d1a8       0x14 /home/wrsadmin/github/syslinux-6.03/bios/com32/lib/libcom32core.a(err_read.o)
                0x000000000010d1a8                dev_error_r
 .data.rel.ro.local
                0x000000000010d1bc       0x18 /home/wrsadmin/github/syslinux-6.03/bios/com32/lib/libcom32core.a(err_write.o)
                0x000000000010d1bc                dev_error_w
 .data.rel.ro.local
                0x000000000010d1d4       0x14 /home/wrsadmin/github/syslinux-6.03/bios/com32/lib/libcom32core.a(null_read.o)
                0x000000000010d1d4                dev_null_r
 .data.rel.ro.local
                0x000000000010d1e8       0x18 /home/wrsadmin/github/syslinux-6.03/bios/com32/lib/libcom32core.a(stdcon_write.o)
                0x000000000010d1e8                dev_stdcon_w
 .data.rel.local
                0x000000000010d200        0x8 /home/wrsadmin/github/syslinux-6.03/bios/com32/lib/libcom32core.a(memscan.o)
 .data.rel      0x000000000010d208        0x4 /home/wrsadmin/github/syslinux-6.03/bios/com32/lib/libcom32core.a(argv.o)
                0x000000000010d208                __mem_end
 .data.rel.ro   0x000000000010d20c       0x14 /home/wrsadmin/github/syslinux-6.03/bios/com32/lib/libcom32core.a(open.o)
                0x000000000010d20c                __file_dev
 .data.rel      0x000000000010d220        0x8 /home/wrsadmin/github/syslinux-6.03/bios/com32/lib/libcom32core.a(common.o)
                0x000000000010d220                modules_head
                0x000000000010d228                __data_end = .
                0x000000000010d228                __pm_code_end = .
                0x000000000000d228                __pm_code_len = (ABSOLUTE (__pm_code_end) - ABSOLUTE (__pm_code_start))
                0x000000000000348a                __pm_code_dwords = ((__pm_code_len + 0x3) >> 0x2)
                0x000000000010d280                . = ALIGN (0x80)
                0x000000000010d280                __bss_vma = .
                0x000000000010d280                __bss_lma = .

.bss            0x000000000010d280   0x203dd8
                0x000000000010d280                __bss_start = .
 *(.bss)
 .bss           0x000000000010d280      0x470 libcom32.a(graphics.o)
                0x000000000010d280                UsingVGA
 .bss           0x000000000010d6f0        0x0 libcom32.a(writehex.o)
 .bss           0x000000000010d6f0        0x6 libcom32.a(conio.o)
                0x000000000010d6f0                FlowOutput
                0x000000000010d6f1                FlowIgnore
                0x000000000010d6f2                FlowInput
                0x000000000010d6f4                SerialPort
 .bss           0x000000000010d6f6        0x0 libcom32.a(writestr.o)
 .bss           0x000000000010d6f6        0x0 libcom32.a(init.o)
 .bss           0x000000000010d6f6        0x0 libcom32.a(rllpack.o)
 .bss           0x000000000010d6f6        0x0 libcom32.a(iso9660.o)
 *fill*         0x000000000010d6f6        0xa 
 .bss           0x000000000010d700      0x10c libcom32.a(readdir.o)
 .bss           0x000000000010d80c        0x0 libcom32.a(mangle.o)
 .bss           0x000000000010d80c        0x0 libcom32.a(searchconfig.o)
 .bss           0x000000000010d80c        0x0 libcom32.a(close.o)
 .bss           0x000000000010d80c        0x0 libcom32.a(nonextextent.o)
 .bss           0x000000000010d80c        0x0 libcom32.a(getfssec.o)
 .bss           0x000000000010d80c        0x0 libcom32.a(cache.o)
 .bss           0x000000000010d80c       0x18 libcom32.a(diskio.o)
 *fill*         0x000000000010d824       0x1c 
 .bss           0x000000000010d840       0x50 libcom32.a(diskio_bios.o)
 *fill*         0x000000000010d890       0x10 
 .bss           0x000000000010d8a0      0x144 libcom32.a(fs.o)
                0x000000000010d8a0                this_fs
 .bss           0x000000000010d9e4        0x0 libcom32.a(chdir.o)
 .bss           0x000000000010d9e4        0x0 libcom32.a(hello.o)
 .bss           0x000000000010d9e4        0x0 libcom32.a(errno.o)
 .bss           0x000000000010d9e4        0x0 libcom32.a(cleanup.o)
 .bss           0x000000000010d9e4        0x0 libcom32.a(pmapi.o)
 .bss           0x000000000010d9e4        0x1 libcom32.a(font.o)
                0x000000000010d9e4                UserFont
 *fill*         0x000000000010d9e5        0x3 
 .bss           0x000000000010d9e8        0x4 libcom32.a(load_env32.o)
 *fill*         0x000000000010d9ec       0x14 
 .bss           0x000000000010da00      0x28e libcom32.a(bios.o)
                0x000000000010da00                firmware
 *fill*         0x000000000010dc8e       0x12 
 .bss           0x000000000010dca0     0x1060 libcom32.a(serirq.o)
 .bss           0x000000000010ed00        0x0 libcom32.a(init.o)
 .bss           0x000000000010ed00        0x8 libcom32.a(idle.o)
                0x000000000010ed00                NoHalt
 .bss           0x000000000010ed08        0x0 libcom32.a(call16.o)
 .bss           0x000000000010ed08        0x0 libcom32.a(lzo1x_f2.o)
 .bss           0x000000000010ed08        0x0 libcom32.a(sysappend.o)
 .bss           0x000000000010ed08        0x0 libcom32.a(path.o)
 .bss           0x000000000010ed08        0x0 libcom32.a(malloc.o)
 .bss           0x000000000010ed08        0x0 libcom32.a(free.o)
 .bss           0x000000000010ed08        0x0 libcom32.a(kaboom.o)
 .bss           0x000000000010ed08        0x0 libcom32.a(susp_rr.o)
 .bss           0x000000000010ed08        0x0 libcom32.a(getcwd.o)
 .bss           0x000000000010ed08        0x4 libcom32.a(dmi.o)
 .bss           0x000000000010ed0c        0x0 libcom32.a(sem_asm.o)
 .bss           0x000000000010ed0c        0x0 libcom32.a(semaphore.o)
 .bss           0x000000000010ed0c        0x1 libcom32.a(schedule.o)
 .bss           0x000000000010ed0d        0x0 libcom32.a(root_thread.o)
 .bss           0x000000000010ed0d        0x0 libcom32.a(thread_asm.o)
 .bss           0x000000000010ed0d        0x0 libcom32.a(exit_thread.o)
 .bss           0x000000000010ed0d        0x0 /home/wrsadmin/github/syslinux-6.03/bios/com32/lib/libcom32core.a(memcpy.o)
 .bss           0x000000000010ed0d        0x0 /home/wrsadmin/github/syslinux-6.03/bios/com32/lib/libcom32core.a(memset.o)
 .bss           0x000000000010ed0d        0x0 /home/wrsadmin/github/syslinux-6.03/bios/com32/lib/libcom32core.a(memcmp.o)
 .bss           0x000000000010ed0d        0x0 /home/wrsadmin/github/syslinux-6.03/bios/com32/lib/libcom32core.a(printf.o)
 .bss           0x000000000010ed0d        0x0 /home/wrsadmin/github/syslinux-6.03/bios/com32/lib/libcom32core.a(strncmp.o)
 .bss           0x000000000010ed0d        0x0 /home/wrsadmin/github/syslinux-6.03/bios/com32/lib/libcom32core.a(vfprintf.o)
 .bss           0x000000000010ed0d        0x0 /home/wrsadmin/github/syslinux-6.03/bios/com32/lib/libcom32core.a(strlen.o)
 .bss           0x000000000010ed0d        0x0 /home/wrsadmin/github/syslinux-6.03/bios/com32/lib/libcom32core.a(vsnprintf.o)
 .bss           0x000000000010ed0d        0x0 /home/wrsadmin/github/syslinux-6.03/bios/com32/lib/libcom32core.a(snprintf.o)
 .bss           0x000000000010ed0d        0x0 /home/wrsadmin/github/syslinux-6.03/bios/com32/lib/libcom32core.a(stpcpy.o)
 .bss           0x000000000010ed0d        0x0 /home/wrsadmin/github/syslinux-6.03/bios/com32/lib/libcom32core.a(strcmp.o)
 .bss           0x000000000010ed0d        0x0 /home/wrsadmin/github/syslinux-6.03/bios/com32/lib/libcom32core.a(strdup.o)
 .bss           0x000000000010ed0d        0x0 /home/wrsadmin/github/syslinux-6.03/bios/com32/lib/libcom32core.a(strcpy.o)
 .bss           0x000000000010ed0d        0x0 /home/wrsadmin/github/syslinux-6.03/bios/com32/lib/libcom32core.a(strncpy.o)
 .bss           0x000000000010ed0d        0x0 /home/wrsadmin/github/syslinux-6.03/bios/com32/lib/libcom32core.a(setjmp.o)
 .bss           0x000000000010ed0d        0x0 /home/wrsadmin/github/syslinux-6.03/bios/com32/lib/libcom32core.a(fopen.o)
 .bss           0x000000000010ed0d        0x0 /home/wrsadmin/github/syslinux-6.03/bios/com32/lib/libcom32core.a(fread.o)
 .bss           0x000000000010ed0d        0x0 /home/wrsadmin/github/syslinux-6.03/bios/com32/lib/libcom32core.a(fread2.o)
 .bss           0x000000000010ed0d        0x0 /home/wrsadmin/github/syslinux-6.03/bios/com32/lib/libcom32core.a(puts.o)
 .bss           0x000000000010ed0d        0x0 /home/wrsadmin/github/syslinux-6.03/bios/com32/lib/libcom32core.a(strtoul.o)
 .bss           0x000000000010ed0d        0x0 /home/wrsadmin/github/syslinux-6.03/bios/com32/lib/libcom32core.a(strntoumax.o)
 .bss           0x000000000010ed0d        0x0 /home/wrsadmin/github/syslinux-6.03/bios/com32/lib/libcom32core.a(strcasecmp.o)
 .bss           0x000000000010ed0d        0x0 /home/wrsadmin/github/syslinux-6.03/bios/com32/lib/libcom32core.a(sprintf.o)
 .bss           0x000000000010ed0d        0x0 /home/wrsadmin/github/syslinux-6.03/bios/com32/lib/libcom32core.a(strlcat.o)
 .bss           0x000000000010ed0d        0x0 /home/wrsadmin/github/syslinux-6.03/bios/com32/lib/libcom32core.a(strchr.o)
 .bss           0x000000000010ed0d        0x0 /home/wrsadmin/github/syslinux-6.03/bios/com32/lib/libcom32core.a(strlcpy.o)
 .bss           0x000000000010ed0d        0x0 /home/wrsadmin/github/syslinux-6.03/bios/com32/lib/libcom32core.a(strncasecmp.o)
 .bss           0x000000000010ed0d        0x0 /home/wrsadmin/github/syslinux-6.03/bios/com32/lib/libcom32core.a(ctypes.o)
 .bss           0x000000000010ed0d        0x0 /home/wrsadmin/github/syslinux-6.03/bios/com32/lib/libcom32core.a(fputs.o)
 .bss           0x000000000010ed0d        0x0 /home/wrsadmin/github/syslinux-6.03/bios/com32/lib/libcom32core.a(fwrite2.o)
 .bss           0x000000000010ed0d        0x0 /home/wrsadmin/github/syslinux-6.03/bios/com32/lib/libcom32core.a(fwrite.o)
 .bss           0x000000000010ed0d        0x0 /home/wrsadmin/github/syslinux-6.03/bios/com32/lib/libcom32core.a(fgetc.o)
 .bss           0x000000000010ed0d        0x0 /home/wrsadmin/github/syslinux-6.03/bios/com32/lib/libcom32core.a(fclose.o)
 .bss           0x000000000010ed0d        0x0 /home/wrsadmin/github/syslinux-6.03/bios/com32/lib/libcom32core.a(lmalloc.o)
 .bss           0x000000000010ed0d        0x0 /home/wrsadmin/github/syslinux-6.03/bios/com32/lib/libcom32core.a(err_read.o)
 .bss           0x000000000010ed0d        0x0 /home/wrsadmin/github/syslinux-6.03/bios/com32/lib/libcom32core.a(err_write.o)
 .bss           0x000000000010ed0d        0x0 /home/wrsadmin/github/syslinux-6.03/bios/com32/lib/libcom32core.a(null_read.o)
 .bss           0x000000000010ed0d        0x0 /home/wrsadmin/github/syslinux-6.03/bios/com32/lib/libcom32core.a(stdcon_write.o)
 .bss           0x000000000010ed0d        0x0 /home/wrsadmin/github/syslinux-6.03/bios/com32/lib/libcom32core.a(memscan.o)
 .bss           0x000000000010ed0d        0x0 /home/wrsadmin/github/syslinux-6.03/bios/com32/lib/libcom32core.a(strrchr.o)
 .bss           0x000000000010ed0d        0x0 /home/wrsadmin/github/syslinux-6.03/bios/com32/lib/libcom32core.a(strcat.o)
 .bss           0x000000000010ed0d        0x0 /home/wrsadmin/github/syslinux-6.03/bios/com32/lib/libcom32core.a(__ashldi3.o)
 .bss           0x000000000010ed0d        0x0 /home/wrsadmin/github/syslinux-6.03/bios/com32/lib/libcom32core.a(__udivdi3.o)
 .bss           0x000000000010ed0d        0x0 /home/wrsadmin/github/syslinux-6.03/bios/com32/lib/libcom32core.a(__negdi2.o)
 .bss           0x000000000010ed0d        0x0 /home/wrsadmin/github/syslinux-6.03/bios/com32/lib/libcom32core.a(__ashrdi3.o)
 .bss           0x000000000010ed0d        0x0 /home/wrsadmin/github/syslinux-6.03/bios/com32/lib/libcom32core.a(__lshrdi3.o)
 .bss           0x000000000010ed0d        0x0 /home/wrsadmin/github/syslinux-6.03/bios/com32/lib/libcom32core.a(__muldi3.o)
 .bss           0x000000000010ed0d        0x0 /home/wrsadmin/github/syslinux-6.03/bios/com32/lib/libcom32core.a(__udivmoddi4.o)
 .bss           0x000000000010ed0d        0x0 /home/wrsadmin/github/syslinux-6.03/bios/com32/lib/libcom32core.a(__umoddi3.o)
 .bss           0x000000000010ed0d        0x0 /home/wrsadmin/github/syslinux-6.03/bios/com32/lib/libcom32core.a(__divdi3.o)
 .bss           0x000000000010ed0d        0x0 /home/wrsadmin/github/syslinux-6.03/bios/com32/lib/libcom32core.a(__moddi3.o)
 .bss           0x000000000010ed0d        0x0 /home/wrsadmin/github/syslinux-6.03/bios/com32/lib/libcom32core.a(debug.o)
 .bss           0x000000000010ed0d        0x0 /home/wrsadmin/github/syslinux-6.03/bios/com32/lib/libcom32core.a(intcall.o)
 .bss           0x000000000010ed0d        0x0 /home/wrsadmin/github/syslinux-6.03/bios/com32/lib/libcom32core.a(farcall.o)
 .bss           0x000000000010ed0d        0x0 /home/wrsadmin/github/syslinux-6.03/bios/com32/lib/libcom32core.a(cfarcall.o)
 .bss           0x000000000010ed0d        0x0 /home/wrsadmin/github/syslinux-6.03/bios/com32/lib/libcom32core.a(zeroregs.o)
 .bss           0x000000000010ed0d        0x0 /home/wrsadmin/github/syslinux-6.03/bios/com32/lib/libcom32core.a(argv.o)
 .bss           0x000000000010ed0d        0x0 /home/wrsadmin/github/syslinux-6.03/bios/com32/lib/libcom32core.a(sleep.o)
 .bss           0x000000000010ed0d        0x0 /home/wrsadmin/github/syslinux-6.03/bios/com32/lib/libcom32core.a(fileinfo.o)
 .bss           0x000000000010ed0d        0x0 /home/wrsadmin/github/syslinux-6.03/bios/com32/lib/libcom32core.a(opendev.o)
 .bss           0x000000000010ed0d        0x0 /home/wrsadmin/github/syslinux-6.03/bios/com32/lib/libcom32core.a(read.o)
 .bss           0x000000000010ed0d        0x0 /home/wrsadmin/github/syslinux-6.03/bios/com32/lib/libcom32core.a(write.o)
 .bss           0x000000000010ed0d        0x0 /home/wrsadmin/github/syslinux-6.03/bios/com32/lib/libcom32core.a(ftell.o)
 .bss           0x000000000010ed0d        0x0 /home/wrsadmin/github/syslinux-6.03/bios/com32/lib/libcom32core.a(close.o)
 .bss           0x000000000010ed0d        0x0 /home/wrsadmin/github/syslinux-6.03/bios/com32/lib/libcom32core.a(open.o)
 .bss           0x000000000010ed0d        0x0 /home/wrsadmin/github/syslinux-6.03/bios/com32/lib/libcom32core.a(fileread.o)
 .bss           0x000000000010ed0d        0x0 /home/wrsadmin/github/syslinux-6.03/bios/com32/lib/libcom32core.a(fileclose.o)
 .bss           0x000000000010ed0d        0x0 /home/wrsadmin/github/syslinux-6.03/bios/com32/lib/libcom32core.a(openmem.o)
 .bss           0x000000000010ed0d        0x0 /home/wrsadmin/github/syslinux-6.03/bios/com32/lib/libcom32core.a(isatty.o)
 .bss           0x000000000010ed0d        0x0 /home/wrsadmin/github/syslinux-6.03/bios/com32/lib/libcom32core.a(fstat.o)
 .bss           0x000000000010ed0d        0x0 /home/wrsadmin/github/syslinux-6.03/bios/com32/lib/libcom32core.a(dprintf.o)
 .bss           0x000000000010ed0d        0x0 /home/wrsadmin/github/syslinux-6.03/bios/com32/lib/libcom32core.a(vdprintf.o)
 .bss           0x000000000010ed0d        0x0 /home/wrsadmin/github/syslinux-6.03/bios/com32/lib/libcom32core.a(idle.o)
 .bss           0x000000000010ed0d        0x0 /home/wrsadmin/github/syslinux-6.03/bios/com32/lib/libcom32core.a(exit.o)
 .bss           0x000000000010ed0d        0x0 /home/wrsadmin/github/syslinux-6.03/bios/com32/lib/libcom32core.a(common.o)
 .bss           0x000000000010ed0d        0x0 /home/wrsadmin/github/syslinux-6.03/bios/com32/lib/libcom32core.a(elf_module.o)
 .bss           0x000000000010ed0d        0x0 /home/wrsadmin/github/syslinux-6.03/bios/com32/lib/libcom32core.a(elfutils.o)
 *fill*         0x000000000010ed0d        0x3 
 .bss           0x000000000010ed10        0x4 /home/wrsadmin/github/syslinux-6.03/bios/com32/lib/libcom32core.a(exec.o)
                0x000000000010ed10                __syslinux_current
 .bss           0x000000000010ed14        0x0 /home/wrsadmin/github/syslinux-6.03/bios/com32/lib/libcom32core.a(elf_module.o)
 .bss           0x000000000010ed14        0x0 libisolinux.a(rawcon.o)
 .bss           0x000000000010ed14        0x0 libisolinux.a(localboot.o)
 .bss           0x000000000010ed14        0x0 libisolinux.a(isolinux-c.o)
 *(.bss.*)
 *(COMMON)
 *fill*         0x000000000010ed14        0xc 
 COMMON         0x000000000010ed20      0x224 libcom32.a(graphics.o)
                0x000000000010ed20                VGAPos
                0x000000000010ed40                VGAFileBuf
                0x000000000010ee40                VGAFileMBuf
                0x000000000010ef40                VGAFilePtr
 COMMON         0x000000000010ef44        0x4 libcom32.a(conio.o)
                0x000000000010ef44                _screensize
                0x000000000010ef46                _cursor
 *fill*         0x000000000010ef48       0x18 
 COMMON         0x000000000010ef60       0x90 libcom32.a(init.o)
                0x000000000010ef60                bios_free_mem
                0x000000000010ef80                __core_malloc_head
 *fill*         0x000000000010eff0       0x10 
 COMMON         0x000000000010f000      0x200 libcom32.a(searchconfig.o)
                0x000000000010f000                ConfigName
                0x000000000010f100                config_cwd
 COMMON         0x000000000010f200      0x600 libcom32.a(fs.o)
                0x000000000010f200                files
 COMMON         0x000000000010f800        0x4 libcom32.a(errno.o)
                0x000000000010f800                errno
 *fill*         0x000000000010f804       0x1c 
 COMMON         0x000000000010f820      0x103 libcom32.a(bios.o)
                0x000000000010f820                KbdMap
                0x000000000010f920                PXERetry
                0x000000000010f922                KbdFlags
 *fill*         0x000000000010f923        0x1 
 COMMON         0x000000000010f924        0x4 libcom32.a(idle.o)
                0x000000000010f924                idle_hook_func
 *fill*         0x000000000010f928       0x18 
 COMMON         0x000000000010f940       0x2c libcom32.a(call16.o)
                0x000000000010f940                zero_regs
 *fill*         0x000000000010f96c       0x14 
 COMMON         0x000000000010f980       0x6c libcom32.a(sysappend.o)
                0x000000000010f980                SysAppends
                0x000000000010f9a0                sysappend_strings
 COMMON         0x000000000010f9ec        0x4 libcom32.a(schedule.o)
                0x000000000010f9ec                sched_hook_func
 *fill*         0x000000000010f9f0       0x10 
 COMMON         0x000000000010fa00       0x2c /home/wrsadmin/github/syslinux-6.03/bios/com32/lib/libcom32core.a(zeroregs.o)
                0x000000000010fa00                __com32_zero_regs
 *fill*         0x000000000010fa2c       0x14 
 COMMON         0x000000000010fa40   0x201600 /home/wrsadmin/github/syslinux-6.03/bios/com32/lib/libcom32core.a(fileinfo.o)
                0x000000000010fa40                __file_info
 COMMON         0x0000000000311040       0x18 /home/wrsadmin/github/syslinux-6.03/bios/com32/lib/libcom32core.a(exec.o)
                0x0000000000311040                __process_exit_jmp
                0x0000000000311058                __bss_end = .
                0x0000000000203dd8                __bss_len = (ABSOLUTE (__bss_end) - ABSOLUTE (__bss_start))
                0x0000000000080f76                __bss_dwords = ((__bss_len + 0x3) >> 0x2)
                0x0000000000311058                __hugebss_vma = .
                0x0000000000311058                __hugebss_lma = .

.savedata       0x0000000000311060        0x0
 .savedata      0x0000000000311060        0x0 isolinux.o

.dynbss         0x0000000000311058        0x0
 .dynbss        0x0000000000311058        0x0 isolinux.o

.hugebss        0x0000000000311058        0x0
                0x0000000000311058                __hugebss_start = .
 *(.hugebss)
 *(.hugebss.*)
                0x0000000000311058                __hugebss_end = .
                0x0000000000000000                __hugebss_len = (ABSOLUTE (__hugebss_end) - ABSOLUTE (__hugebss_start))
                0x0000000000000000                __hugebss_dwords = ((__hugebss_len + 0x3) >> 0x2)
                0x0000000000311058                __stack_vma = .
                0x0000000000311058                __stack_lma = .

.stack          0x0000000000312000    0x10000 load address 0x0000000000311058
                0x0000000000312000                __stack_start = .
 *(.stack)
 .stack         0x0000000000312000    0x10000 isolinux.o
                0x0000000000322000                __stack_end = .
                0x0000000000010000                __stack_len = (ABSOLUTE (__stack_end) - ABSOLUTE (__stack_start))
                0x0000000000004000                __stack_dwords = ((__stack_len + 0x3) >> 0x2)
                0x0000000000322000                _end = .
                0x0000000000330000                . = ALIGN (0x10000)
                0x0000000000330000                free_high_memory = .

/DISCARD/
 *(.eh_frame)
LOAD isolinux.o
START GROUP
LOAD libcom32.a
LOAD /home/wrsadmin/github/syslinux-6.03/bios/com32/lib/libcom32core.a
LOAD libisolinux.a
END GROUP
OUTPUT(isolinux.elf elf32-i386)

.debug_aranges  0x0000000000000000      0xfc8
 .debug_aranges
                0x0000000000000000       0x48 isolinux.o
 .debug_aranges
                0x0000000000000048       0x20 libcom32.a(graphics.o)
 .debug_aranges
                0x0000000000000068       0x20 libcom32.a(writehex.o)
 .debug_aranges
                0x0000000000000088       0x20 libcom32.a(conio.o)
 .debug_aranges
                0x00000000000000a8       0x20 libcom32.a(writestr.o)
 .debug_aranges
                0x00000000000000c8       0x20 libcom32.a(init.o)
 .debug_aranges
                0x00000000000000e8       0x20 libcom32.a(rllpack.o)
 .debug_aranges
                0x0000000000000108       0x20 libcom32.a(iso9660.o)
 .debug_aranges
                0x0000000000000128       0x20 libcom32.a(readdir.o)
 .debug_aranges
                0x0000000000000148       0x20 libcom32.a(mangle.o)
 .debug_aranges
                0x0000000000000168       0x20 libcom32.a(searchconfig.o)
 .debug_aranges
                0x0000000000000188       0x20 libcom32.a(close.o)
 .debug_aranges
                0x00000000000001a8       0x20 libcom32.a(nonextextent.o)
 .debug_aranges
                0x00000000000001c8       0x20 libcom32.a(getfssec.o)
 .debug_aranges
                0x00000000000001e8       0x20 libcom32.a(cache.o)
 .debug_aranges
                0x0000000000000208       0x20 libcom32.a(diskio.o)
 .debug_aranges
                0x0000000000000228       0x20 libcom32.a(diskio_bios.o)
 .debug_aranges
                0x0000000000000248       0x20 libcom32.a(fs.o)
 .debug_aranges
                0x0000000000000268       0x20 libcom32.a(chdir.o)
 .debug_aranges
                0x0000000000000288       0x20 libcom32.a(hello.o)
 .debug_aranges
                0x00000000000002a8       0x18 libcom32.a(errno.o)
 .debug_aranges
                0x00000000000002c0       0x20 libcom32.a(cleanup.o)
 .debug_aranges
                0x00000000000002e0       0x18 libcom32.a(pmapi.o)
 .debug_aranges
                0x00000000000002f8       0x20 libcom32.a(font.o)
 .debug_aranges
                0x0000000000000318       0x20 libcom32.a(load_env32.o)
 .debug_aranges
                0x0000000000000338       0x20 libcom32.a(bios.o)
 .debug_aranges
                0x0000000000000358       0x20 libcom32.a(serirq.o)
 .debug_aranges
                0x0000000000000378       0x20 libcom32.a(init.o)
 .debug_aranges
                0x0000000000000398       0x20 libcom32.a(idle.o)
 .debug_aranges
                0x00000000000003b8       0x20 libcom32.a(call16.o)
 .debug_aranges
                0x00000000000003d8       0x20 libcom32.a(lzo1x_f2.o)
 .debug_aranges
                0x00000000000003f8       0x20 libcom32.a(sysappend.o)
 .debug_aranges
                0x0000000000000418       0x20 libcom32.a(path.o)
 .debug_aranges
                0x0000000000000438       0x20 libcom32.a(malloc.o)
 .debug_aranges
                0x0000000000000458       0x20 libcom32.a(free.o)
 .debug_aranges
                0x0000000000000478       0x20 libcom32.a(kaboom.o)
 .debug_aranges
                0x0000000000000498       0x20 libcom32.a(susp_rr.o)
 .debug_aranges
                0x00000000000004b8       0x20 libcom32.a(getcwd.o)
 .debug_aranges
                0x00000000000004d8       0x20 libcom32.a(dmi.o)
 .debug_aranges
                0x00000000000004f8       0x20 libcom32.a(sem_asm.o)
 .debug_aranges
                0x0000000000000518       0x20 libcom32.a(semaphore.o)
 .debug_aranges
                0x0000000000000538       0x20 libcom32.a(schedule.o)
 .debug_aranges
                0x0000000000000558       0x18 libcom32.a(root_thread.o)
 .debug_aranges
                0x0000000000000570       0x20 libcom32.a(thread_asm.o)
 .debug_aranges
                0x0000000000000590       0x20 libcom32.a(exit_thread.o)
 .debug_aranges
                0x00000000000005b0       0x20 /home/wrsadmin/github/syslinux-6.03/bios/com32/lib/libcom32core.a(memcpy.o)
 .debug_aranges
                0x00000000000005d0       0x20 /home/wrsadmin/github/syslinux-6.03/bios/com32/lib/libcom32core.a(memset.o)
 .debug_aranges
                0x00000000000005f0       0x20 /home/wrsadmin/github/syslinux-6.03/bios/com32/lib/libcom32core.a(memcmp.o)
 .debug_aranges
                0x0000000000000610       0x20 /home/wrsadmin/github/syslinux-6.03/bios/com32/lib/libcom32core.a(printf.o)
 .debug_aranges
                0x0000000000000630       0x20 /home/wrsadmin/github/syslinux-6.03/bios/com32/lib/libcom32core.a(strncmp.o)
 .debug_aranges
                0x0000000000000650       0x20 /home/wrsadmin/github/syslinux-6.03/bios/com32/lib/libcom32core.a(vfprintf.o)
 .debug_aranges
                0x0000000000000670       0x20 /home/wrsadmin/github/syslinux-6.03/bios/com32/lib/libcom32core.a(strlen.o)
 .debug_aranges
                0x0000000000000690       0x20 /home/wrsadmin/github/syslinux-6.03/bios/com32/lib/libcom32core.a(vsnprintf.o)
 .debug_aranges
                0x00000000000006b0       0x20 /home/wrsadmin/github/syslinux-6.03/bios/com32/lib/libcom32core.a(snprintf.o)
 .debug_aranges
                0x00000000000006d0       0x20 /home/wrsadmin/github/syslinux-6.03/bios/com32/lib/libcom32core.a(stpcpy.o)
 .debug_aranges
                0x00000000000006f0       0x20 /home/wrsadmin/github/syslinux-6.03/bios/com32/lib/libcom32core.a(strcmp.o)
 .debug_aranges
                0x0000000000000710       0x20 /home/wrsadmin/github/syslinux-6.03/bios/com32/lib/libcom32core.a(strdup.o)
 .debug_aranges
                0x0000000000000730       0x20 /home/wrsadmin/github/syslinux-6.03/bios/com32/lib/libcom32core.a(strcpy.o)
 .debug_aranges
                0x0000000000000750       0x20 /home/wrsadmin/github/syslinux-6.03/bios/com32/lib/libcom32core.a(strncpy.o)
 .debug_aranges
                0x0000000000000770       0x20 /home/wrsadmin/github/syslinux-6.03/bios/com32/lib/libcom32core.a(setjmp.o)
 .debug_aranges
                0x0000000000000790       0x20 /home/wrsadmin/github/syslinux-6.03/bios/com32/lib/libcom32core.a(fopen.o)
 .debug_aranges
                0x00000000000007b0       0x20 /home/wrsadmin/github/syslinux-6.03/bios/com32/lib/libcom32core.a(fread.o)
 .debug_aranges
                0x00000000000007d0       0x20 /home/wrsadmin/github/syslinux-6.03/bios/com32/lib/libcom32core.a(fread2.o)
 .debug_aranges
                0x00000000000007f0       0x20 /home/wrsadmin/github/syslinux-6.03/bios/com32/lib/libcom32core.a(puts.o)
 .debug_aranges
                0x0000000000000810       0x20 /home/wrsadmin/github/syslinux-6.03/bios/com32/lib/libcom32core.a(strtoul.o)
 .debug_aranges
                0x0000000000000830       0x20 /home/wrsadmin/github/syslinux-6.03/bios/com32/lib/libcom32core.a(strntoumax.o)
 .debug_aranges
                0x0000000000000850       0x20 /home/wrsadmin/github/syslinux-6.03/bios/com32/lib/libcom32core.a(strcasecmp.o)
 .debug_aranges
                0x0000000000000870       0x20 /home/wrsadmin/github/syslinux-6.03/bios/com32/lib/libcom32core.a(sprintf.o)
 .debug_aranges
                0x0000000000000890       0x20 /home/wrsadmin/github/syslinux-6.03/bios/com32/lib/libcom32core.a(strlcat.o)
 .debug_aranges
                0x00000000000008b0       0x20 /home/wrsadmin/github/syslinux-6.03/bios/com32/lib/libcom32core.a(strchr.o)
 .debug_aranges
                0x00000000000008d0       0x20 /home/wrsadmin/github/syslinux-6.03/bios/com32/lib/libcom32core.a(strlcpy.o)
 .debug_aranges
                0x00000000000008f0       0x20 /home/wrsadmin/github/syslinux-6.03/bios/com32/lib/libcom32core.a(strncasecmp.o)
 .debug_aranges
                0x0000000000000910       0x18 /home/wrsadmin/github/syslinux-6.03/bios/com32/lib/libcom32core.a(ctypes.o)
 .debug_aranges
                0x0000000000000928       0x20 /home/wrsadmin/github/syslinux-6.03/bios/com32/lib/libcom32core.a(fputs.o)
 .debug_aranges
                0x0000000000000948       0x20 /home/wrsadmin/github/syslinux-6.03/bios/com32/lib/libcom32core.a(fwrite2.o)
 .debug_aranges
                0x0000000000000968       0x20 /home/wrsadmin/github/syslinux-6.03/bios/com32/lib/libcom32core.a(fwrite.o)
 .debug_aranges
                0x0000000000000988       0x20 /home/wrsadmin/github/syslinux-6.03/bios/com32/lib/libcom32core.a(fgetc.o)
 .debug_aranges
                0x00000000000009a8       0x20 /home/wrsadmin/github/syslinux-6.03/bios/com32/lib/libcom32core.a(fclose.o)
 .debug_aranges
                0x00000000000009c8       0x20 /home/wrsadmin/github/syslinux-6.03/bios/com32/lib/libcom32core.a(lmalloc.o)
 .debug_aranges
                0x00000000000009e8       0x20 /home/wrsadmin/github/syslinux-6.03/bios/com32/lib/libcom32core.a(err_read.o)
 .debug_aranges
                0x0000000000000a08       0x20 /home/wrsadmin/github/syslinux-6.03/bios/com32/lib/libcom32core.a(err_write.o)
 .debug_aranges
                0x0000000000000a28       0x20 /home/wrsadmin/github/syslinux-6.03/bios/com32/lib/libcom32core.a(null_read.o)
 .debug_aranges
                0x0000000000000a48       0x20 /home/wrsadmin/github/syslinux-6.03/bios/com32/lib/libcom32core.a(stdcon_write.o)
 .debug_aranges
                0x0000000000000a68       0x20 /home/wrsadmin/github/syslinux-6.03/bios/com32/lib/libcom32core.a(memscan.o)
 .debug_aranges
                0x0000000000000a88       0x20 /home/wrsadmin/github/syslinux-6.03/bios/com32/lib/libcom32core.a(strrchr.o)
 .debug_aranges
                0x0000000000000aa8       0x20 /home/wrsadmin/github/syslinux-6.03/bios/com32/lib/libcom32core.a(strcat.o)
 .debug_aranges
                0x0000000000000ac8       0x20 /home/wrsadmin/github/syslinux-6.03/bios/com32/lib/libcom32core.a(__ashldi3.o)
 .debug_aranges
                0x0000000000000ae8       0x20 /home/wrsadmin/github/syslinux-6.03/bios/com32/lib/libcom32core.a(__udivdi3.o)
 .debug_aranges
                0x0000000000000b08       0x20 /home/wrsadmin/github/syslinux-6.03/bios/com32/lib/libcom32core.a(__negdi2.o)
 .debug_aranges
                0x0000000000000b28       0x20 /home/wrsadmin/github/syslinux-6.03/bios/com32/lib/libcom32core.a(__ashrdi3.o)
 .debug_aranges
                0x0000000000000b48       0x20 /home/wrsadmin/github/syslinux-6.03/bios/com32/lib/libcom32core.a(__lshrdi3.o)
 .debug_aranges
                0x0000000000000b68       0x20 /home/wrsadmin/github/syslinux-6.03/bios/com32/lib/libcom32core.a(__muldi3.o)
 .debug_aranges
                0x0000000000000b88       0x20 /home/wrsadmin/github/syslinux-6.03/bios/com32/lib/libcom32core.a(__udivmoddi4.o)
 .debug_aranges
                0x0000000000000ba8       0x20 /home/wrsadmin/github/syslinux-6.03/bios/com32/lib/libcom32core.a(__umoddi3.o)
 .debug_aranges
                0x0000000000000bc8       0x20 /home/wrsadmin/github/syslinux-6.03/bios/com32/lib/libcom32core.a(__divdi3.o)
 .debug_aranges
                0x0000000000000be8       0x20 /home/wrsadmin/github/syslinux-6.03/bios/com32/lib/libcom32core.a(__moddi3.o)
 .debug_aranges
                0x0000000000000c08       0x20 /home/wrsadmin/github/syslinux-6.03/bios/com32/lib/libcom32core.a(debug.o)
 .debug_aranges
                0x0000000000000c28       0x20 /home/wrsadmin/github/syslinux-6.03/bios/com32/lib/libcom32core.a(intcall.o)
 .debug_aranges
                0x0000000000000c48       0x20 /home/wrsadmin/github/syslinux-6.03/bios/com32/lib/libcom32core.a(farcall.o)
 .debug_aranges
                0x0000000000000c68       0x20 /home/wrsadmin/github/syslinux-6.03/bios/com32/lib/libcom32core.a(cfarcall.o)
 .debug_aranges
                0x0000000000000c88       0x18 /home/wrsadmin/github/syslinux-6.03/bios/com32/lib/libcom32core.a(zeroregs.o)
 .debug_aranges
                0x0000000000000ca0       0x20 /home/wrsadmin/github/syslinux-6.03/bios/com32/lib/libcom32core.a(argv.o)
 .debug_aranges
                0x0000000000000cc0       0x20 /home/wrsadmin/github/syslinux-6.03/bios/com32/lib/libcom32core.a(sleep.o)
 .debug_aranges
                0x0000000000000ce0       0x18 /home/wrsadmin/github/syslinux-6.03/bios/com32/lib/libcom32core.a(fileinfo.o)
 .debug_aranges
                0x0000000000000cf8       0x20 /home/wrsadmin/github/syslinux-6.03/bios/com32/lib/libcom32core.a(opendev.o)
 .debug_aranges
                0x0000000000000d18       0x20 /home/wrsadmin/github/syslinux-6.03/bios/com32/lib/libcom32core.a(read.o)
 .debug_aranges
                0x0000000000000d38       0x20 /home/wrsadmin/github/syslinux-6.03/bios/com32/lib/libcom32core.a(write.o)
 .debug_aranges
                0x0000000000000d58       0x20 /home/wrsadmin/github/syslinux-6.03/bios/com32/lib/libcom32core.a(ftell.o)
 .debug_aranges
                0x0000000000000d78       0x20 /home/wrsadmin/github/syslinux-6.03/bios/com32/lib/libcom32core.a(close.o)
 .debug_aranges
                0x0000000000000d98       0x20 /home/wrsadmin/github/syslinux-6.03/bios/com32/lib/libcom32core.a(open.o)
 .debug_aranges
                0x0000000000000db8       0x20 /home/wrsadmin/github/syslinux-6.03/bios/com32/lib/libcom32core.a(fileread.o)
 .debug_aranges
                0x0000000000000dd8       0x20 /home/wrsadmin/github/syslinux-6.03/bios/com32/lib/libcom32core.a(fileclose.o)
 .debug_aranges
                0x0000000000000df8       0x20 /home/wrsadmin/github/syslinux-6.03/bios/com32/lib/libcom32core.a(openmem.o)
 .debug_aranges
                0x0000000000000e18       0x20 /home/wrsadmin/github/syslinux-6.03/bios/com32/lib/libcom32core.a(isatty.o)
 .debug_aranges
                0x0000000000000e38       0x20 /home/wrsadmin/github/syslinux-6.03/bios/com32/lib/libcom32core.a(fstat.o)
 .debug_aranges
                0x0000000000000e58       0x18 /home/wrsadmin/github/syslinux-6.03/bios/com32/lib/libcom32core.a(dprintf.o)
 .debug_aranges
                0x0000000000000e70       0x18 /home/wrsadmin/github/syslinux-6.03/bios/com32/lib/libcom32core.a(vdprintf.o)
 .debug_aranges
                0x0000000000000e88       0x20 /home/wrsadmin/github/syslinux-6.03/bios/com32/lib/libcom32core.a(idle.o)
 .debug_aranges
                0x0000000000000ea8       0x20 /home/wrsadmin/github/syslinux-6.03/bios/com32/lib/libcom32core.a(exit.o)
 .debug_aranges
                0x0000000000000ec8       0x20 /home/wrsadmin/github/syslinux-6.03/bios/com32/lib/libcom32core.a(common.o)
 .debug_aranges
                0x0000000000000ee8       0x20 /home/wrsadmin/github/syslinux-6.03/bios/com32/lib/libcom32core.a(elf_module.o)
 .debug_aranges
                0x0000000000000f08       0x20 /home/wrsadmin/github/syslinux-6.03/bios/com32/lib/libcom32core.a(elfutils.o)
 .debug_aranges
                0x0000000000000f28       0x20 /home/wrsadmin/github/syslinux-6.03/bios/com32/lib/libcom32core.a(exec.o)
 .debug_aranges
                0x0000000000000f48       0x20 /home/wrsadmin/github/syslinux-6.03/bios/com32/lib/libcom32core.a(elf_module.o)
 .debug_aranges
                0x0000000000000f68       0x20 libisolinux.a(rawcon.o)
 .debug_aranges
                0x0000000000000f88       0x20 libisolinux.a(localboot.o)
 .debug_aranges
                0x0000000000000fa8       0x20 libisolinux.a(isolinux-c.o)

.debug_pubnames
                0x0000000000000000       0x12
 .debug_pubnames
                0x0000000000000000       0x12 isolinux.o

.debug_info     0x0000000000000000    0x3f1b5
 .debug_info    0x0000000000000000       0x67 isolinux.o
 .debug_info    0x0000000000000067     0x1883 libcom32.a(graphics.o)
 .debug_info    0x00000000000018ea      0x871 libcom32.a(writehex.o)
 .debug_info    0x000000000000215b     0x1a6f libcom32.a(conio.o)
 .debug_info    0x0000000000003bca      0x7ad libcom32.a(writestr.o)
 .debug_info    0x0000000000004377      0xc1f libcom32.a(init.o)
 .debug_info    0x0000000000004f96      0x3b3 libcom32.a(rllpack.o)
 .debug_info    0x0000000000005349     0x1812 libcom32.a(iso9660.o)
 .debug_info    0x0000000000006b5b      0xefb libcom32.a(readdir.o)
 .debug_info    0x0000000000007a56      0xd9d libcom32.a(mangle.o)
 .debug_info    0x00000000000087f3      0xf29 libcom32.a(searchconfig.o)
 .debug_info    0x000000000000971c      0xd72 libcom32.a(close.o)
 .debug_info    0x000000000000a48e      0xd6b libcom32.a(nonextextent.o)
 .debug_info    0x000000000000b1f9      0xfdf libcom32.a(getfssec.o)
 .debug_info    0x000000000000c1d8      0xfe9 libcom32.a(cache.o)
 .debug_info    0x000000000000d1c1     0x1230 libcom32.a(diskio.o)
 .debug_info    0x000000000000e3f1     0x1781 libcom32.a(diskio_bios.o)
 .debug_info    0x000000000000fb72     0x1ae6 libcom32.a(fs.o)
 .debug_info    0x0000000000011658     0x1260 libcom32.a(chdir.o)
 .debug_info    0x00000000000128b8      0x9b3 libcom32.a(hello.o)
 .debug_info    0x000000000001326b       0x38 libcom32.a(errno.o)
 .debug_info    0x00000000000132a3      0xaff libcom32.a(cleanup.o)
 .debug_info    0x0000000000013da2      0xdcb libcom32.a(pmapi.o)
 .debug_info    0x0000000000014b6d     0x16d8 libcom32.a(font.o)
 .debug_info    0x0000000000016245     0x20e2 libcom32.a(load_env32.o)
 .debug_info    0x0000000000018327     0x2d6b libcom32.a(bios.o)
 .debug_info    0x000000000001b092     0x178c libcom32.a(serirq.o)
 .debug_info    0x000000000001c81e     0x11ca libcom32.a(init.o)
 .debug_info    0x000000000001d9e8      0x832 libcom32.a(idle.o)
 .debug_info    0x000000000001e21a      0x801 libcom32.a(call16.o)
 .debug_info    0x000000000001ea1b       0x8b libcom32.a(lzo1x_f2.o)
 .debug_info    0x000000000001eaa6     0x106a libcom32.a(sysappend.o)
 .debug_info    0x000000000001fb10      0xf56 libcom32.a(path.o)
 .debug_info    0x0000000000020a66     0x133e libcom32.a(malloc.o)
 .debug_info    0x0000000000021da4     0x109a libcom32.a(free.o)
 .debug_info    0x0000000000022e3e      0x700 libcom32.a(kaboom.o)
 .debug_info    0x000000000002353e     0x187d libcom32.a(susp_rr.o)
 .debug_info    0x0000000000024dbb      0xdaf libcom32.a(getcwd.o)
 .debug_info    0x0000000000025b6a     0x1383 libcom32.a(dmi.o)
 .debug_info    0x0000000000026eed       0x8e libcom32.a(sem_asm.o)
 .debug_info    0x0000000000026f7b      0x574 libcom32.a(semaphore.o)
 .debug_info    0x00000000000274ef      0xaf0 libcom32.a(schedule.o)
 .debug_info    0x0000000000027fdf      0x2a0 libcom32.a(root_thread.o)
 .debug_info    0x000000000002827f       0x91 libcom32.a(thread_asm.o)
 .debug_info    0x0000000000028310      0x933 libcom32.a(exit_thread.o)
 .debug_info    0x0000000000028c43       0xf6 /home/wrsadmin/github/syslinux-6.03/bios/com32/lib/libcom32core.a(memcpy.o)
 .debug_info    0x0000000000028d39       0xd9 /home/wrsadmin/github/syslinux-6.03/bios/com32/lib/libcom32core.a(memset.o)
 .debug_info    0x0000000000028e12       0xc5 /home/wrsadmin/github/syslinux-6.03/bios/com32/lib/libcom32core.a(memcmp.o)
 .debug_info    0x0000000000028ed7       0xee /home/wrsadmin/github/syslinux-6.03/bios/com32/lib/libcom32core.a(printf.o)
 .debug_info    0x0000000000028fc5       0xde /home/wrsadmin/github/syslinux-6.03/bios/com32/lib/libcom32core.a(strncmp.o)
 .debug_info    0x00000000000290a3      0x1a5 /home/wrsadmin/github/syslinux-6.03/bios/com32/lib/libcom32core.a(vfprintf.o)
 .debug_info    0x0000000000029248       0x82 /home/wrsadmin/github/syslinux-6.03/bios/com32/lib/libcom32core.a(strlen.o)
 .debug_info    0x00000000000292ca      0x4bb /home/wrsadmin/github/syslinux-6.03/bios/com32/lib/libcom32core.a(vsnprintf.o)
 .debug_info    0x0000000000029785      0x101 /home/wrsadmin/github/syslinux-6.03/bios/com32/lib/libcom32core.a(snprintf.o)
 .debug_info    0x0000000000029886       0xa2 /home/wrsadmin/github/syslinux-6.03/bios/com32/lib/libcom32core.a(stpcpy.o)
 .debug_info    0x0000000000029928       0xc6 /home/wrsadmin/github/syslinux-6.03/bios/com32/lib/libcom32core.a(strcmp.o)
 .debug_info    0x00000000000299ee       0xaa /home/wrsadmin/github/syslinux-6.03/bios/com32/lib/libcom32core.a(strdup.o)
 .debug_info    0x0000000000029a98       0xa4 /home/wrsadmin/github/syslinux-6.03/bios/com32/lib/libcom32core.a(strcpy.o)
 .debug_info    0x0000000000029b3c       0xbe /home/wrsadmin/github/syslinux-6.03/bios/com32/lib/libcom32core.a(strncpy.o)
 .debug_info    0x0000000000029bfa       0x95 /home/wrsadmin/github/syslinux-6.03/bios/com32/lib/libcom32core.a(setjmp.o)
 .debug_info    0x0000000000029c8f      0x187 /home/wrsadmin/github/syslinux-6.03/bios/com32/lib/libcom32core.a(fopen.o)
 .debug_info    0x0000000000029e16      0x1aa /home/wrsadmin/github/syslinux-6.03/bios/com32/lib/libcom32core.a(fread.o)
 .debug_info    0x0000000000029fc0       0xda /home/wrsadmin/github/syslinux-6.03/bios/com32/lib/libcom32core.a(fread2.o)
 .debug_info    0x000000000002a09a       0xd8 /home/wrsadmin/github/syslinux-6.03/bios/com32/lib/libcom32core.a(puts.o)
 .debug_info    0x000000000002a172      0x102 /home/wrsadmin/github/syslinux-6.03/bios/com32/lib/libcom32core.a(strtoul.o)
 .debug_info    0x000000000002a274      0x1db /home/wrsadmin/github/syslinux-6.03/bios/com32/lib/libcom32core.a(strntoumax.o)
 .debug_info    0x000000000002a44f      0x19d /home/wrsadmin/github/syslinux-6.03/bios/com32/lib/libcom32core.a(strcasecmp.o)
 .debug_info    0x000000000002a5ec      0x14a /home/wrsadmin/github/syslinux-6.03/bios/com32/lib/libcom32core.a(sprintf.o)
 .debug_info    0x000000000002a736       0xcf /home/wrsadmin/github/syslinux-6.03/bios/com32/lib/libcom32core.a(strlcat.o)
 .debug_info    0x000000000002a805       0x81 /home/wrsadmin/github/syslinux-6.03/bios/com32/lib/libcom32core.a(strchr.o)
 .debug_info    0x000000000002a886       0xcd /home/wrsadmin/github/syslinux-6.03/bios/com32/lib/libcom32core.a(strlcpy.o)
 .debug_info    0x000000000002a953      0x1b7 /home/wrsadmin/github/syslinux-6.03/bios/com32/lib/libcom32core.a(strncasecmp.o)
 .debug_info    0x000000000002ab0a       0x99 /home/wrsadmin/github/syslinux-6.03/bios/com32/lib/libcom32core.a(ctypes.o)
 .debug_info    0x000000000002aba3       0xb6 /home/wrsadmin/github/syslinux-6.03/bios/com32/lib/libcom32core.a(fputs.o)
 .debug_info    0x000000000002ac59       0xdf /home/wrsadmin/github/syslinux-6.03/bios/com32/lib/libcom32core.a(fwrite2.o)
 .debug_info    0x000000000002ad38      0x1ba /home/wrsadmin/github/syslinux-6.03/bios/com32/lib/libcom32core.a(fwrite.o)
 .debug_info    0x000000000002aef2      0x116 /home/wrsadmin/github/syslinux-6.03/bios/com32/lib/libcom32core.a(fgetc.o)
 .debug_info    0x000000000002b008      0x137 /home/wrsadmin/github/syslinux-6.03/bios/com32/lib/libcom32core.a(fclose.o)
 .debug_info    0x000000000002b13f      0x58a /home/wrsadmin/github/syslinux-6.03/bios/com32/lib/libcom32core.a(lmalloc.o)
 .debug_info    0x000000000002b6c9      0x78d /home/wrsadmin/github/syslinux-6.03/bios/com32/lib/libcom32core.a(err_read.o)
 .debug_info    0x000000000002be56      0x78d /home/wrsadmin/github/syslinux-6.03/bios/com32/lib/libcom32core.a(err_write.o)
 .debug_info    0x000000000002c5e3      0x78d /home/wrsadmin/github/syslinux-6.03/bios/com32/lib/libcom32core.a(null_read.o)
 .debug_info    0x000000000002cd70      0xa5e /home/wrsadmin/github/syslinux-6.03/bios/com32/lib/libcom32core.a(stdcon_write.o)
 .debug_info    0x000000000002d7ce      0x303 /home/wrsadmin/github/syslinux-6.03/bios/com32/lib/libcom32core.a(memscan.o)
 .debug_info    0x000000000002dad1       0x90 /home/wrsadmin/github/syslinux-6.03/bios/com32/lib/libcom32core.a(strrchr.o)
 .debug_info    0x000000000002db61       0xbf /home/wrsadmin/github/syslinux-6.03/bios/com32/lib/libcom32core.a(strcat.o)
 .debug_info    0x000000000002dc20       0x9a /home/wrsadmin/github/syslinux-6.03/bios/com32/lib/libcom32core.a(__ashldi3.o)
 .debug_info    0x000000000002dcba       0xc6 /home/wrsadmin/github/syslinux-6.03/bios/com32/lib/libcom32core.a(__udivdi3.o)
 .debug_info    0x000000000002dd80       0x99 /home/wrsadmin/github/syslinux-6.03/bios/com32/lib/libcom32core.a(__negdi2.o)
 .debug_info    0x000000000002de19       0x9a /home/wrsadmin/github/syslinux-6.03/bios/com32/lib/libcom32core.a(__ashrdi3.o)
 .debug_info    0x000000000002deb3       0x9a /home/wrsadmin/github/syslinux-6.03/bios/com32/lib/libcom32core.a(__lshrdi3.o)
 .debug_info    0x000000000002df4d       0x99 /home/wrsadmin/github/syslinux-6.03/bios/com32/lib/libcom32core.a(__muldi3.o)
 .debug_info    0x000000000002dfe6       0xf1 /home/wrsadmin/github/syslinux-6.03/bios/com32/lib/libcom32core.a(__udivmoddi4.o)
 .debug_info    0x000000000002e0d7       0xd2 /home/wrsadmin/github/syslinux-6.03/bios/com32/lib/libcom32core.a(__umoddi3.o)
 .debug_info    0x000000000002e1a9       0xe6 /home/wrsadmin/github/syslinux-6.03/bios/com32/lib/libcom32core.a(__divdi3.o)
 .debug_info    0x000000000002e28f       0xf0 /home/wrsadmin/github/syslinux-6.03/bios/com32/lib/libcom32core.a(__moddi3.o)
 .debug_info    0x000000000002e37f       0xc4 /home/wrsadmin/github/syslinux-6.03/bios/com32/lib/libcom32core.a(debug.o)
 .debug_info    0x000000000002e443      0x2f5 /home/wrsadmin/github/syslinux-6.03/bios/com32/lib/libcom32core.a(intcall.o)
 .debug_info    0x000000000002e738      0x348 /home/wrsadmin/github/syslinux-6.03/bios/com32/lib/libcom32core.a(farcall.o)
 .debug_info    0x000000000002ea80      0x305 /home/wrsadmin/github/syslinux-6.03/bios/com32/lib/libcom32core.a(cfarcall.o)
 .debug_info    0x000000000002ed85      0x2bb /home/wrsadmin/github/syslinux-6.03/bios/com32/lib/libcom32core.a(zeroregs.o)
 .debug_info    0x000000000002f040      0x3ea /home/wrsadmin/github/syslinux-6.03/bios/com32/lib/libcom32core.a(argv.o)
 .debug_info    0x000000000002f42a      0x1a4 /home/wrsadmin/github/syslinux-6.03/bios/com32/lib/libcom32core.a(sleep.o)
 .debug_info    0x000000000002f5ce      0x314 /home/wrsadmin/github/syslinux-6.03/bios/com32/lib/libcom32core.a(fileinfo.o)
 .debug_info    0x000000000002f8e2      0x835 /home/wrsadmin/github/syslinux-6.03/bios/com32/lib/libcom32core.a(opendev.o)
 .debug_info    0x0000000000030117      0x79e /home/wrsadmin/github/syslinux-6.03/bios/com32/lib/libcom32core.a(read.o)
 .debug_info    0x00000000000308b5      0x79e /home/wrsadmin/github/syslinux-6.03/bios/com32/lib/libcom32core.a(write.o)
 .debug_info    0x0000000000031053      0x37e /home/wrsadmin/github/syslinux-6.03/bios/com32/lib/libcom32core.a(ftell.o)
 .debug_info    0x00000000000313d1      0x79e /home/wrsadmin/github/syslinux-6.03/bios/com32/lib/libcom32core.a(close.o)
 .debug_info    0x0000000000031b6f     0x111e /home/wrsadmin/github/syslinux-6.03/bios/com32/lib/libcom32core.a(open.o)
 .debug_info    0x0000000000032c8d      0x86c /home/wrsadmin/github/syslinux-6.03/bios/com32/lib/libcom32core.a(fileread.o)
 .debug_info    0x00000000000334f9      0xfbf /home/wrsadmin/github/syslinux-6.03/bios/com32/lib/libcom32core.a(fileclose.o)
 .debug_info    0x00000000000344b8      0x808 /home/wrsadmin/github/syslinux-6.03/bios/com32/lib/libcom32core.a(openmem.o)
 .debug_info    0x0000000000034cc0      0x7a0 /home/wrsadmin/github/syslinux-6.03/bios/com32/lib/libcom32core.a(isatty.o)
 .debug_info    0x0000000000035460      0x3a9 /home/wrsadmin/github/syslinux-6.03/bios/com32/lib/libcom32core.a(fstat.o)
 .debug_info    0x0000000000035809       0x2f /home/wrsadmin/github/syslinux-6.03/bios/com32/lib/libcom32core.a(dprintf.o)
 .debug_info    0x0000000000035838       0x99 /home/wrsadmin/github/syslinux-6.03/bios/com32/lib/libcom32core.a(vdprintf.o)
 .debug_info    0x00000000000358d1      0x71d /home/wrsadmin/github/syslinux-6.03/bios/com32/lib/libcom32core.a(idle.o)
 .debug_info    0x0000000000035fee      0x559 /home/wrsadmin/github/syslinux-6.03/bios/com32/lib/libcom32core.a(exit.o)
 .debug_info    0x0000000000036547     0x23a3 /home/wrsadmin/github/syslinux-6.03/bios/com32/lib/libcom32core.a(common.o)
 .debug_info    0x00000000000388ea     0x12f2 /home/wrsadmin/github/syslinux-6.03/bios/com32/lib/libcom32core.a(elf_module.o)
 .debug_info    0x0000000000039bdc      0x5c3 /home/wrsadmin/github/syslinux-6.03/bios/com32/lib/libcom32core.a(elfutils.o)
 .debug_info    0x000000000003a19f      0x6cb /home/wrsadmin/github/syslinux-6.03/bios/com32/lib/libcom32core.a(exec.o)
 .debug_info    0x000000000003a86a     0x1530 /home/wrsadmin/github/syslinux-6.03/bios/com32/lib/libcom32core.a(elf_module.o)
 .debug_info    0x000000000003bd9a      0xfba libisolinux.a(rawcon.o)
 .debug_info    0x000000000003cd54     0x104f libisolinux.a(localboot.o)
 .debug_info    0x000000000003dda3     0x1412 libisolinux.a(isolinux-c.o)

.debug_abbrev   0x0000000000000000     0xb615
 .debug_abbrev  0x0000000000000000       0x1a isolinux.o
 .debug_abbrev  0x000000000000001a      0x3b1 libcom32.a(graphics.o)
 .debug_abbrev  0x00000000000003cb      0x1cc libcom32.a(writehex.o)
 .debug_abbrev  0x0000000000000597      0x3d6 libcom32.a(conio.o)
 .debug_abbrev  0x000000000000096d      0x1cf libcom32.a(writestr.o)
 .debug_abbrev  0x0000000000000b3c      0x227 libcom32.a(init.o)
 .debug_abbrev  0x0000000000000d63      0x14b libcom32.a(rllpack.o)
 .debug_abbrev  0x0000000000000eae      0x355 libcom32.a(iso9660.o)
 .debug_abbrev  0x0000000000001203      0x245 libcom32.a(readdir.o)
 .debug_abbrev  0x0000000000001448      0x197 libcom32.a(mangle.o)
 .debug_abbrev  0x00000000000015df      0x1e6 libcom32.a(searchconfig.o)
 .debug_abbrev  0x00000000000017c5      0x186 libcom32.a(close.o)
 .debug_abbrev  0x000000000000194b      0x179 libcom32.a(nonextextent.o)
 .debug_abbrev  0x0000000000001ac4      0x26c libcom32.a(getfssec.o)
 .debug_abbrev  0x0000000000001d30      0x21e libcom32.a(cache.o)
 .debug_abbrev  0x0000000000001f4e      0x207 libcom32.a(diskio.o)
 .debug_abbrev  0x0000000000002155      0x338 libcom32.a(diskio_bios.o)
 .debug_abbrev  0x000000000000248d      0x41b libcom32.a(fs.o)
 .debug_abbrev  0x00000000000028a8      0x305 libcom32.a(chdir.o)
 .debug_abbrev  0x0000000000002bad      0x1f4 libcom32.a(hello.o)
 .debug_abbrev  0x0000000000002da1       0x35 libcom32.a(errno.o)
 .debug_abbrev  0x0000000000002dd6      0x12f libcom32.a(cleanup.o)
 .debug_abbrev  0x0000000000002f05      0x14e libcom32.a(pmapi.o)
 .debug_abbrev  0x0000000000003053      0x2d4 libcom32.a(font.o)
 .debug_abbrev  0x0000000000003327      0x35b libcom32.a(load_env32.o)
 .debug_abbrev  0x0000000000003682      0x553 libcom32.a(bios.o)
 .debug_abbrev  0x0000000000003bd5      0x2e2 libcom32.a(serirq.o)
 .debug_abbrev  0x0000000000003eb7      0x16e libcom32.a(init.o)
 .debug_abbrev  0x0000000000004025      0x1ca libcom32.a(idle.o)
 .debug_abbrev  0x00000000000041ef      0x1cd libcom32.a(call16.o)
 .debug_abbrev  0x00000000000043bc       0x14 libcom32.a(lzo1x_f2.o)
 .debug_abbrev  0x00000000000043d0      0x258 libcom32.a(sysappend.o)
 .debug_abbrev  0x0000000000004628      0x21e libcom32.a(path.o)
 .debug_abbrev  0x0000000000004846      0x2a8 libcom32.a(malloc.o)
 .debug_abbrev  0x0000000000004aee      0x266 libcom32.a(free.o)
 .debug_abbrev  0x0000000000004d54      0x167 libcom32.a(kaboom.o)
 .debug_abbrev  0x0000000000004ebb      0x350 libcom32.a(susp_rr.o)
 .debug_abbrev  0x000000000000520b      0x1bd libcom32.a(getcwd.o)
 .debug_abbrev  0x00000000000053c8      0x397 libcom32.a(dmi.o)
 .debug_abbrev  0x000000000000575f       0x14 libcom32.a(sem_asm.o)
 .debug_abbrev  0x0000000000005773      0x225 libcom32.a(semaphore.o)
 .debug_abbrev  0x0000000000005998      0x262 libcom32.a(schedule.o)
 .debug_abbrev  0x0000000000005bfa       0xb2 libcom32.a(root_thread.o)
 .debug_abbrev  0x0000000000005cac       0x14 libcom32.a(thread_asm.o)
 .debug_abbrev  0x0000000000005cc0      0x186 libcom32.a(exit_thread.o)
 .debug_abbrev  0x0000000000005e46       0x9a /home/wrsadmin/github/syslinux-6.03/bios/com32/lib/libcom32core.a(memcpy.o)
 .debug_abbrev  0x0000000000005ee0       0x7f /home/wrsadmin/github/syslinux-6.03/bios/com32/lib/libcom32core.a(memset.o)
 .debug_abbrev  0x0000000000005f5f       0x93 /home/wrsadmin/github/syslinux-6.03/bios/com32/lib/libcom32core.a(memcmp.o)
 .debug_abbrev  0x0000000000005ff2       0xcf /home/wrsadmin/github/syslinux-6.03/bios/com32/lib/libcom32core.a(printf.o)
 .debug_abbrev  0x00000000000060c1       0x8e /home/wrsadmin/github/syslinux-6.03/bios/com32/lib/libcom32core.a(strncmp.o)
 .debug_abbrev  0x000000000000614f      0x109 /home/wrsadmin/github/syslinux-6.03/bios/com32/lib/libcom32core.a(vfprintf.o)
 .debug_abbrev  0x0000000000006258       0x74 /home/wrsadmin/github/syslinux-6.03/bios/com32/lib/libcom32core.a(strlen.o)
 .debug_abbrev  0x00000000000062cc      0x1b4 /home/wrsadmin/github/syslinux-6.03/bios/com32/lib/libcom32core.a(vsnprintf.o)
 .debug_abbrev  0x0000000000006480       0xd5 /home/wrsadmin/github/syslinux-6.03/bios/com32/lib/libcom32core.a(snprintf.o)
 .debug_abbrev  0x0000000000006555       0x67 /home/wrsadmin/github/syslinux-6.03/bios/com32/lib/libcom32core.a(stpcpy.o)
 .debug_abbrev  0x00000000000065bc       0x81 /home/wrsadmin/github/syslinux-6.03/bios/com32/lib/libcom32core.a(strcmp.o)
 .debug_abbrev  0x000000000000663d       0xa9 /home/wrsadmin/github/syslinux-6.03/bios/com32/lib/libcom32core.a(strdup.o)
 .debug_abbrev  0x00000000000066e6       0x67 /home/wrsadmin/github/syslinux-6.03/bios/com32/lib/libcom32core.a(strcpy.o)
 .debug_abbrev  0x000000000000674d       0x83 /home/wrsadmin/github/syslinux-6.03/bios/com32/lib/libcom32core.a(strncpy.o)
 .debug_abbrev  0x00000000000067d0       0x14 /home/wrsadmin/github/syslinux-6.03/bios/com32/lib/libcom32core.a(setjmp.o)
 .debug_abbrev  0x00000000000067e4      0x112 /home/wrsadmin/github/syslinux-6.03/bios/com32/lib/libcom32core.a(fopen.o)
 .debug_abbrev  0x00000000000068f6      0x117 /home/wrsadmin/github/syslinux-6.03/bios/com32/lib/libcom32core.a(fread.o)
 .debug_abbrev  0x0000000000006a0d       0xb4 /home/wrsadmin/github/syslinux-6.03/bios/com32/lib/libcom32core.a(fread2.o)
 .debug_abbrev  0x0000000000006ac1       0xae /home/wrsadmin/github/syslinux-6.03/bios/com32/lib/libcom32core.a(puts.o)
 .debug_abbrev  0x0000000000006b6f       0x98 /home/wrsadmin/github/syslinux-6.03/bios/com32/lib/libcom32core.a(strtoul.o)
 .debug_abbrev  0x0000000000006c07      0x142 /home/wrsadmin/github/syslinux-6.03/bios/com32/lib/libcom32core.a(strntoumax.o)
 .debug_abbrev  0x0000000000006d49      0x119 /home/wrsadmin/github/syslinux-6.03/bios/com32/lib/libcom32core.a(strcasecmp.o)
 .debug_abbrev  0x0000000000006e62       0xd7 /home/wrsadmin/github/syslinux-6.03/bios/com32/lib/libcom32core.a(sprintf.o)
 .debug_abbrev  0x0000000000006f39       0x92 /home/wrsadmin/github/syslinux-6.03/bios/com32/lib/libcom32core.a(strlcat.o)
 .debug_abbrev  0x0000000000006fcb       0x72 /home/wrsadmin/github/syslinux-6.03/bios/com32/lib/libcom32core.a(strchr.o)
 .debug_abbrev  0x000000000000703d       0xa1 /home/wrsadmin/github/syslinux-6.03/bios/com32/lib/libcom32core.a(strlcpy.o)
 .debug_abbrev  0x00000000000070de      0x117 /home/wrsadmin/github/syslinux-6.03/bios/com32/lib/libcom32core.a(strncasecmp.o)
 .debug_abbrev  0x00000000000071f5       0x64 /home/wrsadmin/github/syslinux-6.03/bios/com32/lib/libcom32core.a(ctypes.o)
 .debug_abbrev  0x0000000000007259       0xb0 /home/wrsadmin/github/syslinux-6.03/bios/com32/lib/libcom32core.a(fputs.o)
 .debug_abbrev  0x0000000000007309       0xb2 /home/wrsadmin/github/syslinux-6.03/bios/com32/lib/libcom32core.a(fwrite2.o)
 .debug_abbrev  0x00000000000073bb      0x11c /home/wrsadmin/github/syslinux-6.03/bios/com32/lib/libcom32core.a(fwrite.o)
 .debug_abbrev  0x00000000000074d7       0xba /home/wrsadmin/github/syslinux-6.03/bios/com32/lib/libcom32core.a(fgetc.o)
 .debug_abbrev  0x0000000000007591       0xe3 /home/wrsadmin/github/syslinux-6.03/bios/com32/lib/libcom32core.a(fclose.o)
 .debug_abbrev  0x0000000000007674      0x185 /home/wrsadmin/github/syslinux-6.03/bios/com32/lib/libcom32core.a(lmalloc.o)
 .debug_abbrev  0x00000000000077f9      0x171 /home/wrsadmin/github/syslinux-6.03/bios/com32/lib/libcom32core.a(err_read.o)
 .debug_abbrev  0x000000000000796a      0x171 /home/wrsadmin/github/syslinux-6.03/bios/com32/lib/libcom32core.a(err_write.o)
 .debug_abbrev  0x0000000000007adb      0x171 /home/wrsadmin/github/syslinux-6.03/bios/com32/lib/libcom32core.a(null_read.o)
 .debug_abbrev  0x0000000000007c4c      0x1e3 /home/wrsadmin/github/syslinux-6.03/bios/com32/lib/libcom32core.a(stdcon_write.o)
 .debug_abbrev  0x0000000000007e2f      0x19a /home/wrsadmin/github/syslinux-6.03/bios/com32/lib/libcom32core.a(memscan.o)
 .debug_abbrev  0x0000000000007fc9       0x81 /home/wrsadmin/github/syslinux-6.03/bios/com32/lib/libcom32core.a(strrchr.o)
 .debug_abbrev  0x000000000000804a       0x8d /home/wrsadmin/github/syslinux-6.03/bios/com32/lib/libcom32core.a(strcat.o)
 .debug_abbrev  0x00000000000080d7       0x14 /home/wrsadmin/github/syslinux-6.03/bios/com32/lib/libcom32core.a(__ashldi3.o)
 .debug_abbrev  0x00000000000080eb       0x97 /home/wrsadmin/github/syslinux-6.03/bios/com32/lib/libcom32core.a(__udivdi3.o)
 .debug_abbrev  0x0000000000008182       0x14 /home/wrsadmin/github/syslinux-6.03/bios/com32/lib/libcom32core.a(__negdi2.o)
 .debug_abbrev  0x0000000000008196       0x14 /home/wrsadmin/github/syslinux-6.03/bios/com32/lib/libcom32core.a(__ashrdi3.o)
 .debug_abbrev  0x00000000000081aa       0x14 /home/wrsadmin/github/syslinux-6.03/bios/com32/lib/libcom32core.a(__lshrdi3.o)
 .debug_abbrev  0x00000000000081be       0x14 /home/wrsadmin/github/syslinux-6.03/bios/com32/lib/libcom32core.a(__muldi3.o)
 .debug_abbrev  0x00000000000081d2       0xa5 /home/wrsadmin/github/syslinux-6.03/bios/com32/lib/libcom32core.a(__udivmoddi4.o)
 .debug_abbrev  0x0000000000008277       0xa6 /home/wrsadmin/github/syslinux-6.03/bios/com32/lib/libcom32core.a(__umoddi3.o)
 .debug_abbrev  0x000000000000831d       0x9a /home/wrsadmin/github/syslinux-6.03/bios/com32/lib/libcom32core.a(__divdi3.o)
 .debug_abbrev  0x00000000000083b7       0x9a /home/wrsadmin/github/syslinux-6.03/bios/com32/lib/libcom32core.a(__moddi3.o)
 .debug_abbrev  0x0000000000008451       0xb0 /home/wrsadmin/github/syslinux-6.03/bios/com32/lib/libcom32core.a(debug.o)
 .debug_abbrev  0x0000000000008501      0x113 /home/wrsadmin/github/syslinux-6.03/bios/com32/lib/libcom32core.a(intcall.o)
 .debug_abbrev  0x0000000000008614      0x17f /home/wrsadmin/github/syslinux-6.03/bios/com32/lib/libcom32core.a(farcall.o)
 .debug_abbrev  0x0000000000008793      0x133 /home/wrsadmin/github/syslinux-6.03/bios/com32/lib/libcom32core.a(cfarcall.o)
 .debug_abbrev  0x00000000000088c6       0xf5 /home/wrsadmin/github/syslinux-6.03/bios/com32/lib/libcom32core.a(zeroregs.o)
 .debug_abbrev  0x00000000000089bb      0x19d /home/wrsadmin/github/syslinux-6.03/bios/com32/lib/libcom32core.a(argv.o)
 .debug_abbrev  0x0000000000008b58      0x108 /home/wrsadmin/github/syslinux-6.03/bios/com32/lib/libcom32core.a(sleep.o)
 .debug_abbrev  0x0000000000008c60       0xee /home/wrsadmin/github/syslinux-6.03/bios/com32/lib/libcom32core.a(fileinfo.o)
 .debug_abbrev  0x0000000000008d4e      0x1a8 /home/wrsadmin/github/syslinux-6.03/bios/com32/lib/libcom32core.a(opendev.o)
 .debug_abbrev  0x0000000000008ef6      0x17b /home/wrsadmin/github/syslinux-6.03/bios/com32/lib/libcom32core.a(read.o)
 .debug_abbrev  0x0000000000009071      0x17b /home/wrsadmin/github/syslinux-6.03/bios/com32/lib/libcom32core.a(write.o)
 .debug_abbrev  0x00000000000091ec      0x153 /home/wrsadmin/github/syslinux-6.03/bios/com32/lib/libcom32core.a(ftell.o)
 .debug_abbrev  0x000000000000933f      0x177 /home/wrsadmin/github/syslinux-6.03/bios/com32/lib/libcom32core.a(close.o)
 .debug_abbrev  0x00000000000094b6      0x1eb /home/wrsadmin/github/syslinux-6.03/bios/com32/lib/libcom32core.a(open.o)
 .debug_abbrev  0x00000000000096a1      0x1c4 /home/wrsadmin/github/syslinux-6.03/bios/com32/lib/libcom32core.a(fileread.o)
 .debug_abbrev  0x0000000000009865      0x195 /home/wrsadmin/github/syslinux-6.03/bios/com32/lib/libcom32core.a(fileclose.o)
 .debug_abbrev  0x00000000000099fa      0x19d /home/wrsadmin/github/syslinux-6.03/bios/com32/lib/libcom32core.a(openmem.o)
 .debug_abbrev  0x0000000000009b97      0x157 /home/wrsadmin/github/syslinux-6.03/bios/com32/lib/libcom32core.a(isatty.o)
 .debug_abbrev  0x0000000000009cee      0x12e /home/wrsadmin/github/syslinux-6.03/bios/com32/lib/libcom32core.a(fstat.o)
 .debug_abbrev  0x0000000000009e1c       0x19 /home/wrsadmin/github/syslinux-6.03/bios/com32/lib/libcom32core.a(dprintf.o)
 .debug_abbrev  0x0000000000009e35       0x3e /home/wrsadmin/github/syslinux-6.03/bios/com32/lib/libcom32core.a(vdprintf.o)
 .debug_abbrev  0x0000000000009e73      0x147 /home/wrsadmin/github/syslinux-6.03/bios/com32/lib/libcom32core.a(idle.o)
 .debug_abbrev  0x0000000000009fba      0x1a0 /home/wrsadmin/github/syslinux-6.03/bios/com32/lib/libcom32core.a(exit.o)
 .debug_abbrev  0x000000000000a15a      0x444 /home/wrsadmin/github/syslinux-6.03/bios/com32/lib/libcom32core.a(common.o)
 .debug_abbrev  0x000000000000a59e      0x30a /home/wrsadmin/github/syslinux-6.03/bios/com32/lib/libcom32core.a(elf_module.o)
 .debug_abbrev  0x000000000000a8a8      0x1b6 /home/wrsadmin/github/syslinux-6.03/bios/com32/lib/libcom32core.a(elfutils.o)
 .debug_abbrev  0x000000000000aa5e      0x24c /home/wrsadmin/github/syslinux-6.03/bios/com32/lib/libcom32core.a(exec.o)
 .debug_abbrev  0x000000000000acaa      0x340 /home/wrsadmin/github/syslinux-6.03/bios/com32/lib/libcom32core.a(elf_module.o)
 .debug_abbrev  0x000000000000afea      0x243 libisolinux.a(rawcon.o)
 .debug_abbrev  0x000000000000b22d      0x262 libisolinux.a(localboot.o)
 .debug_abbrev  0x000000000000b48f      0x186 libisolinux.a(isolinux-c.o)

.debug_line     0x0000000000000000     0xf7c2
 .debug_line    0x0000000000000000      0xace isolinux.o
 .debug_line    0x0000000000000ace      0x3b6 libcom32.a(graphics.o)
 .debug_line    0x0000000000000e84      0x1d9 libcom32.a(writehex.o)
 .debug_line    0x000000000000105d      0x411 libcom32.a(conio.o)
 .debug_line    0x000000000000146e      0x1e8 libcom32.a(writestr.o)
 .debug_line    0x0000000000001656      0x232 libcom32.a(init.o)
 .debug_line    0x0000000000001888      0x168 libcom32.a(rllpack.o)
 .debug_line    0x00000000000019f0      0x3c9 libcom32.a(iso9660.o)
 .debug_line    0x0000000000001db9      0x28c libcom32.a(readdir.o)
 .debug_line    0x0000000000002045      0x289 libcom32.a(mangle.o)
 .debug_line    0x00000000000022ce      0x2c8 libcom32.a(searchconfig.o)
 .debug_line    0x0000000000002596      0x26d libcom32.a(close.o)
 .debug_line    0x0000000000002803      0x26d libcom32.a(nonextextent.o)
 .debug_line    0x0000000000002a70      0x2fc libcom32.a(getfssec.o)
 .debug_line    0x0000000000002d6c      0x301 libcom32.a(cache.o)
 .debug_line    0x000000000000306d      0x28f libcom32.a(diskio.o)
 .debug_line    0x00000000000032fc      0x3f4 libcom32.a(diskio_bios.o)
 .debug_line    0x00000000000036f0      0x47a libcom32.a(fs.o)
 .debug_line    0x0000000000003b6a      0x325 libcom32.a(chdir.o)
 .debug_line    0x0000000000003e8f      0x22e libcom32.a(hello.o)
 .debug_line    0x00000000000040bd       0x8e libcom32.a(errno.o)
 .debug_line    0x000000000000414b      0x1d3 libcom32.a(cleanup.o)
 .debug_line    0x000000000000431e      0x264 libcom32.a(pmapi.o)
 .debug_line    0x0000000000004582      0x320 libcom32.a(font.o)
 .debug_line    0x00000000000048a2      0x4a8 libcom32.a(load_env32.o)
 .debug_line    0x0000000000004d4a      0x63b libcom32.a(bios.o)
 .debug_line    0x0000000000005385      0x35c libcom32.a(serirq.o)
 .debug_line    0x00000000000056e1      0x27c libcom32.a(init.o)
 .debug_line    0x000000000000595d      0x259 libcom32.a(idle.o)
 .debug_line    0x0000000000005bb6      0x1dd libcom32.a(call16.o)
 .debug_line    0x0000000000005d93      0x164 libcom32.a(lzo1x_f2.o)
 .debug_line    0x0000000000005ef7      0x2cc libcom32.a(sysappend.o)
 .debug_line    0x00000000000061c3      0x2a2 libcom32.a(path.o)
 .debug_line    0x0000000000006465      0x2cc libcom32.a(malloc.o)
 .debug_line    0x0000000000006731      0x274 libcom32.a(free.o)
 .debug_line    0x00000000000069a5      0x1ca libcom32.a(kaboom.o)
 .debug_line    0x0000000000006b6f      0x416 libcom32.a(susp_rr.o)
 .debug_line    0x0000000000006f85      0x27c libcom32.a(getcwd.o)
 .debug_line    0x0000000000007201      0x39b libcom32.a(dmi.o)
 .debug_line    0x000000000000759c       0x6d libcom32.a(sem_asm.o)
 .debug_line    0x0000000000007609      0x25c libcom32.a(semaphore.o)
 .debug_line    0x0000000000007865      0x2c4 libcom32.a(schedule.o)
 .debug_line    0x0000000000007b29       0xec libcom32.a(root_thread.o)
 .debug_line    0x0000000000007c15       0x81 libcom32.a(thread_asm.o)
 .debug_line    0x0000000000007c96      0x23e libcom32.a(exit_thread.o)
 .debug_line    0x0000000000007ed4       0xb9 /home/wrsadmin/github/syslinux-6.03/bios/com32/lib/libcom32core.a(memcpy.o)
 .debug_line    0x0000000000007f8d       0xb9 /home/wrsadmin/github/syslinux-6.03/bios/com32/lib/libcom32core.a(memset.o)
 .debug_line    0x0000000000008046       0xb7 /home/wrsadmin/github/syslinux-6.03/bios/com32/lib/libcom32core.a(memcmp.o)
 .debug_line    0x00000000000080fd      0x12e /home/wrsadmin/github/syslinux-6.03/bios/com32/lib/libcom32core.a(printf.o)
 .debug_line    0x000000000000822b       0xbf /home/wrsadmin/github/syslinux-6.03/bios/com32/lib/libcom32core.a(strncmp.o)
 .debug_line    0x00000000000082ea       0xf3 /home/wrsadmin/github/syslinux-6.03/bios/com32/lib/libcom32core.a(vfprintf.o)
 .debug_line    0x00000000000083dd       0xb8 /home/wrsadmin/github/syslinux-6.03/bios/com32/lib/libcom32core.a(strlen.o)
 .debug_line    0x0000000000008495      0x358 /home/wrsadmin/github/syslinux-6.03/bios/com32/lib/libcom32core.a(vsnprintf.o)
 .debug_line    0x00000000000087ed      0x132 /home/wrsadmin/github/syslinux-6.03/bios/com32/lib/libcom32core.a(snprintf.o)
 .debug_line    0x000000000000891f       0x6b /home/wrsadmin/github/syslinux-6.03/bios/com32/lib/libcom32core.a(stpcpy.o)
 .debug_line    0x000000000000898a       0x6f /home/wrsadmin/github/syslinux-6.03/bios/com32/lib/libcom32core.a(strcmp.o)
 .debug_line    0x00000000000089f9       0xaf /home/wrsadmin/github/syslinux-6.03/bios/com32/lib/libcom32core.a(strdup.o)
 .debug_line    0x0000000000008aa8       0x72 /home/wrsadmin/github/syslinux-6.03/bios/com32/lib/libcom32core.a(strcpy.o)
 .debug_line    0x0000000000008b1a       0xba /home/wrsadmin/github/syslinux-6.03/bios/com32/lib/libcom32core.a(strncpy.o)
 .debug_line    0x0000000000008bd4       0x7e /home/wrsadmin/github/syslinux-6.03/bios/com32/lib/libcom32core.a(setjmp.o)
 .debug_line    0x0000000000008c52      0x12d /home/wrsadmin/github/syslinux-6.03/bios/com32/lib/libcom32core.a(fopen.o)
 .debug_line    0x0000000000008d7f      0x16e /home/wrsadmin/github/syslinux-6.03/bios/com32/lib/libcom32core.a(fread.o)
 .debug_line    0x0000000000008eed       0xfc /home/wrsadmin/github/syslinux-6.03/bios/com32/lib/libcom32core.a(fread2.o)
 .debug_line    0x0000000000008fe9       0xfa /home/wrsadmin/github/syslinux-6.03/bios/com32/lib/libcom32core.a(puts.o)
 .debug_line    0x00000000000090e3       0xfe /home/wrsadmin/github/syslinux-6.03/bios/com32/lib/libcom32core.a(strtoul.o)
 .debug_line    0x00000000000091e1      0x1b4 /home/wrsadmin/github/syslinux-6.03/bios/com32/lib/libcom32core.a(strntoumax.o)
 .debug_line    0x0000000000009395       0xd9 /home/wrsadmin/github/syslinux-6.03/bios/com32/lib/libcom32core.a(strcasecmp.o)
 .debug_line    0x000000000000946e      0x13d /home/wrsadmin/github/syslinux-6.03/bios/com32/lib/libcom32core.a(sprintf.o)
 .debug_line    0x00000000000095ab       0xc3 /home/wrsadmin/github/syslinux-6.03/bios/com32/lib/libcom32core.a(strlcat.o)
 .debug_line    0x000000000000966e       0x69 /home/wrsadmin/github/syslinux-6.03/bios/com32/lib/libcom32core.a(strchr.o)
 .debug_line    0x00000000000096d7       0xbb /home/wrsadmin/github/syslinux-6.03/bios/com32/lib/libcom32core.a(strlcpy.o)
 .debug_line    0x0000000000009792      0x129 /home/wrsadmin/github/syslinux-6.03/bios/com32/lib/libcom32core.a(strncasecmp.o)
 .debug_line    0x00000000000098bb       0x9b /home/wrsadmin/github/syslinux-6.03/bios/com32/lib/libcom32core.a(ctypes.o)
 .debug_line    0x0000000000009956       0xad /home/wrsadmin/github/syslinux-6.03/bios/com32/lib/libcom32core.a(fputs.o)
 .debug_line    0x0000000000009a03       0xfd /home/wrsadmin/github/syslinux-6.03/bios/com32/lib/libcom32core.a(fwrite2.o)
 .debug_line    0x0000000000009b00      0x16f /home/wrsadmin/github/syslinux-6.03/bios/com32/lib/libcom32core.a(fwrite.o)
 .debug_line    0x0000000000009c6f       0xcb /home/wrsadmin/github/syslinux-6.03/bios/com32/lib/libcom32core.a(fgetc.o)
 .debug_line    0x0000000000009d3a      0x10e /home/wrsadmin/github/syslinux-6.03/bios/com32/lib/libcom32core.a(fclose.o)
 .debug_line    0x0000000000009e48      0x1b3 /home/wrsadmin/github/syslinux-6.03/bios/com32/lib/libcom32core.a(lmalloc.o)
 .debug_line    0x0000000000009ffb      0x201 /home/wrsadmin/github/syslinux-6.03/bios/com32/lib/libcom32core.a(err_read.o)
 .debug_line    0x000000000000a1fc      0x202 /home/wrsadmin/github/syslinux-6.03/bios/com32/lib/libcom32core.a(err_write.o)
 .debug_line    0x000000000000a3fe      0x201 /home/wrsadmin/github/syslinux-6.03/bios/com32/lib/libcom32core.a(null_read.o)
 .debug_line    0x000000000000a5ff      0x267 /home/wrsadmin/github/syslinux-6.03/bios/com32/lib/libcom32core.a(stdcon_write.o)
 .debug_line    0x000000000000a866      0x223 /home/wrsadmin/github/syslinux-6.03/bios/com32/lib/libcom32core.a(memscan.o)
 .debug_line    0x000000000000aa89       0x6a /home/wrsadmin/github/syslinux-6.03/bios/com32/lib/libcom32core.a(strrchr.o)
 .debug_line    0x000000000000aaf3       0xac /home/wrsadmin/github/syslinux-6.03/bios/com32/lib/libcom32core.a(strcat.o)
 .debug_line    0x000000000000ab9f       0x78 /home/wrsadmin/github/syslinux-6.03/bios/com32/lib/libcom32core.a(__ashldi3.o)
 .debug_line    0x000000000000ac17       0xc2 /home/wrsadmin/github/syslinux-6.03/bios/com32/lib/libcom32core.a(__udivdi3.o)
 .debug_line    0x000000000000acd9       0x72 /home/wrsadmin/github/syslinux-6.03/bios/com32/lib/libcom32core.a(__negdi2.o)
 .debug_line    0x000000000000ad4b       0x78 /home/wrsadmin/github/syslinux-6.03/bios/com32/lib/libcom32core.a(__ashrdi3.o)
 .debug_line    0x000000000000adc3       0x78 /home/wrsadmin/github/syslinux-6.03/bios/com32/lib/libcom32core.a(__lshrdi3.o)
 .debug_line    0x000000000000ae3b       0x7b /home/wrsadmin/github/syslinux-6.03/bios/com32/lib/libcom32core.a(__muldi3.o)
 .debug_line    0x000000000000aeb6      0x122 /home/wrsadmin/github/syslinux-6.03/bios/com32/lib/libcom32core.a(__udivmoddi4.o)
 .debug_line    0x000000000000afd8       0xc3 /home/wrsadmin/github/syslinux-6.03/bios/com32/lib/libcom32core.a(__umoddi3.o)
 .debug_line    0x000000000000b09b       0xd1 /home/wrsadmin/github/syslinux-6.03/bios/com32/lib/libcom32core.a(__divdi3.o)
 .debug_line    0x000000000000b16c       0xd2 /home/wrsadmin/github/syslinux-6.03/bios/com32/lib/libcom32core.a(__moddi3.o)
 .debug_line    0x000000000000b23e       0x7f /home/wrsadmin/github/syslinux-6.03/bios/com32/lib/libcom32core.a(debug.o)
 .debug_line    0x000000000000b2bd       0xfc /home/wrsadmin/github/syslinux-6.03/bios/com32/lib/libcom32core.a(intcall.o)
 .debug_line    0x000000000000b3b9      0x108 /home/wrsadmin/github/syslinux-6.03/bios/com32/lib/libcom32core.a(farcall.o)
 .debug_line    0x000000000000b4c1       0xfe /home/wrsadmin/github/syslinux-6.03/bios/com32/lib/libcom32core.a(cfarcall.o)
 .debug_line    0x000000000000b5bf       0xee /home/wrsadmin/github/syslinux-6.03/bios/com32/lib/libcom32core.a(zeroregs.o)
 .debug_line    0x000000000000b6ad      0x1cd /home/wrsadmin/github/syslinux-6.03/bios/com32/lib/libcom32core.a(argv.o)
 .debug_line    0x000000000000b87a      0x19f /home/wrsadmin/github/syslinux-6.03/bios/com32/lib/libcom32core.a(sleep.o)
 .debug_line    0x000000000000ba19      0x1da /home/wrsadmin/github/syslinux-6.03/bios/com32/lib/libcom32core.a(fileinfo.o)
 .debug_line    0x000000000000bbf3      0x261 /home/wrsadmin/github/syslinux-6.03/bios/com32/lib/libcom32core.a(opendev.o)
 .debug_line    0x000000000000be54      0x208 /home/wrsadmin/github/syslinux-6.03/bios/com32/lib/libcom32core.a(read.o)
 .debug_line    0x000000000000c05c      0x209 /home/wrsadmin/github/syslinux-6.03/bios/com32/lib/libcom32core.a(write.o)
 .debug_line    0x000000000000c265      0x1f3 /home/wrsadmin/github/syslinux-6.03/bios/com32/lib/libcom32core.a(ftell.o)
 .debug_line    0x000000000000c458      0x217 /home/wrsadmin/github/syslinux-6.03/bios/com32/lib/libcom32core.a(close.o)
 .debug_line    0x000000000000c66f      0x2e0 /home/wrsadmin/github/syslinux-6.03/bios/com32/lib/libcom32core.a(open.o)
 .debug_line    0x000000000000c94f      0x269 /home/wrsadmin/github/syslinux-6.03/bios/com32/lib/libcom32core.a(fileread.o)
 .debug_line    0x000000000000cbb8      0x2bc /home/wrsadmin/github/syslinux-6.03/bios/com32/lib/libcom32core.a(fileclose.o)
 .debug_line    0x000000000000ce74      0x219 /home/wrsadmin/github/syslinux-6.03/bios/com32/lib/libcom32core.a(openmem.o)
 .debug_line    0x000000000000d08d      0x216 /home/wrsadmin/github/syslinux-6.03/bios/com32/lib/libcom32core.a(isatty.o)
 .debug_line    0x000000000000d2a3      0x20f /home/wrsadmin/github/syslinux-6.03/bios/com32/lib/libcom32core.a(fstat.o)
 .debug_line    0x000000000000d4b2       0x1d /home/wrsadmin/github/syslinux-6.03/bios/com32/lib/libcom32core.a(dprintf.o)
 .debug_line    0x000000000000d4cf       0x62 /home/wrsadmin/github/syslinux-6.03/bios/com32/lib/libcom32core.a(vdprintf.o)
 .debug_line    0x000000000000d531      0x1f0 /home/wrsadmin/github/syslinux-6.03/bios/com32/lib/libcom32core.a(idle.o)
 .debug_line    0x000000000000d721      0x26b /home/wrsadmin/github/syslinux-6.03/bios/com32/lib/libcom32core.a(exit.o)
 .debug_line    0x000000000000d98c      0x619 /home/wrsadmin/github/syslinux-6.03/bios/com32/lib/libcom32core.a(common.o)
 .debug_line    0x000000000000dfa5      0x523 /home/wrsadmin/github/syslinux-6.03/bios/com32/lib/libcom32core.a(elf_module.o)
 .debug_line    0x000000000000e4c8      0x2dc /home/wrsadmin/github/syslinux-6.03/bios/com32/lib/libcom32core.a(elfutils.o)
 .debug_line    0x000000000000e7a4      0x2f4 /home/wrsadmin/github/syslinux-6.03/bios/com32/lib/libcom32core.a(exec.o)
 .debug_line    0x000000000000ea98      0x4c5 /home/wrsadmin/github/syslinux-6.03/bios/com32/lib/libcom32core.a(elf_module.o)
 .debug_line    0x000000000000ef5d      0x2c8 libisolinux.a(rawcon.o)
 .debug_line    0x000000000000f225      0x31f libisolinux.a(localboot.o)
 .debug_line    0x000000000000f544      0x27e libisolinux.a(isolinux-c.o)

.debug_frame    0x0000000000000000     0x3ce4
 .debug_frame   0x0000000000000000        0x4 isolinux.o
 .debug_frame   0x0000000000000004      0x144 libcom32.a(graphics.o)
 .debug_frame   0x0000000000000148       0xac libcom32.a(writehex.o)
 .debug_frame   0x00000000000001f4      0x208 libcom32.a(conio.o)
 .debug_frame   0x00000000000003fc       0x74 libcom32.a(writestr.o)
 .debug_frame   0x0000000000000470       0x78 libcom32.a(init.o)
 .debug_frame   0x00000000000004e8       0x8c libcom32.a(rllpack.o)
 .debug_frame   0x0000000000000574      0x1e0 libcom32.a(iso9660.o)
 .debug_frame   0x0000000000000754       0x78 libcom32.a(readdir.o)
 .debug_frame   0x00000000000007cc       0x40 libcom32.a(mangle.o)
 .debug_frame   0x000000000000080c       0x7c libcom32.a(searchconfig.o)
 .debug_frame   0x0000000000000888       0x40 libcom32.a(close.o)
 .debug_frame   0x00000000000008c8       0x24 libcom32.a(nonextextent.o)
 .debug_frame   0x00000000000008ec       0x70 libcom32.a(getfssec.o)
 .debug_frame   0x000000000000095c      0x110 libcom32.a(cache.o)
 .debug_frame   0x0000000000000a6c       0x7c libcom32.a(diskio.o)
 .debug_frame   0x0000000000000ae8      0x160 libcom32.a(diskio_bios.o)
 .debug_frame   0x0000000000000c48      0x24c libcom32.a(fs.o)
 .debug_frame   0x0000000000000e94      0x124 libcom32.a(chdir.o)
 .debug_frame   0x0000000000000fb8      0x17c libcom32.a(hello.o)
 .debug_frame   0x0000000000001134       0x34 libcom32.a(cleanup.o)
 .debug_frame   0x0000000000001168      0x110 libcom32.a(font.o)
 .debug_frame   0x0000000000001278      0x13c libcom32.a(load_env32.o)
 .debug_frame   0x00000000000013b4      0x3d0 libcom32.a(bios.o)
 .debug_frame   0x0000000000001784      0x1cc libcom32.a(serirq.o)
 .debug_frame   0x0000000000001950       0x34 libcom32.a(init.o)
 .debug_frame   0x0000000000001984       0x60 libcom32.a(idle.o)
 .debug_frame   0x00000000000019e4       0x68 libcom32.a(call16.o)
 .debug_frame   0x0000000000001a4c      0x128 libcom32.a(sysappend.o)
 .debug_frame   0x0000000000001b74       0x50 libcom32.a(path.o)
 .debug_frame   0x0000000000001bc4      0x184 libcom32.a(malloc.o)
 .debug_frame   0x0000000000001d48      0x118 libcom32.a(free.o)
 .debug_frame   0x0000000000001e60       0x3c libcom32.a(kaboom.o)
 .debug_frame   0x0000000000001e9c      0x110 libcom32.a(susp_rr.o)
 .debug_frame   0x0000000000001fac       0x58 libcom32.a(getcwd.o)
 .debug_frame   0x0000000000002004       0xf0 libcom32.a(dmi.o)
 .debug_frame   0x00000000000020f4       0x9c libcom32.a(semaphore.o)
 .debug_frame   0x0000000000002190       0x6c libcom32.a(schedule.o)
 .debug_frame   0x00000000000021fc       0x40 libcom32.a(exit_thread.o)
 .debug_frame   0x000000000000223c       0x40 /home/wrsadmin/github/syslinux-6.03/bios/com32/lib/libcom32core.a(memcpy.o)
 .debug_frame   0x000000000000227c       0x40 /home/wrsadmin/github/syslinux-6.03/bios/com32/lib/libcom32core.a(memset.o)
 .debug_frame   0x00000000000022bc       0x40 /home/wrsadmin/github/syslinux-6.03/bios/com32/lib/libcom32core.a(memcmp.o)
 .debug_frame   0x00000000000022fc       0x40 /home/wrsadmin/github/syslinux-6.03/bios/com32/lib/libcom32core.a(printf.o)
 .debug_frame   0x000000000000233c       0x48 /home/wrsadmin/github/syslinux-6.03/bios/com32/lib/libcom32core.a(strncmp.o)
 .debug_frame   0x0000000000002384       0x64 /home/wrsadmin/github/syslinux-6.03/bios/com32/lib/libcom32core.a(vfprintf.o)
 .debug_frame   0x00000000000023e8       0x24 /home/wrsadmin/github/syslinux-6.03/bios/com32/lib/libcom32core.a(strlen.o)
 .debug_frame   0x000000000000240c       0x98 /home/wrsadmin/github/syslinux-6.03/bios/com32/lib/libcom32core.a(vsnprintf.o)
 .debug_frame   0x00000000000024a4       0x44 /home/wrsadmin/github/syslinux-6.03/bios/com32/lib/libcom32core.a(snprintf.o)
 .debug_frame   0x00000000000024e8       0x24 /home/wrsadmin/github/syslinux-6.03/bios/com32/lib/libcom32core.a(stpcpy.o)
 .debug_frame   0x000000000000250c       0x40 /home/wrsadmin/github/syslinux-6.03/bios/com32/lib/libcom32core.a(strcmp.o)
 .debug_frame   0x000000000000254c       0x58 /home/wrsadmin/github/syslinux-6.03/bios/com32/lib/libcom32core.a(strdup.o)
 .debug_frame   0x00000000000025a4       0x30 /home/wrsadmin/github/syslinux-6.03/bios/com32/lib/libcom32core.a(strcpy.o)
 .debug_frame   0x00000000000025d4       0x38 /home/wrsadmin/github/syslinux-6.03/bios/com32/lib/libcom32core.a(strncpy.o)
 .debug_frame   0x000000000000260c       0x5c /home/wrsadmin/github/syslinux-6.03/bios/com32/lib/libcom32core.a(fopen.o)
 .debug_frame   0x0000000000002668       0x60 /home/wrsadmin/github/syslinux-6.03/bios/com32/lib/libcom32core.a(fread.o)
 .debug_frame   0x00000000000026c8       0x48 /home/wrsadmin/github/syslinux-6.03/bios/com32/lib/libcom32core.a(fread2.o)
 .debug_frame   0x0000000000002710       0x40 /home/wrsadmin/github/syslinux-6.03/bios/com32/lib/libcom32core.a(puts.o)
 .debug_frame   0x0000000000002750       0x44 /home/wrsadmin/github/syslinux-6.03/bios/com32/lib/libcom32core.a(strtoul.o)
 .debug_frame   0x0000000000002794       0x50 /home/wrsadmin/github/syslinux-6.03/bios/com32/lib/libcom32core.a(strntoumax.o)
 .debug_frame   0x00000000000027e4       0x58 /home/wrsadmin/github/syslinux-6.03/bios/com32/lib/libcom32core.a(strcasecmp.o)
 .debug_frame   0x000000000000283c       0x44 /home/wrsadmin/github/syslinux-6.03/bios/com32/lib/libcom32core.a(sprintf.o)
 .debug_frame   0x0000000000002880       0x38 /home/wrsadmin/github/syslinux-6.03/bios/com32/lib/libcom32core.a(strlcat.o)
 .debug_frame   0x00000000000028b8       0x24 /home/wrsadmin/github/syslinux-6.03/bios/com32/lib/libcom32core.a(strchr.o)
 .debug_frame   0x00000000000028dc       0x38 /home/wrsadmin/github/syslinux-6.03/bios/com32/lib/libcom32core.a(strlcpy.o)
 .debug_frame   0x0000000000002914       0x60 /home/wrsadmin/github/syslinux-6.03/bios/com32/lib/libcom32core.a(strncasecmp.o)
 .debug_frame   0x0000000000002974       0x58 /home/wrsadmin/github/syslinux-6.03/bios/com32/lib/libcom32core.a(fputs.o)
 .debug_frame   0x00000000000029cc       0x48 /home/wrsadmin/github/syslinux-6.03/bios/com32/lib/libcom32core.a(fwrite2.o)
 .debug_frame   0x0000000000002a14       0x60 /home/wrsadmin/github/syslinux-6.03/bios/com32/lib/libcom32core.a(fwrite.o)
 .debug_frame   0x0000000000002a74       0x4c /home/wrsadmin/github/syslinux-6.03/bios/com32/lib/libcom32core.a(fgetc.o)
 .debug_frame   0x0000000000002ac0       0x40 /home/wrsadmin/github/syslinux-6.03/bios/com32/lib/libcom32core.a(fclose.o)
 .debug_frame   0x0000000000002b00       0x6c /home/wrsadmin/github/syslinux-6.03/bios/com32/lib/libcom32core.a(lmalloc.o)
 .debug_frame   0x0000000000002b6c       0x34 /home/wrsadmin/github/syslinux-6.03/bios/com32/lib/libcom32core.a(err_read.o)
 .debug_frame   0x0000000000002ba0       0x34 /home/wrsadmin/github/syslinux-6.03/bios/com32/lib/libcom32core.a(err_write.o)
 .debug_frame   0x0000000000002bd4       0x24 /home/wrsadmin/github/syslinux-6.03/bios/com32/lib/libcom32core.a(null_read.o)
 .debug_frame   0x0000000000002bf8       0x68 /home/wrsadmin/github/syslinux-6.03/bios/com32/lib/libcom32core.a(stdcon_write.o)
 .debug_frame   0x0000000000002c60       0xc0 /home/wrsadmin/github/syslinux-6.03/bios/com32/lib/libcom32core.a(memscan.o)
 .debug_frame   0x0000000000002d20       0x30 /home/wrsadmin/github/syslinux-6.03/bios/com32/lib/libcom32core.a(strrchr.o)
 .debug_frame   0x0000000000002d50       0x50 /home/wrsadmin/github/syslinux-6.03/bios/com32/lib/libcom32core.a(strcat.o)
 .debug_frame   0x0000000000002da0       0x4c /home/wrsadmin/github/syslinux-6.03/bios/com32/lib/libcom32core.a(__udivdi3.o)
 .debug_frame   0x0000000000002dec       0x40 /home/wrsadmin/github/syslinux-6.03/bios/com32/lib/libcom32core.a(__udivmoddi4.o)
 .debug_frame   0x0000000000002e2c       0x4c /home/wrsadmin/github/syslinux-6.03/bios/com32/lib/libcom32core.a(__umoddi3.o)
 .debug_frame   0x0000000000002e78       0x50 /home/wrsadmin/github/syslinux-6.03/bios/com32/lib/libcom32core.a(__divdi3.o)
 .debug_frame   0x0000000000002ec8       0x50 /home/wrsadmin/github/syslinux-6.03/bios/com32/lib/libcom32core.a(__moddi3.o)
 .debug_frame   0x0000000000002f18       0x40 /home/wrsadmin/github/syslinux-6.03/bios/com32/lib/libcom32core.a(debug.o)
 .debug_frame   0x0000000000002f58       0x4c /home/wrsadmin/github/syslinux-6.03/bios/com32/lib/libcom32core.a(intcall.o)
 .debug_frame   0x0000000000002fa4       0x60 /home/wrsadmin/github/syslinux-6.03/bios/com32/lib/libcom32core.a(farcall.o)
 .debug_frame   0x0000000000003004       0x4c /home/wrsadmin/github/syslinux-6.03/bios/com32/lib/libcom32core.a(cfarcall.o)
 .debug_frame   0x0000000000003050       0x60 /home/wrsadmin/github/syslinux-6.03/bios/com32/lib/libcom32core.a(argv.o)
 .debug_frame   0x00000000000030b0       0x74 /home/wrsadmin/github/syslinux-6.03/bios/com32/lib/libcom32core.a(sleep.o)
 .debug_frame   0x0000000000003124       0x60 /home/wrsadmin/github/syslinux-6.03/bios/com32/lib/libcom32core.a(opendev.o)
 .debug_frame   0x0000000000003184       0x50 /home/wrsadmin/github/syslinux-6.03/bios/com32/lib/libcom32core.a(read.o)
 .debug_frame   0x00000000000031d4       0x50 /home/wrsadmin/github/syslinux-6.03/bios/com32/lib/libcom32core.a(write.o)
 .debug_frame   0x0000000000003224       0x34 /home/wrsadmin/github/syslinux-6.03/bios/com32/lib/libcom32core.a(ftell.o)
 .debug_frame   0x0000000000003258       0x5c /home/wrsadmin/github/syslinux-6.03/bios/com32/lib/libcom32core.a(close.o)
 .debug_frame   0x00000000000032b4       0x5c /home/wrsadmin/github/syslinux-6.03/bios/com32/lib/libcom32core.a(open.o)
 .debug_frame   0x0000000000003310       0x8c /home/wrsadmin/github/syslinux-6.03/bios/com32/lib/libcom32core.a(fileread.o)
 .debug_frame   0x000000000000339c       0x40 /home/wrsadmin/github/syslinux-6.03/bios/com32/lib/libcom32core.a(fileclose.o)
 .debug_frame   0x00000000000033dc       0x50 /home/wrsadmin/github/syslinux-6.03/bios/com32/lib/libcom32core.a(openmem.o)
 .debug_frame   0x000000000000342c       0x34 /home/wrsadmin/github/syslinux-6.03/bios/com32/lib/libcom32core.a(isatty.o)
 .debug_frame   0x0000000000003460       0x40 /home/wrsadmin/github/syslinux-6.03/bios/com32/lib/libcom32core.a(fstat.o)
 .debug_frame   0x00000000000034a0       0x5c /home/wrsadmin/github/syslinux-6.03/bios/com32/lib/libcom32core.a(idle.o)
 .debug_frame   0x00000000000034fc       0x74 /home/wrsadmin/github/syslinux-6.03/bios/com32/lib/libcom32core.a(exit.o)
 .debug_frame   0x0000000000003570      0x3e8 /home/wrsadmin/github/syslinux-6.03/bios/com32/lib/libcom32core.a(common.o)
 .debug_frame   0x0000000000003958       0xd8 /home/wrsadmin/github/syslinux-6.03/bios/com32/lib/libcom32core.a(elf_module.o)
 .debug_frame   0x0000000000003a30       0x98 /home/wrsadmin/github/syslinux-6.03/bios/com32/lib/libcom32core.a(elfutils.o)
 .debug_frame   0x0000000000003ac8       0x7c /home/wrsadmin/github/syslinux-6.03/bios/com32/lib/libcom32core.a(exec.o)
 .debug_frame   0x0000000000003b44       0x88 /home/wrsadmin/github/syslinux-6.03/bios/com32/lib/libcom32core.a(elf_module.o)
 .debug_frame   0x0000000000003bcc       0x68 libisolinux.a(rawcon.o)
 .debug_frame   0x0000000000003c34       0x70 libisolinux.a(localboot.o)
 .debug_frame   0x0000000000003ca4       0x40 libisolinux.a(isolinux-c.o)

.debug_loc      0x0000000000000000     0xc9c2
 .debug_loc     0x0000000000000000       0x10 isolinux.o
 .debug_loc     0x0000000000000010      0x5b3 libcom32.a(graphics.o)
 .debug_loc     0x00000000000005c3      0x16f libcom32.a(writehex.o)
 .debug_loc     0x0000000000000732      0x3f3 libcom32.a(conio.o)
 .debug_loc     0x0000000000000b25       0x3f libcom32.a(writestr.o)
 .debug_loc     0x0000000000000b64      0x154 libcom32.a(init.o)
 .debug_loc     0x0000000000000cb8      0x404 libcom32.a(rllpack.o)
 .debug_loc     0x00000000000010bc      0x7be libcom32.a(iso9660.o)
 .debug_loc     0x000000000000187a      0x101 libcom32.a(readdir.o)
 .debug_loc     0x000000000000197b      0x10b libcom32.a(mangle.o)
 .debug_loc     0x0000000000001a86       0xf5 libcom32.a(searchconfig.o)
 .debug_loc     0x0000000000001b7b       0x2c libcom32.a(close.o)
 .debug_loc     0x0000000000001ba7       0x21 libcom32.a(nonextextent.o)
 .debug_loc     0x0000000000001bc8      0x357 libcom32.a(getfssec.o)
 .debug_loc     0x0000000000001f1f      0x367 libcom32.a(cache.o)
 .debug_loc     0x0000000000002286       0xa4 libcom32.a(diskio.o)
 .debug_loc     0x000000000000232a      0x9bc libcom32.a(diskio_bios.o)
 .debug_loc     0x0000000000002ce6      0x7fa libcom32.a(fs.o)
 .debug_loc     0x00000000000034e0      0x44b libcom32.a(chdir.o)
 .debug_loc     0x000000000000392b      0x143 libcom32.a(hello.o)
 .debug_loc     0x0000000000003a6e       0xde libcom32.a(font.o)
 .debug_loc     0x0000000000003b4c      0x2ce libcom32.a(load_env32.o)
 .debug_loc     0x0000000000003e1a      0xad6 libcom32.a(bios.o)
 .debug_loc     0x00000000000048f0      0x62a libcom32.a(serirq.o)
 .debug_loc     0x0000000000004f1a       0x7b libcom32.a(call16.o)
 .debug_loc     0x0000000000004f95      0x26f libcom32.a(sysappend.o)
 .debug_loc     0x0000000000005204       0xbf libcom32.a(path.o)
 .debug_loc     0x00000000000052c3      0x5c7 libcom32.a(malloc.o)
 .debug_loc     0x000000000000588a      0x260 libcom32.a(free.o)
 .debug_loc     0x0000000000005aea      0xa52 libcom32.a(susp_rr.o)
 .debug_loc     0x000000000000653c       0xb4 libcom32.a(getcwd.o)
 .debug_loc     0x00000000000065f0      0x7f3 libcom32.a(dmi.o)
 .debug_loc     0x0000000000006de3      0x113 libcom32.a(semaphore.o)
 .debug_loc     0x0000000000006ef6       0x7c libcom32.a(schedule.o)
 .debug_loc     0x0000000000006f72       0x65 /home/wrsadmin/github/syslinux-6.03/bios/com32/lib/libcom32core.a(memcpy.o)
 .debug_loc     0x0000000000006fd7       0x9c /home/wrsadmin/github/syslinux-6.03/bios/com32/lib/libcom32core.a(memset.o)
 .debug_loc     0x0000000000007073      0x12b /home/wrsadmin/github/syslinux-6.03/bios/com32/lib/libcom32core.a(memcmp.o)
 .debug_loc     0x000000000000719e       0x20 /home/wrsadmin/github/syslinux-6.03/bios/com32/lib/libcom32core.a(printf.o)
 .debug_loc     0x00000000000071be      0x154 /home/wrsadmin/github/syslinux-6.03/bios/com32/lib/libcom32core.a(strncmp.o)
 .debug_loc     0x0000000000007312       0xb1 /home/wrsadmin/github/syslinux-6.03/bios/com32/lib/libcom32core.a(vfprintf.o)
 .debug_loc     0x00000000000073c3       0x3f /home/wrsadmin/github/syslinux-6.03/bios/com32/lib/libcom32core.a(strlen.o)
 .debug_loc     0x0000000000007402      0xfcf /home/wrsadmin/github/syslinux-6.03/bios/com32/lib/libcom32core.a(vsnprintf.o)
 .debug_loc     0x00000000000083d1       0x2c /home/wrsadmin/github/syslinux-6.03/bios/com32/lib/libcom32core.a(snprintf.o)
 .debug_loc     0x00000000000083fd       0x42 /home/wrsadmin/github/syslinux-6.03/bios/com32/lib/libcom32core.a(stpcpy.o)
 .debug_loc     0x000000000000843f       0xf3 /home/wrsadmin/github/syslinux-6.03/bios/com32/lib/libcom32core.a(strcmp.o)
 .debug_loc     0x0000000000008532       0x3d /home/wrsadmin/github/syslinux-6.03/bios/com32/lib/libcom32core.a(strdup.o)
 .debug_loc     0x000000000000856f       0x8e /home/wrsadmin/github/syslinux-6.03/bios/com32/lib/libcom32core.a(strcpy.o)
 .debug_loc     0x00000000000085fd       0xfd /home/wrsadmin/github/syslinux-6.03/bios/com32/lib/libcom32core.a(strncpy.o)
 .debug_loc     0x00000000000086fa      0x10f /home/wrsadmin/github/syslinux-6.03/bios/com32/lib/libcom32core.a(fopen.o)
 .debug_loc     0x0000000000008809       0xe3 /home/wrsadmin/github/syslinux-6.03/bios/com32/lib/libcom32core.a(fread.o)
 .debug_loc     0x00000000000088ec       0x6e /home/wrsadmin/github/syslinux-6.03/bios/com32/lib/libcom32core.a(fread2.o)
 .debug_loc     0x000000000000895a       0x21 /home/wrsadmin/github/syslinux-6.03/bios/com32/lib/libcom32core.a(puts.o)
 .debug_loc     0x000000000000897b       0x63 /home/wrsadmin/github/syslinux-6.03/bios/com32/lib/libcom32core.a(strtoul.o)
 .debug_loc     0x00000000000089de      0x211 /home/wrsadmin/github/syslinux-6.03/bios/com32/lib/libcom32core.a(strntoumax.o)
 .debug_loc     0x0000000000008bef      0x119 /home/wrsadmin/github/syslinux-6.03/bios/com32/lib/libcom32core.a(strcasecmp.o)
 .debug_loc     0x0000000000008d08       0x2c /home/wrsadmin/github/syslinux-6.03/bios/com32/lib/libcom32core.a(sprintf.o)
 .debug_loc     0x0000000000008d34      0x15a /home/wrsadmin/github/syslinux-6.03/bios/com32/lib/libcom32core.a(strlcat.o)
 .debug_loc     0x0000000000008e8e       0x1e /home/wrsadmin/github/syslinux-6.03/bios/com32/lib/libcom32core.a(strchr.o)
 .debug_loc     0x0000000000008eac      0x10e /home/wrsadmin/github/syslinux-6.03/bios/com32/lib/libcom32core.a(strlcpy.o)
 .debug_loc     0x0000000000008fba      0x1b4 /home/wrsadmin/github/syslinux-6.03/bios/com32/lib/libcom32core.a(strncasecmp.o)
 .debug_loc     0x000000000000916e       0x4a /home/wrsadmin/github/syslinux-6.03/bios/com32/lib/libcom32core.a(fputs.o)
 .debug_loc     0x00000000000091b8       0x6e /home/wrsadmin/github/syslinux-6.03/bios/com32/lib/libcom32core.a(fwrite2.o)
 .debug_loc     0x0000000000009226       0xe3 /home/wrsadmin/github/syslinux-6.03/bios/com32/lib/libcom32core.a(fwrite.o)
 .debug_loc     0x0000000000009309       0x2c /home/wrsadmin/github/syslinux-6.03/bios/com32/lib/libcom32core.a(fgetc.o)
 .debug_loc     0x0000000000009335       0x2e /home/wrsadmin/github/syslinux-6.03/bios/com32/lib/libcom32core.a(fclose.o)
 .debug_loc     0x0000000000009363       0x81 /home/wrsadmin/github/syslinux-6.03/bios/com32/lib/libcom32core.a(lmalloc.o)
 .debug_loc     0x00000000000093e4       0x21 /home/wrsadmin/github/syslinux-6.03/bios/com32/lib/libcom32core.a(err_read.o)
 .debug_loc     0x0000000000009405       0x21 /home/wrsadmin/github/syslinux-6.03/bios/com32/lib/libcom32core.a(err_write.o)
 .debug_loc     0x0000000000009426       0x21 /home/wrsadmin/github/syslinux-6.03/bios/com32/lib/libcom32core.a(null_read.o)
 .debug_loc     0x0000000000009447      0x11a /home/wrsadmin/github/syslinux-6.03/bios/com32/lib/libcom32core.a(stdcon_write.o)
 .debug_loc     0x0000000000009561      0x160 /home/wrsadmin/github/syslinux-6.03/bios/com32/lib/libcom32core.a(memscan.o)
 .debug_loc     0x00000000000096c1       0x3d /home/wrsadmin/github/syslinux-6.03/bios/com32/lib/libcom32core.a(strrchr.o)
 .debug_loc     0x00000000000096fe       0x55 /home/wrsadmin/github/syslinux-6.03/bios/com32/lib/libcom32core.a(strcat.o)
 .debug_loc     0x0000000000009753       0x28 /home/wrsadmin/github/syslinux-6.03/bios/com32/lib/libcom32core.a(__udivdi3.o)
 .debug_loc     0x000000000000977b      0x104 /home/wrsadmin/github/syslinux-6.03/bios/com32/lib/libcom32core.a(__udivmoddi4.o)
 .debug_loc     0x000000000000987f       0x28 /home/wrsadmin/github/syslinux-6.03/bios/com32/lib/libcom32core.a(__umoddi3.o)
 .debug_loc     0x00000000000098a7      0x146 /home/wrsadmin/github/syslinux-6.03/bios/com32/lib/libcom32core.a(__divdi3.o)
 .debug_loc     0x00000000000099ed       0xff /home/wrsadmin/github/syslinux-6.03/bios/com32/lib/libcom32core.a(__moddi3.o)
 .debug_loc     0x0000000000009aec       0x42 /home/wrsadmin/github/syslinux-6.03/bios/com32/lib/libcom32core.a(debug.o)
 .debug_loc     0x0000000000009b2e       0x63 /home/wrsadmin/github/syslinux-6.03/bios/com32/lib/libcom32core.a(intcall.o)
 .debug_loc     0x0000000000009b91       0x6e /home/wrsadmin/github/syslinux-6.03/bios/com32/lib/libcom32core.a(farcall.o)
 .debug_loc     0x0000000000009bff       0x63 /home/wrsadmin/github/syslinux-6.03/bios/com32/lib/libcom32core.a(cfarcall.o)
 .debug_loc     0x0000000000009c62      0x201 /home/wrsadmin/github/syslinux-6.03/bios/com32/lib/libcom32core.a(argv.o)
 .debug_loc     0x0000000000009e63       0x4d /home/wrsadmin/github/syslinux-6.03/bios/com32/lib/libcom32core.a(sleep.o)
 .debug_loc     0x0000000000009eb0      0x149 /home/wrsadmin/github/syslinux-6.03/bios/com32/lib/libcom32core.a(opendev.o)
 .debug_loc     0x0000000000009ff9       0x8f /home/wrsadmin/github/syslinux-6.03/bios/com32/lib/libcom32core.a(read.o)
 .debug_loc     0x000000000000a088       0x8f /home/wrsadmin/github/syslinux-6.03/bios/com32/lib/libcom32core.a(write.o)
 .debug_loc     0x000000000000a117       0x41 /home/wrsadmin/github/syslinux-6.03/bios/com32/lib/libcom32core.a(ftell.o)
 .debug_loc     0x000000000000a158       0xa4 /home/wrsadmin/github/syslinux-6.03/bios/com32/lib/libcom32core.a(close.o)
 .debug_loc     0x000000000000a1fc       0x3c /home/wrsadmin/github/syslinux-6.03/bios/com32/lib/libcom32core.a(open.o)
 .debug_loc     0x000000000000a238      0x162 /home/wrsadmin/github/syslinux-6.03/bios/com32/lib/libcom32core.a(fileread.o)
 .debug_loc     0x000000000000a39a       0x21 /home/wrsadmin/github/syslinux-6.03/bios/com32/lib/libcom32core.a(fileclose.o)
 .debug_loc     0x000000000000a3bb       0x9f /home/wrsadmin/github/syslinux-6.03/bios/com32/lib/libcom32core.a(openmem.o)
 .debug_loc     0x000000000000a45a       0x34 /home/wrsadmin/github/syslinux-6.03/bios/com32/lib/libcom32core.a(isatty.o)
 .debug_loc     0x000000000000a48e       0x4a /home/wrsadmin/github/syslinux-6.03/bios/com32/lib/libcom32core.a(fstat.o)
 .debug_loc     0x000000000000a4d8       0x60 /home/wrsadmin/github/syslinux-6.03/bios/com32/lib/libcom32core.a(exit.o)
 .debug_loc     0x000000000000a538     0x10b4 /home/wrsadmin/github/syslinux-6.03/bios/com32/lib/libcom32core.a(common.o)
 .debug_loc     0x000000000000b5ec      0x861 /home/wrsadmin/github/syslinux-6.03/bios/com32/lib/libcom32core.a(elf_module.o)
 .debug_loc     0x000000000000be4d      0x28a /home/wrsadmin/github/syslinux-6.03/bios/com32/lib/libcom32core.a(elfutils.o)
 .debug_loc     0x000000000000c0d7      0x200 /home/wrsadmin/github/syslinux-6.03/bios/com32/lib/libcom32core.a(exec.o)
 .debug_loc     0x000000000000c2d7      0x5b3 /home/wrsadmin/github/syslinux-6.03/bios/com32/lib/libcom32core.a(elf_module.o)
 .debug_loc     0x000000000000c88a       0xa1 libisolinux.a(rawcon.o)
 .debug_loc     0x000000000000c92b       0x97 libisolinux.a(localboot.o)

.debug_ranges   0x0000000000000000      0x328
 .debug_ranges  0x0000000000000000       0x18 libcom32.a(graphics.o)
 .debug_ranges  0x0000000000000018       0x18 libcom32.a(writestr.o)
 .debug_ranges  0x0000000000000030       0x30 libcom32.a(iso9660.o)
 .debug_ranges  0x0000000000000060       0x30 libcom32.a(diskio_bios.o)
 .debug_ranges  0x0000000000000090       0x20 libcom32.a(fs.o)
 .debug_ranges  0x00000000000000b0       0x30 libcom32.a(chdir.o)
 .debug_ranges  0x00000000000000e0       0x18 libcom32.a(load_env32.o)
 .debug_ranges  0x00000000000000f8       0x48 libcom32.a(bios.o)
 .debug_ranges  0x0000000000000140       0x18 libcom32.a(sysappend.o)
 .debug_ranges  0x0000000000000158       0x78 libcom32.a(susp_rr.o)
 .debug_ranges  0x00000000000001d0       0x38 libcom32.a(dmi.o)
 .debug_ranges  0x0000000000000208       0x18 /home/wrsadmin/github/syslinux-6.03/bios/com32/lib/libcom32core.a(vsnprintf.o)
 .debug_ranges  0x0000000000000220       0x10 /home/wrsadmin/github/syslinux-6.03/bios/com32/lib/libcom32core.a(stpcpy.o)
 .debug_ranges  0x0000000000000230       0x18 /home/wrsadmin/github/syslinux-6.03/bios/com32/lib/libcom32core.a(strcasecmp.o)
 .debug_ranges  0x0000000000000248       0x18 /home/wrsadmin/github/syslinux-6.03/bios/com32/lib/libcom32core.a(strncasecmp.o)
 .debug_ranges  0x0000000000000260       0x78 /home/wrsadmin/github/syslinux-6.03/bios/com32/lib/libcom32core.a(common.o)
 .debug_ranges  0x00000000000002d8       0x38 /home/wrsadmin/github/syslinux-6.03/bios/com32/lib/libcom32core.a(elf_module.o)
 .debug_ranges  0x0000000000000310       0x18 libisolinux.a(rawcon.o)

.debug_str      0x0000000000000000     0x520f
 .debug_str     0x0000000000000000      0xa00 libcom32.a(graphics.o)
                                        0xbb7 (size before relaxing)
 .debug_str     0x0000000000000a00       0x66 libcom32.a(writehex.o)
                                        0x5d1 (size before relaxing)
 .debug_str     0x0000000000000a66      0x163 libcom32.a(conio.o)
                                        0xcad (size before relaxing)
 .debug_str     0x0000000000000bc9       0x45 libcom32.a(writestr.o)
                                        0x5a2 (size before relaxing)
 .debug_str     0x0000000000000c0e      0x2b9 libcom32.a(init.o)
                                        0x9dd (size before relaxing)
 .debug_str     0x0000000000000ec7       0x4f libcom32.a(rllpack.o)
                                        0x32e (size before relaxing)
 .debug_str     0x0000000000000f16      0x303 libcom32.a(iso9660.o)
                                        0xc9e (size before relaxing)
 .debug_str     0x0000000000001219       0x4c libcom32.a(readdir.o)
                                        0x86d (size before relaxing)
 .debug_str     0x0000000000001265       0x5c libcom32.a(mangle.o)
                                        0x81b (size before relaxing)
 .debug_str     0x00000000000012c1       0x57 libcom32.a(searchconfig.o)
                                        0x9d3 (size before relaxing)
 .debug_str     0x0000000000001318       0x55 libcom32.a(close.o)
                                        0x814 (size before relaxing)
 .debug_str     0x000000000000136d       0x4a libcom32.a(nonextextent.o)
                                        0x809 (size before relaxing)
 .debug_str     0x00000000000013b7       0xb2 libcom32.a(getfssec.o)
                                        0x88d (size before relaxing)
 .debug_str     0x0000000000001469       0x82 libcom32.a(cache.o)
                                        0x876 (size before relaxing)
 .debug_str     0x00000000000014eb       0x4f libcom32.a(diskio.o)
                                        0x9ad (size before relaxing)
 .debug_str     0x000000000000153a      0x1d6 libcom32.a(diskio_bios.o)
                                        0x9fe (size before relaxing)
 .debug_str     0x0000000000001710      0x1e6 libcom32.a(fs.o)
                                        0xc77 (size before relaxing)
 .debug_str     0x00000000000018f6       0x72 libcom32.a(chdir.o)
                                        0x8e4 (size before relaxing)
 .debug_str     0x0000000000001968       0xe9 libcom32.a(hello.o)
                                        0x66e (size before relaxing)
 .debug_str     0x0000000000001a51       0x31 libcom32.a(errno.o)
                                        0x1ab (size before relaxing)
 .debug_str     0x0000000000001a82       0x33 libcom32.a(cleanup.o)
                                        0x703 (size before relaxing)
 .debug_str     0x0000000000001ab5       0x3f libcom32.a(pmapi.o)
                                        0x980 (size before relaxing)
 .debug_str     0x0000000000001af4       0x80 libcom32.a(font.o)
                                        0xc70 (size before relaxing)
 .debug_str     0x0000000000001b74      0x542 libcom32.a(load_env32.o)
                                       0x11c7 (size before relaxing)
 .debug_str     0x00000000000020b6      0x806 libcom32.a(bios.o)
                                       0x154b (size before relaxing)
 .debug_str     0x00000000000028bc      0x1a1 libcom32.a(serirq.o)
                                        0xb35 (size before relaxing)
 .debug_str     0x0000000000002a5d       0x30 libcom32.a(init.o)
                                        0x9a2 (size before relaxing)
 .debug_str     0x0000000000002a8d       0x4c libcom32.a(idle.o)
                                        0x719 (size before relaxing)
 .debug_str     0x0000000000002ad9       0x44 libcom32.a(call16.o)
                                        0x70e (size before relaxing)
 .debug_str     0x0000000000002b1d       0xc1 libcom32.a(sysappend.o)
                                        0xa37 (size before relaxing)
 .debug_str     0x0000000000002bde       0x40 libcom32.a(path.o)
                                        0x9c8 (size before relaxing)
 .debug_str     0x0000000000002c1e       0x98 libcom32.a(malloc.o)
                                        0xafd (size before relaxing)
 .debug_str     0x0000000000002cb6       0x7c libcom32.a(free.o)
                                        0x966 (size before relaxing)
 .debug_str     0x0000000000002d32       0x32 libcom32.a(kaboom.o)
                                        0x57a (size before relaxing)
 .debug_str     0x0000000000002d64      0x1f0 libcom32.a(susp_rr.o)
                                        0xb12 (size before relaxing)
 .debug_str     0x0000000000002f54       0x35 libcom32.a(getcwd.o)
                                        0x80e (size before relaxing)
 .debug_str     0x0000000000002f89      0x1ce libcom32.a(dmi.o)
                                        0x931 (size before relaxing)
 .debug_str     0x0000000000003157       0xb0 libcom32.a(semaphore.o)
                                        0x3cb (size before relaxing)
 .debug_str     0x0000000000003207       0x67 libcom32.a(schedule.o)
                                        0x84f (size before relaxing)
 .debug_str     0x000000000000326e       0x4c libcom32.a(root_thread.o)
                                        0x349 (size before relaxing)
 .debug_str     0x00000000000032ba       0x4c libcom32.a(exit_thread.o)
                                        0x67e (size before relaxing)
 .debug_str     0x0000000000003306      0x1b1 /home/wrsadmin/github/syslinux-6.03/bios/com32/lib/libcom32core.a(memcpy.o)
                                        0x236 (size before relaxing)
 .debug_str     0x00000000000034b7       0x37 /home/wrsadmin/github/syslinux-6.03/bios/com32/lib/libcom32core.a(memset.o)
                                        0x236 (size before relaxing)
 .debug_str     0x00000000000034ee       0x37 /home/wrsadmin/github/syslinux-6.03/bios/com32/lib/libcom32core.a(memcmp.o)
                                        0x1e3 (size before relaxing)
 .debug_str     0x0000000000003525       0x61 /home/wrsadmin/github/syslinux-6.03/bios/com32/lib/libcom32core.a(printf.o)
                                        0x221 (size before relaxing)
 .debug_str     0x0000000000003586       0x38 /home/wrsadmin/github/syslinux-6.03/bios/com32/lib/libcom32core.a(strncmp.o)
                                        0x1ea (size before relaxing)
 .debug_str     0x00000000000035be       0x52 /home/wrsadmin/github/syslinux-6.03/bios/com32/lib/libcom32core.a(vfprintf.o)
                                        0x2b4 (size before relaxing)
 .debug_str     0x0000000000003610       0x37 /home/wrsadmin/github/syslinux-6.03/bios/com32/lib/libcom32core.a(strlen.o)
                                        0x1da (size before relaxing)
 .debug_str     0x0000000000003647      0x196 /home/wrsadmin/github/syslinux-6.03/bios/com32/lib/libcom32core.a(vsnprintf.o)
                                        0x41f (size before relaxing)
 .debug_str     0x00000000000037dd       0x39 /home/wrsadmin/github/syslinux-6.03/bios/com32/lib/libcom32core.a(snprintf.o)
                                        0x21f (size before relaxing)
 .debug_str     0x0000000000003816       0x3e /home/wrsadmin/github/syslinux-6.03/bios/com32/lib/libcom32core.a(stpcpy.o)
                                        0x1d3 (size before relaxing)
 .debug_str     0x0000000000003854       0x37 /home/wrsadmin/github/syslinux-6.03/bios/com32/lib/libcom32core.a(strcmp.o)
                                        0x1e1 (size before relaxing)
 .debug_str     0x000000000000388b       0x37 /home/wrsadmin/github/syslinux-6.03/bios/com32/lib/libcom32core.a(strdup.o)
                                        0x1da (size before relaxing)
 .debug_str     0x00000000000038c2       0x37 /home/wrsadmin/github/syslinux-6.03/bios/com32/lib/libcom32core.a(strcpy.o)
                                        0x1d3 (size before relaxing)
 .debug_str     0x00000000000038f9       0x38 /home/wrsadmin/github/syslinux-6.03/bios/com32/lib/libcom32core.a(strncpy.o)
                                        0x1dc (size before relaxing)
 .debug_str     0x0000000000003931       0x47 /home/wrsadmin/github/syslinux-6.03/bios/com32/lib/libcom32core.a(fopen.o)
                                        0x284 (size before relaxing)
 .debug_str     0x0000000000003978       0x3d /home/wrsadmin/github/syslinux-6.03/bios/com32/lib/libcom32core.a(fread.o)
                                        0x28f (size before relaxing)
 .debug_str     0x00000000000039b5       0x3d /home/wrsadmin/github/syslinux-6.03/bios/com32/lib/libcom32core.a(fread2.o)
                                        0x1f9 (size before relaxing)
 .debug_str     0x00000000000039f2       0x3b /home/wrsadmin/github/syslinux-6.03/bios/com32/lib/libcom32core.a(puts.o)
                                        0x1f2 (size before relaxing)
 .debug_str     0x0000000000003a2d       0x57 /home/wrsadmin/github/syslinux-6.03/bios/com32/lib/libcom32core.a(strtoul.o)
                                        0x266 (size before relaxing)
 .debug_str     0x0000000000003a84       0xbe /home/wrsadmin/github/syslinux-6.03/bios/com32/lib/libcom32core.a(strntoumax.o)
                                        0x2f3 (size before relaxing)
 .debug_str     0x0000000000003b42       0x56 /home/wrsadmin/github/syslinux-6.03/bios/com32/lib/libcom32core.a(strcasecmp.o)
                                        0x273 (size before relaxing)
 .debug_str     0x0000000000003b98       0x38 /home/wrsadmin/github/syslinux-6.03/bios/com32/lib/libcom32core.a(sprintf.o)
                                        0x295 (size before relaxing)
 .debug_str     0x0000000000003bd0       0x40 /home/wrsadmin/github/syslinux-6.03/bios/com32/lib/libcom32core.a(strlcat.o)
                                        0x1e7 (size before relaxing)
 .debug_str     0x0000000000003c10       0x37 /home/wrsadmin/github/syslinux-6.03/bios/com32/lib/libcom32core.a(strchr.o)
                                        0x1d3 (size before relaxing)
 .debug_str     0x0000000000003c47       0x40 /home/wrsadmin/github/syslinux-6.03/bios/com32/lib/libcom32core.a(strlcpy.o)
                                        0x1e7 (size before relaxing)
 .debug_str     0x0000000000003c87       0x48 /home/wrsadmin/github/syslinux-6.03/bios/com32/lib/libcom32core.a(strncasecmp.o)
                                        0x27c (size before relaxing)
 .debug_str     0x0000000000003ccf       0x37 /home/wrsadmin/github/syslinux-6.03/bios/com32/lib/libcom32core.a(ctypes.o)
                                        0x24f (size before relaxing)
 .debug_str     0x0000000000003d06       0x36 /home/wrsadmin/github/syslinux-6.03/bios/com32/lib/libcom32core.a(fputs.o)
                                        0x1ec (size before relaxing)
 .debug_str     0x0000000000003d3c       0x38 /home/wrsadmin/github/syslinux-6.03/bios/com32/lib/libcom32core.a(fwrite2.o)
                                        0x1fc (size before relaxing)
 .debug_str     0x0000000000003d74       0x37 /home/wrsadmin/github/syslinux-6.03/bios/com32/lib/libcom32core.a(fwrite.o)
                                        0x292 (size before relaxing)
 .debug_str     0x0000000000003dab       0x36 /home/wrsadmin/github/syslinux-6.03/bios/com32/lib/libcom32core.a(fgetc.o)
                                        0x264 (size before relaxing)
 .debug_str     0x0000000000003de1       0x37 /home/wrsadmin/github/syslinux-6.03/bios/com32/lib/libcom32core.a(fclose.o)
                                        0x26d (size before relaxing)
 .debug_str     0x0000000000003e18       0x38 /home/wrsadmin/github/syslinux-6.03/bios/com32/lib/libcom32core.a(lmalloc.o)
                                        0x3ff (size before relaxing)
 .debug_str     0x0000000000003e50       0x48 /home/wrsadmin/github/syslinux-6.03/bios/com32/lib/libcom32core.a(err_read.o)
                                        0x4d5 (size before relaxing)
 .debug_str     0x0000000000003e98       0x4a /home/wrsadmin/github/syslinux-6.03/bios/com32/lib/libcom32core.a(err_write.o)
                                        0x4d7 (size before relaxing)
 .debug_str     0x0000000000003ee2       0x4a /home/wrsadmin/github/syslinux-6.03/bios/com32/lib/libcom32core.a(null_read.o)
                                        0x4d7 (size before relaxing)
 .debug_str     0x0000000000003f2c       0x63 /home/wrsadmin/github/syslinux-6.03/bios/com32/lib/libcom32core.a(stdcon_write.o)
                                        0x806 (size before relaxing)
 .debug_str     0x0000000000003f8f       0x6c /home/wrsadmin/github/syslinux-6.03/bios/com32/lib/libcom32core.a(memscan.o)
                                        0x37f (size before relaxing)
 .debug_str     0x0000000000003ffb       0x40 /home/wrsadmin/github/syslinux-6.03/bios/com32/lib/libcom32core.a(strrchr.o)
                                        0x1db (size before relaxing)
 .debug_str     0x000000000000403b       0x3e /home/wrsadmin/github/syslinux-6.03/bios/com32/lib/libcom32core.a(strcat.o)
                                        0x1e1 (size before relaxing)
 .debug_str     0x0000000000004079       0x58 /home/wrsadmin/github/syslinux-6.03/bios/com32/lib/libcom32core.a(__udivdi3.o)
                                        0x24d (size before relaxing)
 .debug_str     0x00000000000040d1       0x63 /home/wrsadmin/github/syslinux-6.03/bios/com32/lib/libcom32core.a(__udivmoddi4.o)
                                        0x264 (size before relaxing)
 .debug_str     0x0000000000004134       0x4b /home/wrsadmin/github/syslinux-6.03/bios/com32/lib/libcom32core.a(__umoddi3.o)
                                        0x24d (size before relaxing)
 .debug_str     0x000000000000417f       0x49 /home/wrsadmin/github/syslinux-6.03/bios/com32/lib/libcom32core.a(__divdi3.o)
                                        0x250 (size before relaxing)
 .debug_str     0x00000000000041c8       0x49 /home/wrsadmin/github/syslinux-6.03/bios/com32/lib/libcom32core.a(__moddi3.o)
                                        0x259 (size before relaxing)
 .debug_str     0x0000000000004211       0x97 /home/wrsadmin/github/syslinux-6.03/bios/com32/lib/libcom32core.a(debug.o)
                                        0x243 (size before relaxing)
 .debug_str     0x00000000000042a8       0x3c /home/wrsadmin/github/syslinux-6.03/bios/com32/lib/libcom32core.a(intcall.o)
                                        0x330 (size before relaxing)
 .debug_str     0x00000000000042e4       0x46 /home/wrsadmin/github/syslinux-6.03/bios/com32/lib/libcom32core.a(farcall.o)
                                        0x32e (size before relaxing)
 .debug_str     0x000000000000432a       0x53 /home/wrsadmin/github/syslinux-6.03/bios/com32/lib/libcom32core.a(cfarcall.o)
                                        0x332 (size before relaxing)
 .debug_str     0x000000000000437d       0x3d /home/wrsadmin/github/syslinux-6.03/bios/com32/lib/libcom32core.a(zeroregs.o)
                                        0x316 (size before relaxing)
 .debug_str     0x00000000000043ba       0x70 /home/wrsadmin/github/syslinux-6.03/bios/com32/lib/libcom32core.a(argv.o)
                                        0x362 (size before relaxing)
 .debug_str     0x000000000000442a       0x6a /home/wrsadmin/github/syslinux-6.03/bios/com32/lib/libcom32core.a(sleep.o)
                                        0x297 (size before relaxing)
 .debug_str     0x0000000000004494       0x3d /home/wrsadmin/github/syslinux-6.03/bios/com32/lib/libcom32core.a(fileinfo.o)
                                        0x338 (size before relaxing)
 .debug_str     0x00000000000044d1       0x53 /home/wrsadmin/github/syslinux-6.03/bios/com32/lib/libcom32core.a(opendev.o)
                                        0x4fe (size before relaxing)
 .debug_str     0x0000000000004524       0x39 /home/wrsadmin/github/syslinux-6.03/bios/com32/lib/libcom32core.a(read.o)
                                        0x4c6 (size before relaxing)
 .debug_str     0x000000000000455d       0x3a /home/wrsadmin/github/syslinux-6.03/bios/com32/lib/libcom32core.a(write.o)
                                        0x4c7 (size before relaxing)
 .debug_str     0x0000000000004597       0x47 /home/wrsadmin/github/syslinux-6.03/bios/com32/lib/libcom32core.a(ftell.o)
                                        0x357 (size before relaxing)
 .debug_str     0x00000000000045de       0x3a /home/wrsadmin/github/syslinux-6.03/bios/com32/lib/libcom32core.a(close.o)
                                        0x4c1 (size before relaxing)
 .debug_str     0x0000000000004618       0x42 /home/wrsadmin/github/syslinux-6.03/bios/com32/lib/libcom32core.a(open.o)
                                        0xa6d (size before relaxing)
 .debug_str     0x000000000000465a       0x69 /home/wrsadmin/github/syslinux-6.03/bios/com32/lib/libcom32core.a(fileread.o)
                                        0x516 (size before relaxing)
 .debug_str     0x00000000000046c3       0x4b /home/wrsadmin/github/syslinux-6.03/bios/com32/lib/libcom32core.a(fileclose.o)
                                        0x8d0 (size before relaxing)
 .debug_str     0x000000000000470e       0x44 /home/wrsadmin/github/syslinux-6.03/bios/com32/lib/libcom32core.a(openmem.o)
                                        0x4f4 (size before relaxing)
 .debug_str     0x0000000000004752       0x42 /home/wrsadmin/github/syslinux-6.03/bios/com32/lib/libcom32core.a(isatty.o)
                                        0x4e5 (size before relaxing)
 .debug_str     0x0000000000004794       0x5d /home/wrsadmin/github/syslinux-6.03/bios/com32/lib/libcom32core.a(fstat.o)
                                        0x36c (size before relaxing)
 .debug_str     0x00000000000047f1       0x38 /home/wrsadmin/github/syslinux-6.03/bios/com32/lib/libcom32core.a(dprintf.o)
                                        0x1cd (size before relaxing)
 .debug_str     0x0000000000004829       0x39 /home/wrsadmin/github/syslinux-6.03/bios/com32/lib/libcom32core.a(vdprintf.o)
                                        0x258 (size before relaxing)
 .debug_str     0x0000000000004862       0x52 /home/wrsadmin/github/syslinux-6.03/bios/com32/lib/libcom32core.a(idle.o)
                                        0x59f (size before relaxing)
 .debug_str     0x00000000000048b4       0x48 /home/wrsadmin/github/syslinux-6.03/bios/com32/lib/libcom32core.a(exit.o)
                                        0x49d (size before relaxing)
 .debug_str     0x00000000000048fc      0x3ff /home/wrsadmin/github/syslinux-6.03/bios/com32/lib/libcom32core.a(common.o)
                                       0x1032 (size before relaxing)
 .debug_str     0x0000000000004cfb      0x227 /home/wrsadmin/github/syslinux-6.03/bios/com32/lib/libcom32core.a(elf_module.o)
                                        0xb11 (size before relaxing)
 .debug_str     0x0000000000004f22       0x6e /home/wrsadmin/github/syslinux-6.03/bios/com32/lib/libcom32core.a(elfutils.o)
                                        0x4f8 (size before relaxing)
 .debug_str     0x0000000000004f90       0xab /home/wrsadmin/github/syslinux-6.03/bios/com32/lib/libcom32core.a(exec.o)
                                        0x541 (size before relaxing)
 .debug_str     0x000000000000503b       0xd1 /home/wrsadmin/github/syslinux-6.03/bios/com32/lib/libcom32core.a(elf_module.o)
                                        0xab6 (size before relaxing)
 .debug_str     0x000000000000510c       0x46 libisolinux.a(rawcon.o)
                                        0x8d9 (size before relaxing)
 .debug_str     0x0000000000005152       0x43 libisolinux.a(localboot.o)
                                        0x8d5 (size before relaxing)
 .debug_str     0x0000000000005195       0x7a libisolinux.a(isolinux-c.o)
                                        0xadb (size before relaxing)

.comment        0x0000000000000000       0x2d
 .comment       0x0000000000000000       0x2d libcom32.a(graphics.o)
                                         0x2e (size before relaxing)
 .comment       0x000000000000002d       0x2e libcom32.a(writehex.o)
 .comment       0x000000000000002d       0x2e libcom32.a(conio.o)
 .comment       0x000000000000002d       0x2e libcom32.a(writestr.o)
 .comment       0x000000000000002d       0x2e libcom32.a(init.o)
 .comment       0x000000000000002d       0x2e libcom32.a(rllpack.o)
 .comment       0x000000000000002d       0x2e libcom32.a(iso9660.o)
 .comment       0x000000000000002d       0x2e libcom32.a(readdir.o)
 .comment       0x000000000000002d       0x2e libcom32.a(mangle.o)
 .comment       0x000000000000002d       0x2e libcom32.a(searchconfig.o)
 .comment       0x000000000000002d       0x2e libcom32.a(close.o)
 .comment       0x000000000000002d       0x2e libcom32.a(nonextextent.o)
 .comment       0x000000000000002d       0x2e libcom32.a(getfssec.o)
 .comment       0x000000000000002d       0x2e libcom32.a(cache.o)
 .comment       0x000000000000002d       0x2e libcom32.a(diskio.o)
 .comment       0x000000000000002d       0x2e libcom32.a(diskio_bios.o)
 .comment       0x000000000000002d       0x2e libcom32.a(fs.o)
 .comment       0x000000000000002d       0x2e libcom32.a(chdir.o)
 .comment       0x000000000000002d       0x2e libcom32.a(hello.o)
 .comment       0x000000000000002d       0x2e libcom32.a(errno.o)
 .comment       0x000000000000002d       0x2e libcom32.a(cleanup.o)
 .comment       0x000000000000002d       0x2e libcom32.a(pmapi.o)
 .comment       0x000000000000002d       0x2e libcom32.a(font.o)
 .comment       0x000000000000002d       0x2e libcom32.a(load_env32.o)
 .comment       0x000000000000002d       0x2e libcom32.a(bios.o)
 .comment       0x000000000000002d       0x2e libcom32.a(serirq.o)
 .comment       0x000000000000002d       0x2e libcom32.a(init.o)
 .comment       0x000000000000002d       0x2e libcom32.a(idle.o)
 .comment       0x000000000000002d       0x2e libcom32.a(call16.o)
 .comment       0x000000000000002d       0x2e libcom32.a(sysappend.o)
 .comment       0x000000000000002d       0x2e libcom32.a(path.o)
 .comment       0x000000000000002d       0x2e libcom32.a(malloc.o)
 .comment       0x000000000000002d       0x2e libcom32.a(free.o)
 .comment       0x000000000000002d       0x2e libcom32.a(kaboom.o)
 .comment       0x000000000000002d       0x2e libcom32.a(susp_rr.o)
 .comment       0x000000000000002d       0x2e libcom32.a(getcwd.o)
 .comment       0x000000000000002d       0x2e libcom32.a(dmi.o)
 .comment       0x000000000000002d       0x2e libcom32.a(semaphore.o)
 .comment       0x000000000000002d       0x2e libcom32.a(schedule.o)
 .comment       0x000000000000002d       0x2e libcom32.a(root_thread.o)
 .comment       0x000000000000002d       0x2e libcom32.a(exit_thread.o)
 .comment       0x000000000000002d       0x2e /home/wrsadmin/github/syslinux-6.03/bios/com32/lib/libcom32core.a(memcpy.o)
 .comment       0x000000000000002d       0x2e /home/wrsadmin/github/syslinux-6.03/bios/com32/lib/libcom32core.a(memset.o)
 .comment       0x000000000000002d       0x2e /home/wrsadmin/github/syslinux-6.03/bios/com32/lib/libcom32core.a(memcmp.o)
 .comment       0x000000000000002d       0x2e /home/wrsadmin/github/syslinux-6.03/bios/com32/lib/libcom32core.a(printf.o)
 .comment       0x000000000000002d       0x2e /home/wrsadmin/github/syslinux-6.03/bios/com32/lib/libcom32core.a(strncmp.o)
 .comment       0x000000000000002d       0x2e /home/wrsadmin/github/syslinux-6.03/bios/com32/lib/libcom32core.a(vfprintf.o)
 .comment       0x000000000000002d       0x2e /home/wrsadmin/github/syslinux-6.03/bios/com32/lib/libcom32core.a(strlen.o)
 .comment       0x000000000000002d       0x2e /home/wrsadmin/github/syslinux-6.03/bios/com32/lib/libcom32core.a(vsnprintf.o)
 .comment       0x000000000000002d       0x2e /home/wrsadmin/github/syslinux-6.03/bios/com32/lib/libcom32core.a(snprintf.o)
 .comment       0x000000000000002d       0x2e /home/wrsadmin/github/syslinux-6.03/bios/com32/lib/libcom32core.a(stpcpy.o)
 .comment       0x000000000000002d       0x2e /home/wrsadmin/github/syslinux-6.03/bios/com32/lib/libcom32core.a(strcmp.o)
 .comment       0x000000000000002d       0x2e /home/wrsadmin/github/syslinux-6.03/bios/com32/lib/libcom32core.a(strdup.o)
 .comment       0x000000000000002d       0x2e /home/wrsadmin/github/syslinux-6.03/bios/com32/lib/libcom32core.a(strcpy.o)
 .comment       0x000000000000002d       0x2e /home/wrsadmin/github/syslinux-6.03/bios/com32/lib/libcom32core.a(strncpy.o)
 .comment       0x000000000000002d       0x2e /home/wrsadmin/github/syslinux-6.03/bios/com32/lib/libcom32core.a(fopen.o)
 .comment       0x000000000000002d       0x2e /home/wrsadmin/github/syslinux-6.03/bios/com32/lib/libcom32core.a(fread.o)
 .comment       0x000000000000002d       0x2e /home/wrsadmin/github/syslinux-6.03/bios/com32/lib/libcom32core.a(fread2.o)
 .comment       0x000000000000002d       0x2e /home/wrsadmin/github/syslinux-6.03/bios/com32/lib/libcom32core.a(puts.o)
 .comment       0x000000000000002d       0x2e /home/wrsadmin/github/syslinux-6.03/bios/com32/lib/libcom32core.a(strtoul.o)
 .comment       0x000000000000002d       0x2e /home/wrsadmin/github/syslinux-6.03/bios/com32/lib/libcom32core.a(strntoumax.o)
 .comment       0x000000000000002d       0x2e /home/wrsadmin/github/syslinux-6.03/bios/com32/lib/libcom32core.a(strcasecmp.o)
 .comment       0x000000000000002d       0x2e /home/wrsadmin/github/syslinux-6.03/bios/com32/lib/libcom32core.a(sprintf.o)
 .comment       0x000000000000002d       0x2e /home/wrsadmin/github/syslinux-6.03/bios/com32/lib/libcom32core.a(strlcat.o)
 .comment       0x000000000000002d       0x2e /home/wrsadmin/github/syslinux-6.03/bios/com32/lib/libcom32core.a(strchr.o)
 .comment       0x000000000000002d       0x2e /home/wrsadmin/github/syslinux-6.03/bios/com32/lib/libcom32core.a(strlcpy.o)
 .comment       0x000000000000002d       0x2e /home/wrsadmin/github/syslinux-6.03/bios/com32/lib/libcom32core.a(strncasecmp.o)
 .comment       0x000000000000002d       0x2e /home/wrsadmin/github/syslinux-6.03/bios/com32/lib/libcom32core.a(ctypes.o)
 .comment       0x000000000000002d       0x2e /home/wrsadmin/github/syslinux-6.03/bios/com32/lib/libcom32core.a(fputs.o)
 .comment       0x000000000000002d       0x2e /home/wrsadmin/github/syslinux-6.03/bios/com32/lib/libcom32core.a(fwrite2.o)
 .comment       0x000000000000002d       0x2e /home/wrsadmin/github/syslinux-6.03/bios/com32/lib/libcom32core.a(fwrite.o)
 .comment       0x000000000000002d       0x2e /home/wrsadmin/github/syslinux-6.03/bios/com32/lib/libcom32core.a(fgetc.o)
 .comment       0x000000000000002d       0x2e /home/wrsadmin/github/syslinux-6.03/bios/com32/lib/libcom32core.a(fclose.o)
 .comment       0x000000000000002d       0x2e /home/wrsadmin/github/syslinux-6.03/bios/com32/lib/libcom32core.a(lmalloc.o)
 .comment       0x000000000000002d       0x2e /home/wrsadmin/github/syslinux-6.03/bios/com32/lib/libcom32core.a(err_read.o)
 .comment       0x000000000000002d       0x2e /home/wrsadmin/github/syslinux-6.03/bios/com32/lib/libcom32core.a(err_write.o)
 .comment       0x000000000000002d       0x2e /home/wrsadmin/github/syslinux-6.03/bios/com32/lib/libcom32core.a(null_read.o)
 .comment       0x000000000000002d       0x2e /home/wrsadmin/github/syslinux-6.03/bios/com32/lib/libcom32core.a(stdcon_write.o)
 .comment       0x000000000000002d       0x2e /home/wrsadmin/github/syslinux-6.03/bios/com32/lib/libcom32core.a(memscan.o)
 .comment       0x000000000000002d       0x2e /home/wrsadmin/github/syslinux-6.03/bios/com32/lib/libcom32core.a(strrchr.o)
 .comment       0x000000000000002d       0x2e /home/wrsadmin/github/syslinux-6.03/bios/com32/lib/libcom32core.a(strcat.o)
 .comment       0x000000000000002d       0x2e /home/wrsadmin/github/syslinux-6.03/bios/com32/lib/libcom32core.a(__udivdi3.o)
 .comment       0x000000000000002d       0x2e /home/wrsadmin/github/syslinux-6.03/bios/com32/lib/libcom32core.a(__udivmoddi4.o)
 .comment       0x000000000000002d       0x2e /home/wrsadmin/github/syslinux-6.03/bios/com32/lib/libcom32core.a(__umoddi3.o)
 .comment       0x000000000000002d       0x2e /home/wrsadmin/github/syslinux-6.03/bios/com32/lib/libcom32core.a(__divdi3.o)
 .comment       0x000000000000002d       0x2e /home/wrsadmin/github/syslinux-6.03/bios/com32/lib/libcom32core.a(__moddi3.o)
 .comment       0x000000000000002d       0x2e /home/wrsadmin/github/syslinux-6.03/bios/com32/lib/libcom32core.a(debug.o)
 .comment       0x000000000000002d       0x2e /home/wrsadmin/github/syslinux-6.03/bios/com32/lib/libcom32core.a(intcall.o)
 .comment       0x000000000000002d       0x2e /home/wrsadmin/github/syslinux-6.03/bios/com32/lib/libcom32core.a(farcall.o)
 .comment       0x000000000000002d       0x2e /home/wrsadmin/github/syslinux-6.03/bios/com32/lib/libcom32core.a(cfarcall.o)
 .comment       0x000000000000002d       0x2e /home/wrsadmin/github/syslinux-6.03/bios/com32/lib/libcom32core.a(zeroregs.o)
 .comment       0x000000000000002d       0x2e /home/wrsadmin/github/syslinux-6.03/bios/com32/lib/libcom32core.a(argv.o)
 .comment       0x000000000000002d       0x2e /home/wrsadmin/github/syslinux-6.03/bios/com32/lib/libcom32core.a(sleep.o)
 .comment       0x000000000000002d       0x2e /home/wrsadmin/github/syslinux-6.03/bios/com32/lib/libcom32core.a(fileinfo.o)
 .comment       0x000000000000002d       0x2e /home/wrsadmin/github/syslinux-6.03/bios/com32/lib/libcom32core.a(opendev.o)
 .comment       0x000000000000002d       0x2e /home/wrsadmin/github/syslinux-6.03/bios/com32/lib/libcom32core.a(read.o)
 .comment       0x000000000000002d       0x2e /home/wrsadmin/github/syslinux-6.03/bios/com32/lib/libcom32core.a(write.o)
 .comment       0x000000000000002d       0x2e /home/wrsadmin/github/syslinux-6.03/bios/com32/lib/libcom32core.a(ftell.o)
 .comment       0x000000000000002d       0x2e /home/wrsadmin/github/syslinux-6.03/bios/com32/lib/libcom32core.a(close.o)
 .comment       0x000000000000002d       0x2e /home/wrsadmin/github/syslinux-6.03/bios/com32/lib/libcom32core.a(open.o)
 .comment       0x000000000000002d       0x2e /home/wrsadmin/github/syslinux-6.03/bios/com32/lib/libcom32core.a(fileread.o)
 .comment       0x000000000000002d       0x2e /home/wrsadmin/github/syslinux-6.03/bios/com32/lib/libcom32core.a(fileclose.o)
 .comment       0x000000000000002d       0x2e /home/wrsadmin/github/syslinux-6.03/bios/com32/lib/libcom32core.a(openmem.o)
 .comment       0x000000000000002d       0x2e /home/wrsadmin/github/syslinux-6.03/bios/com32/lib/libcom32core.a(isatty.o)
 .comment       0x000000000000002d       0x2e /home/wrsadmin/github/syslinux-6.03/bios/com32/lib/libcom32core.a(fstat.o)
 .comment       0x000000000000002d       0x2e /home/wrsadmin/github/syslinux-6.03/bios/com32/lib/libcom32core.a(dprintf.o)
 .comment       0x000000000000002d       0x2e /home/wrsadmin/github/syslinux-6.03/bios/com32/lib/libcom32core.a(vdprintf.o)
 .comment       0x000000000000002d       0x2e /home/wrsadmin/github/syslinux-6.03/bios/com32/lib/libcom32core.a(idle.o)
 .comment       0x000000000000002d       0x2e /home/wrsadmin/github/syslinux-6.03/bios/com32/lib/libcom32core.a(exit.o)
 .comment       0x000000000000002d       0x2e /home/wrsadmin/github/syslinux-6.03/bios/com32/lib/libcom32core.a(common.o)
 .comment       0x000000000000002d       0x2e /home/wrsadmin/github/syslinux-6.03/bios/com32/lib/libcom32core.a(elf_module.o)
 .comment       0x000000000000002d       0x2e /home/wrsadmin/github/syslinux-6.03/bios/com32/lib/libcom32core.a(elfutils.o)
 .comment       0x000000000000002d       0x2e /home/wrsadmin/github/syslinux-6.03/bios/com32/lib/libcom32core.a(exec.o)
 .comment       0x000000000000002d       0x2e /home/wrsadmin/github/syslinux-6.03/bios/com32/lib/libcom32core.a(elf_module.o)
 .comment       0x000000000000002d       0x2e libisolinux.a(rawcon.o)
 .comment       0x000000000000002d       0x2e libisolinux.a(localboot.o)
 .comment       0x000000000000002d       0x2e libisolinux.a(isolinux-c.o)

.note.GNU-stack
                0x0000000000000000        0x0
 .note.GNU-stack
                0x0000000000000000        0x0 libcom32.a(graphics.o)
 .note.GNU-stack
                0x0000000000000000        0x0 libcom32.a(writehex.o)
 .note.GNU-stack
                0x0000000000000000        0x0 libcom32.a(conio.o)
 .note.GNU-stack
                0x0000000000000000        0x0 libcom32.a(writestr.o)
 .note.GNU-stack
                0x0000000000000000        0x0 libcom32.a(init.o)
 .note.GNU-stack
                0x0000000000000000        0x0 libcom32.a(rllpack.o)
 .note.GNU-stack
                0x0000000000000000        0x0 libcom32.a(iso9660.o)
 .note.GNU-stack
                0x0000000000000000        0x0 libcom32.a(readdir.o)
 .note.GNU-stack
                0x0000000000000000        0x0 libcom32.a(mangle.o)
 .note.GNU-stack
                0x0000000000000000        0x0 libcom32.a(searchconfig.o)
 .note.GNU-stack
                0x0000000000000000        0x0 libcom32.a(close.o)
 .note.GNU-stack
                0x0000000000000000        0x0 libcom32.a(nonextextent.o)
 .note.GNU-stack
                0x0000000000000000        0x0 libcom32.a(getfssec.o)
 .note.GNU-stack
                0x0000000000000000        0x0 libcom32.a(cache.o)
 .note.GNU-stack
                0x0000000000000000        0x0 libcom32.a(diskio.o)
 .note.GNU-stack
                0x0000000000000000        0x0 libcom32.a(diskio_bios.o)
 .note.GNU-stack
                0x0000000000000000        0x0 libcom32.a(fs.o)
 .note.GNU-stack
                0x0000000000000000        0x0 libcom32.a(chdir.o)
 .note.GNU-stack
                0x0000000000000000        0x0 libcom32.a(hello.o)
 .note.GNU-stack
                0x0000000000000000        0x0 libcom32.a(errno.o)
 .note.GNU-stack
                0x0000000000000000        0x0 libcom32.a(cleanup.o)
 .note.GNU-stack
                0x0000000000000000        0x0 libcom32.a(pmapi.o)
 .note.GNU-stack
                0x0000000000000000        0x0 libcom32.a(font.o)
 .note.GNU-stack
                0x0000000000000000        0x0 libcom32.a(load_env32.o)
 .note.GNU-stack
                0x0000000000000000        0x0 libcom32.a(bios.o)
 .note.GNU-stack
                0x0000000000000000        0x0 libcom32.a(serirq.o)
 .note.GNU-stack
                0x0000000000000000        0x0 libcom32.a(init.o)
 .note.GNU-stack
                0x0000000000000000        0x0 libcom32.a(idle.o)
 .note.GNU-stack
                0x0000000000000000        0x0 libcom32.a(call16.o)
 .note.GNU-stack
                0x0000000000000000        0x0 libcom32.a(lzo1x_f2.o)
 .note.GNU-stack
                0x0000000000000000        0x0 libcom32.a(sysappend.o)
 .note.GNU-stack
                0x0000000000000000        0x0 libcom32.a(path.o)
 .note.GNU-stack
                0x0000000000000000        0x0 libcom32.a(malloc.o)
 .note.GNU-stack
                0x0000000000000000        0x0 libcom32.a(free.o)
 .note.GNU-stack
                0x0000000000000000        0x0 libcom32.a(kaboom.o)
 .note.GNU-stack
                0x0000000000000000        0x0 libcom32.a(susp_rr.o)
 .note.GNU-stack
                0x0000000000000000        0x0 libcom32.a(getcwd.o)
 .note.GNU-stack
                0x0000000000000000        0x0 libcom32.a(dmi.o)
 .note.GNU-stack
                0x0000000000000000        0x0 libcom32.a(semaphore.o)
 .note.GNU-stack
                0x0000000000000000        0x0 libcom32.a(schedule.o)
 .note.GNU-stack
                0x0000000000000000        0x0 libcom32.a(root_thread.o)
 .note.GNU-stack
                0x0000000000000000        0x0 libcom32.a(exit_thread.o)
 .note.GNU-stack
                0x0000000000000000        0x0 /home/wrsadmin/github/syslinux-6.03/bios/com32/lib/libcom32core.a(memcpy.o)
 .note.GNU-stack
                0x0000000000000000        0x0 /home/wrsadmin/github/syslinux-6.03/bios/com32/lib/libcom32core.a(memset.o)
 .note.GNU-stack
                0x0000000000000000        0x0 /home/wrsadmin/github/syslinux-6.03/bios/com32/lib/libcom32core.a(memcmp.o)
 .note.GNU-stack
                0x0000000000000000        0x0 /home/wrsadmin/github/syslinux-6.03/bios/com32/lib/libcom32core.a(printf.o)
 .note.GNU-stack
                0x0000000000000000        0x0 /home/wrsadmin/github/syslinux-6.03/bios/com32/lib/libcom32core.a(strncmp.o)
 .note.GNU-stack
                0x0000000000000000        0x0 /home/wrsadmin/github/syslinux-6.03/bios/com32/lib/libcom32core.a(vfprintf.o)
 .note.GNU-stack
                0x0000000000000000        0x0 /home/wrsadmin/github/syslinux-6.03/bios/com32/lib/libcom32core.a(strlen.o)
 .note.GNU-stack
                0x0000000000000000        0x0 /home/wrsadmin/github/syslinux-6.03/bios/com32/lib/libcom32core.a(vsnprintf.o)
 .note.GNU-stack
                0x0000000000000000        0x0 /home/wrsadmin/github/syslinux-6.03/bios/com32/lib/libcom32core.a(snprintf.o)
 .note.GNU-stack
                0x0000000000000000        0x0 /home/wrsadmin/github/syslinux-6.03/bios/com32/lib/libcom32core.a(stpcpy.o)
 .note.GNU-stack
                0x0000000000000000        0x0 /home/wrsadmin/github/syslinux-6.03/bios/com32/lib/libcom32core.a(strcmp.o)
 .note.GNU-stack
                0x0000000000000000        0x0 /home/wrsadmin/github/syslinux-6.03/bios/com32/lib/libcom32core.a(strdup.o)
 .note.GNU-stack
                0x0000000000000000        0x0 /home/wrsadmin/github/syslinux-6.03/bios/com32/lib/libcom32core.a(strcpy.o)
 .note.GNU-stack
                0x0000000000000000        0x0 /home/wrsadmin/github/syslinux-6.03/bios/com32/lib/libcom32core.a(strncpy.o)
 .note.GNU-stack
                0x0000000000000000        0x0 /home/wrsadmin/github/syslinux-6.03/bios/com32/lib/libcom32core.a(fopen.o)
 .note.GNU-stack
                0x0000000000000000        0x0 /home/wrsadmin/github/syslinux-6.03/bios/com32/lib/libcom32core.a(fread.o)
 .note.GNU-stack
                0x0000000000000000        0x0 /home/wrsadmin/github/syslinux-6.03/bios/com32/lib/libcom32core.a(fread2.o)
 .note.GNU-stack
                0x0000000000000000        0x0 /home/wrsadmin/github/syslinux-6.03/bios/com32/lib/libcom32core.a(puts.o)
 .note.GNU-stack
                0x0000000000000000        0x0 /home/wrsadmin/github/syslinux-6.03/bios/com32/lib/libcom32core.a(strtoul.o)
 .note.GNU-stack
                0x0000000000000000        0x0 /home/wrsadmin/github/syslinux-6.03/bios/com32/lib/libcom32core.a(strntoumax.o)
 .note.GNU-stack
                0x0000000000000000        0x0 /home/wrsadmin/github/syslinux-6.03/bios/com32/lib/libcom32core.a(strcasecmp.o)
 .note.GNU-stack
                0x0000000000000000        0x0 /home/wrsadmin/github/syslinux-6.03/bios/com32/lib/libcom32core.a(sprintf.o)
 .note.GNU-stack
                0x0000000000000000        0x0 /home/wrsadmin/github/syslinux-6.03/bios/com32/lib/libcom32core.a(strlcat.o)
 .note.GNU-stack
                0x0000000000000000        0x0 /home/wrsadmin/github/syslinux-6.03/bios/com32/lib/libcom32core.a(strchr.o)
 .note.GNU-stack
                0x0000000000000000        0x0 /home/wrsadmin/github/syslinux-6.03/bios/com32/lib/libcom32core.a(strlcpy.o)
 .note.GNU-stack
                0x0000000000000000        0x0 /home/wrsadmin/github/syslinux-6.03/bios/com32/lib/libcom32core.a(strncasecmp.o)
 .note.GNU-stack
                0x0000000000000000        0x0 /home/wrsadmin/github/syslinux-6.03/bios/com32/lib/libcom32core.a(ctypes.o)
 .note.GNU-stack
                0x0000000000000000        0x0 /home/wrsadmin/github/syslinux-6.03/bios/com32/lib/libcom32core.a(fputs.o)
 .note.GNU-stack
                0x0000000000000000        0x0 /home/wrsadmin/github/syslinux-6.03/bios/com32/lib/libcom32core.a(fwrite2.o)
 .note.GNU-stack
                0x0000000000000000        0x0 /home/wrsadmin/github/syslinux-6.03/bios/com32/lib/libcom32core.a(fwrite.o)
 .note.GNU-stack
                0x0000000000000000        0x0 /home/wrsadmin/github/syslinux-6.03/bios/com32/lib/libcom32core.a(fgetc.o)
 .note.GNU-stack
                0x0000000000000000        0x0 /home/wrsadmin/github/syslinux-6.03/bios/com32/lib/libcom32core.a(fclose.o)
 .note.GNU-stack
                0x0000000000000000        0x0 /home/wrsadmin/github/syslinux-6.03/bios/com32/lib/libcom32core.a(lmalloc.o)
 .note.GNU-stack
                0x0000000000000000        0x0 /home/wrsadmin/github/syslinux-6.03/bios/com32/lib/libcom32core.a(err_read.o)
 .note.GNU-stack
                0x0000000000000000        0x0 /home/wrsadmin/github/syslinux-6.03/bios/com32/lib/libcom32core.a(err_write.o)
 .note.GNU-stack
                0x0000000000000000        0x0 /home/wrsadmin/github/syslinux-6.03/bios/com32/lib/libcom32core.a(null_read.o)
 .note.GNU-stack
                0x0000000000000000        0x0 /home/wrsadmin/github/syslinux-6.03/bios/com32/lib/libcom32core.a(stdcon_write.o)
 .note.GNU-stack
                0x0000000000000000        0x0 /home/wrsadmin/github/syslinux-6.03/bios/com32/lib/libcom32core.a(memscan.o)
 .note.GNU-stack
                0x0000000000000000        0x0 /home/wrsadmin/github/syslinux-6.03/bios/com32/lib/libcom32core.a(strrchr.o)
 .note.GNU-stack
                0x0000000000000000        0x0 /home/wrsadmin/github/syslinux-6.03/bios/com32/lib/libcom32core.a(strcat.o)
 .note.GNU-stack
                0x0000000000000000        0x0 /home/wrsadmin/github/syslinux-6.03/bios/com32/lib/libcom32core.a(__udivdi3.o)
 .note.GNU-stack
                0x0000000000000000        0x0 /home/wrsadmin/github/syslinux-6.03/bios/com32/lib/libcom32core.a(__udivmoddi4.o)
 .note.GNU-stack
                0x0000000000000000        0x0 /home/wrsadmin/github/syslinux-6.03/bios/com32/lib/libcom32core.a(__umoddi3.o)
 .note.GNU-stack
                0x0000000000000000        0x0 /home/wrsadmin/github/syslinux-6.03/bios/com32/lib/libcom32core.a(__divdi3.o)
 .note.GNU-stack
                0x0000000000000000        0x0 /home/wrsadmin/github/syslinux-6.03/bios/com32/lib/libcom32core.a(__moddi3.o)
 .note.GNU-stack
                0x0000000000000000        0x0 /home/wrsadmin/github/syslinux-6.03/bios/com32/lib/libcom32core.a(debug.o)
 .note.GNU-stack
                0x0000000000000000        0x0 /home/wrsadmin/github/syslinux-6.03/bios/com32/lib/libcom32core.a(intcall.o)
 .note.GNU-stack
                0x0000000000000000        0x0 /home/wrsadmin/github/syslinux-6.03/bios/com32/lib/libcom32core.a(farcall.o)
 .note.GNU-stack
                0x0000000000000000        0x0 /home/wrsadmin/github/syslinux-6.03/bios/com32/lib/libcom32core.a(cfarcall.o)
 .note.GNU-stack
                0x0000000000000000        0x0 /home/wrsadmin/github/syslinux-6.03/bios/com32/lib/libcom32core.a(zeroregs.o)
 .note.GNU-stack
                0x0000000000000000        0x0 /home/wrsadmin/github/syslinux-6.03/bios/com32/lib/libcom32core.a(argv.o)
 .note.GNU-stack
                0x0000000000000000        0x0 /home/wrsadmin/github/syslinux-6.03/bios/com32/lib/libcom32core.a(sleep.o)
 .note.GNU-stack
                0x0000000000000000        0x0 /home/wrsadmin/github/syslinux-6.03/bios/com32/lib/libcom32core.a(fileinfo.o)
 .note.GNU-stack
                0x0000000000000000        0x0 /home/wrsadmin/github/syslinux-6.03/bios/com32/lib/libcom32core.a(opendev.o)
 .note.GNU-stack
                0x0000000000000000        0x0 /home/wrsadmin/github/syslinux-6.03/bios/com32/lib/libcom32core.a(read.o)
 .note.GNU-stack
                0x0000000000000000        0x0 /home/wrsadmin/github/syslinux-6.03/bios/com32/lib/libcom32core.a(write.o)
 .note.GNU-stack
                0x0000000000000000        0x0 /home/wrsadmin/github/syslinux-6.03/bios/com32/lib/libcom32core.a(ftell.o)
 .note.GNU-stack
                0x0000000000000000        0x0 /home/wrsadmin/github/syslinux-6.03/bios/com32/lib/libcom32core.a(close.o)
 .note.GNU-stack
                0x0000000000000000        0x0 /home/wrsadmin/github/syslinux-6.03/bios/com32/lib/libcom32core.a(open.o)
 .note.GNU-stack
                0x0000000000000000        0x0 /home/wrsadmin/github/syslinux-6.03/bios/com32/lib/libcom32core.a(fileread.o)
 .note.GNU-stack
                0x0000000000000000        0x0 /home/wrsadmin/github/syslinux-6.03/bios/com32/lib/libcom32core.a(fileclose.o)
 .note.GNU-stack
                0x0000000000000000        0x0 /home/wrsadmin/github/syslinux-6.03/bios/com32/lib/libcom32core.a(openmem.o)
 .note.GNU-stack
                0x0000000000000000        0x0 /home/wrsadmin/github/syslinux-6.03/bios/com32/lib/libcom32core.a(isatty.o)
 .note.GNU-stack
                0x0000000000000000        0x0 /home/wrsadmin/github/syslinux-6.03/bios/com32/lib/libcom32core.a(fstat.o)
 .note.GNU-stack
                0x0000000000000000        0x0 /home/wrsadmin/github/syslinux-6.03/bios/com32/lib/libcom32core.a(dprintf.o)
 .note.GNU-stack
                0x0000000000000000        0x0 /home/wrsadmin/github/syslinux-6.03/bios/com32/lib/libcom32core.a(vdprintf.o)
 .note.GNU-stack
                0x0000000000000000        0x0 /home/wrsadmin/github/syslinux-6.03/bios/com32/lib/libcom32core.a(idle.o)
 .note.GNU-stack
                0x0000000000000000        0x0 /home/wrsadmin/github/syslinux-6.03/bios/com32/lib/libcom32core.a(exit.o)
 .note.GNU-stack
                0x0000000000000000        0x0 /home/wrsadmin/github/syslinux-6.03/bios/com32/lib/libcom32core.a(common.o)
 .note.GNU-stack
                0x0000000000000000        0x0 /home/wrsadmin/github/syslinux-6.03/bios/com32/lib/libcom32core.a(elf_module.o)
 .note.GNU-stack
                0x0000000000000000        0x0 /home/wrsadmin/github/syslinux-6.03/bios/com32/lib/libcom32core.a(elfutils.o)
 .note.GNU-stack
                0x0000000000000000        0x0 /home/wrsadmin/github/syslinux-6.03/bios/com32/lib/libcom32core.a(exec.o)
 .note.GNU-stack
                0x0000000000000000        0x0 /home/wrsadmin/github/syslinux-6.03/bios/com32/lib/libcom32core.a(elf_module.o)
 .note.GNU-stack
                0x0000000000000000        0x0 libisolinux.a(rawcon.o)
 .note.GNU-stack
                0x0000000000000000        0x0 libisolinux.a(localboot.o)
 .note.GNU-stack
                0x0000000000000000        0x0 libisolinux.a(isolinux-c.o)
