Archive member included to satisfy reference by file (symbol)

bin/blib.a(config.o)          (obj_config)
bin/blib.a(bios_console.o)    bin/blib.a(config.o) (obj_bios_console)
bin/blib.a(comboot.o)         bin/blib.a(config.o) (obj_comboot)
bin/blib.a(bzimage.o)         bin/blib.a(config.o) (obj_bzimage)
bin/blib.a(elfboot.o)         bin/blib.a(config.o) (obj_elfboot)
bin/blib.a(multiboot.o)       bin/blib.a(config.o) (obj_multiboot)
bin/blib.a(pxe_image.o)       bin/blib.a(config.o) (obj_pxe_image)
bin/blib.a(com32.o)           bin/blib.a(config.o) (obj_com32)
bin/blib.a(undionly.o)        (obj_undionly)
bin/blib.a(undipreload.o)     bin/blib.a(undionly.o) (preloaded_undi)
bin/blib.a(iscsiboot.o)       bin/blib.a(config.o) (obj_iscsiboot)
bin/blib.a(ibft.o)            bin/blib.a(iscsiboot.o) (ibft_fill_data)
bin/blib.a(aoeboot.o)         bin/blib.a(config.o) (obj_aoeboot)
bin/blib.a(int13.o)           bin/blib.a(iscsiboot.o) (register_int13_drive)
bin/blib.a(keepsan.o)         bin/blib.a(iscsiboot.o) (keep_san)
bin/blib.a(pxe_call.o)        bin/blib.a(pxe_image.o) (pxe_activate)
bin/blib.a(comboot_resolv.o)  bin/blib.a(config.o) (obj_comboot_resolv)
bin/blib.a(com32_call.o)      bin/blib.a(config.o) (obj_com32_call)
bin/blib.a(comboot_call.o)    bin/blib.a(comboot.o) (comboot_return)
bin/blib.a(pxe_cmd.o)         bin/blib.a(config.o) (obj_pxe_cmd)
bin/blib.a(x86_string.o)      bin/blib.a(comboot.o) (__memcpy)
bin/blib.a(setjmp.o)          bin/blib.a(comboot.o) (setjmp)
bin/blib.a(virtaddr.o)        bin/blib.a(elfboot.o) (_virt_to_phys)
bin/blib.a(librm.o)           bin/blib.a(pxe_call.o) (rm_cs)
bin/blib.a(kkpxeprefix.o)     (obj_kkpxeprefix)
bin/blib.a(libprefix.o)       bin/blib.a(kkpxeprefix.o) (print_character)
bin/blib.a(pxe_entry.o)       bin/blib.a(pxe_call.o) (ppxe)
bin/blib.a(com32_wrapper.o)   bin/blib.a(config.o) (obj_com32_wrapper)
bin/blib.a(settings.o)        bin/blib.a(ibft.o) (fetch_setting_len)
bin/blib.a(interface.o)       bin/blib.a(comboot_resolv.o) (plug)
bin/blib.a(uri.o)             bin/blib.a(settings.o) (uri_encode)
bin/blib.a(asprintf.o)        bin/blib.a(uri.o) (asprintf)
bin/blib.a(process.o)         bin/blib.a(comboot_resolv.o) (step)
bin/blib.a(refcnt.o)          bin/blib.a(comboot_call.o) (ref_get)
bin/blib.a(init.o)            bin/blib.a(bzimage.o) (shutdown)
bin/blib.a(string.o)          bin/blib.a(ibft.o) (strcpy)
bin/blib.a(vsprintf.o)        bin/blib.a(asprintf.o) (vsnprintf)
bin/blib.a(posix_io.o)        bin/blib.a(comboot_call.o) (open)
bin/blib.a(console.o)         bin/blib.a(comboot_call.o) (putchar)
bin/blib.a(open.o)            bin/blib.a(posix_io.o) (xfer_open_uri_string)
bin/blib.a(acpi.o)            bin/blib.a(ibft.o) (acpi_fix_checksum)
bin/blib.a(resolv.o)          bin/blib.a(comboot_resolv.o) (null_resolv)
bin/blib.a(misc.o)            bin/blib.a(bzimage.o) (strtoul)
bin/blib.a(cwuri.o)           bin/blib.a(open.o) (cwuri)
bin/blib.a(main.o)            bin/blib.a(kkpxeprefix.o) (main)
bin/blib.a(malloc.o)          bin/blib.a(settings.o) (malloc)
bin/blib.a(ansiesc.o)         bin/blib.a(bios_console.o) (ansiesc_process)
bin/blib.a(device.o)          bin/blib.a(config.o) (obj_device)
bin/blib.a(exec.o)            bin/blib.a(comboot_call.o) (system)
bin/blib.a(serial.o)          bin/blib.a(comboot_call.o) (serial_putc)
bin/blib.a(basename.o)        bin/blib.a(uri.o) (dirname)
bin/blib.a(cpio.o)            bin/blib.a(bzimage.o) (cpio_set_field)
bin/blib.a(iobuf.o)           bin/blib.a(posix_io.o) (free_iob)
bin/blib.a(image.o)           bin/blib.a(comboot_call.o) (alloc_image)
bin/blib.a(timer.o)           bin/blib.a(serial.o) (mdelay)
bin/blib.a(uuid.o)            bin/blib.a(settings.o) (uuid_ntoa)
bin/blib.a(aoe.o)             bin/blib.a(aoeboot.o) (aoe_detach)
bin/blib.a(ipv4.o)            bin/blib.a(ibft.o) (ip_setting)
bin/blib.a(netdevice.o)       bin/blib.a(ipv4.o) (net_devices)
bin/blib.a(retry.o)           bin/blib.a(aoe.o) (start_timer)
bin/blib.a(icmp.o)            bin/blib.a(ipv4.o) (obj_icmp)
bin/blib.a(netdev_settings.o)
                              bin/blib.a(netdevice.o) (netdev_settings_operations)
bin/blib.a(iscsi.o)           bin/blib.a(iscsiboot.o) (iscsi_detach)
bin/blib.a(ftp.o)             bin/blib.a(config.o) (obj_ftp)
bin/blib.a(http.o)            bin/blib.a(config.o) (obj_http)
bin/blib.a(https.o)           bin/blib.a(config.o) (obj_https)
bin/blib.a(dns.o)             bin/blib.a(ibft.o) (dns_setting)
bin/blib.a(tftp.o)            bin/blib.a(config.o) (obj_tftp)
bin/blib.a(script.o)          bin/blib.a(config.o) (obj_script)
bin/blib.a(elf.o)             bin/blib.a(elfboot.o) (elf_load)
bin/blib.a(segment.o)         bin/blib.a(comboot.o) (prep_segment)
bin/blib.a(embedded.o)        bin/blib.a(config.o) (obj_embedded)
bin/blib.a(ata.o)             bin/blib.a(aoeboot.o) (init_atadev)
bin/blib.a(scsi.o)            bin/blib.a(iscsi.o) (scsi_detached_command)
bin/blib.a(md5.o)             bin/blib.a(iscsi.o) (md5_algorithm)
bin/blib.a(chap.o)            bin/blib.a(iscsi.o) (chap_init)
bin/blib.a(shell_banner.o)    bin/blib.a(main.o) (shell_banner)
bin/blib.a(strerror.o)        bin/blib.a(iscsiboot.o) (strerror)
bin/blib.a(shell.o)           bin/blib.a(main.o) (shell)
bin/blib.a(image_cmd.o)       bin/blib.a(config.o) (obj_image_cmd)
bin/blib.a(route_cmd.o)       bin/blib.a(config.o) (obj_route_cmd)
bin/blib.a(dhcp_cmd.o)        bin/blib.a(config.o) (obj_dhcp_cmd)
bin/blib.a(autoboot_cmd.o)    bin/blib.a(config.o) (obj_autoboot_cmd)
bin/blib.a(ifmgmt_cmd.o)      bin/blib.a(pxe_cmd.o) (ifcommon_exec)
bin/blib.a(sanboot_cmd.o)     bin/blib.a(config.o) (obj_sanboot_cmd)
bin/blib.a(login_cmd.o)       bin/blib.a(config.o) (obj_login_cmd)
bin/blib.a(config_cmd.o)      bin/blib.a(config.o) (obj_config_cmd)
bin/blib.a(nvo_cmd.o)         bin/blib.a(config.o) (obj_nvo_cmd)
bin/blib.a(settings_ui.o)     bin/blib.a(config_cmd.o) (settings_ui)
bin/blib.a(login_ui.o)        bin/blib.a(login_cmd.o) (login_ui)
bin/blib.a(colour.o)          bin/blib.a(settings_ui.o) (init_pair)
bin/blib.a(print.o)           bin/blib.a(settings_ui.o) (wprintw)
bin/blib.a(mucurses.o)        bin/blib.a(print.o) (_wputch)
bin/blib.a(wininit.o)         bin/blib.a(settings_ui.o) (initscr)
bin/blib.a(winattrs.o)        bin/blib.a(settings_ui.o) (wattroff)
bin/blib.a(ansi_screen.o)     bin/blib.a(settings_ui.o) (_COLS)
bin/blib.a(clear.o)           bin/blib.a(settings_ui.o) (wclrtoeol)
bin/blib.a(editbox.o)         bin/blib.a(settings_ui.o) (init_editbox)
bin/blib.a(autoboot.o)        bin/blib.a(sanboot_cmd.o) (boot_root_path)
bin/blib.a(ifmgmt.o)          bin/blib.a(ifmgmt_cmd.o) (ifopen)
bin/blib.a(dhcpmgmt.o)        bin/blib.a(dhcp_cmd.o) (dhcp)
bin/blib.a(pxemenu.o)         bin/blib.a(config.o) (obj_pxemenu)
bin/blib.a(imgmgmt.o)         bin/blib.a(comboot_call.o) (imgfetch)
bin/blib.a(route.o)           bin/blib.a(route_cmd.o) (route)
bin/blib.a(relocate.o)        bin/blib.a(libprefix.o) (relocate)
bin/blib.a(timer2.o)          bin/blib.a(timer.o) (timer2_udelay)
bin/blib.a(librm_mgmt.o)      bin/blib.a(com32_call.o) (copy_user_to_rm_stack)
bin/blib.a(gateA20.o)         bin/blib.a(librm.o) (gateA20_set)
bin/blib.a(memmap.o)          bin/blib.a(multiboot.o) (get_memmap)
bin/blib.a(bootsector.o)      bin/blib.a(int13.o) (call_bootsector)
bin/blib.a(undinet.o)         bin/blib.a(undionly.o) (undinet_probe)
bin/blib.a(abft.o)            bin/blib.a(aoeboot.o) (abft_fill_data)
bin/blib.a(memtop_umalloc.o)  bin/blib.a(image.o) (urealloc)
bin/blib.a(biosint.o)         bin/blib.a(int13.o) (hook_bios_interrupt)
bin/blib.a(bios_timer.o)      bin/blib.a(retry.o) (currticks)
bin/blib.a(bios_nap.o)        bin/blib.a(console.o) (cpu_nap)
bin/blib.a(pxe_udp.o)         bin/blib.a(pxe_call.o) (pxenv_udp_open)
bin/blib.a(pxe_undi.o)        bin/blib.a(pxe_udp.o) (pxe_netdev)
bin/blib.a(pxe_loader.o)      bin/blib.a(pxe_call.o) (undi_loader)
bin/blib.a(pxe_preboot.o)     bin/blib.a(pxe_call.o) (pxenv_unload_stack)
bin/blib.a(pxe_tftp.o)        bin/blib.a(pxe_call.o) (pxenv_tftp_open)
bin/blib.a(pxe_file.o)        bin/blib.a(pxe_call.o) (pxenv_file_open)
bin/blib.a(pxeparent_dhcp.o)  bin/blib.a(kkpxeprefix.o) (obj_pxeparent_dhcp)
bin/blib.a(pxeparent.o)       bin/blib.a(undinet.o) (pxeparent_call)
bin/blib.a(stack16.o)         bin/blib.a(kkpxeprefix.o) (_estack16)
bin/blib.a(stack.o)           bin/blib.a(librm.o) (_estack)
bin/blib.a(unnrv2b16.o)       bin/blib.a(libprefix.o) (decompress16)
bin/blib.a(undiisr.o)         bin/blib.a(undinet.o) (undiisr)
bin/blib.a(ctype.o)           bin/blib.a(misc.o) (isspace)
bin/blib.a(getkey.o)          bin/blib.a(settings_ui.o) (getkey)
bin/blib.a(getopt.o)          bin/blib.a(image_cmd.o) (getopt_long)
bin/blib.a(bitmap.o)          bin/blib.a(tftp.o) (bitmap_resize)
bin/blib.a(downloader.o)      bin/blib.a(imgmgmt.o) (create_downloader)
bin/blib.a(xfer.o)            bin/blib.a(tftp.o) (ignore_xfer_close)
bin/blib.a(linebuf.o)         bin/blib.a(http.o) (buffered_line)
bin/blib.a(base64.o)          bin/blib.a(http.o) (base64_encode)
bin/blib.a(job.o)             bin/blib.a(downloader.o) (ignore_job_done)
bin/blib.a(monojob.o)         bin/blib.a(dhcpmgmt.o) (monojob_wait)
bin/blib.a(random.o)          bin/blib.a(iscsi.o) (random)
bin/blib.a(fakedhcp.o)        bin/blib.a(pxe_preboot.o) (create_fakedhcpdiscover)
bin/blib.a(tcp.o)             bin/blib.a(iscsi.o) (tcp_sock_stream)
bin/blib.a(arp.o)             bin/blib.a(pxe_undi.o) (arp_protocol)
bin/blib.a(ethernet.o)        bin/blib.a(undinet.o) (alloc_etherdev)
bin/blib.a(tcpip.o)           bin/blib.a(ipv4.o) (tcpip_rx)
bin/blib.a(tls.o)             bin/blib.a(https.o) (add_tls)
bin/blib.a(rarp.o)            bin/blib.a(pxe_undi.o) (rarp_protocol)
bin/blib.a(nullnet.o)         bin/blib.a(undinet.o) (null_netdev_operations)
bin/blib.a(dhcppkt.o)         bin/blib.a(fakedhcp.o) (dhcppkt_store)
bin/blib.a(cachedhcp.o)       bin/blib.a(pxeparent_dhcp.o) (store_cached_dhcpack)
bin/blib.a(udp.o)             bin/blib.a(dns.o) (udp_sock_dgram)
bin/blib.a(dhcpopts.o)        bin/blib.a(dhcppkt.o) (dhcpopt_store)
bin/blib.a(dhcp.o)            bin/blib.a(dhcpmgmt.o) (dhcp_chaddr)
bin/blib.a(smbios_settings.o)
                              bin/blib.a(dhcp.o) (uuid_setting)
bin/blib.a(axtls_sha1.o)      bin/blib.a(tls.o) (sha1_algorithm)
bin/blib.a(axtls_aes.o)       bin/blib.a(tls.o) (aes_cbc_algorithm)
bin/blib.a(hmac.o)            bin/blib.a(tls.o) (hmac_init)
bin/blib.a(crypto_null.o)     bin/blib.a(tls.o) (pubkey_null)
bin/blib.a(x509.o)            bin/blib.a(tls.o) (x509_rsa_public_key)
bin/blib.a(aes.o)             bin/blib.a(axtls_aes.o) (AES_set_key)
bin/blib.a(sha1.o)            bin/blib.a(axtls_sha1.o) (SHA1Init)
bin/blib.a(rsa.o)             bin/blib.a(tls.o) (RSA_pub_key_new)
bin/blib.a(bigint.o)          bin/blib.a(rsa.o) (bi_initialize)
bin/blib.a(editstring.o)      bin/blib.a(settings_ui.o) (edit_string)
bin/blib.a(readline.o)        bin/blib.a(shell.o) (readline)
bin/blib.a(pic8259.o)         bin/blib.a(undinet.o) (send_eoi)
bin/blib.a(basemem_packet.o)  bin/blib.a(undinet.o) (basemem_packet)
bin/blib.a(pnpbios.o)         bin/blib.a(undinet.o) (find_pnp_bios)
bin/blib.a(hidemem.o)         bin/blib.a(memtop_umalloc.o) (hide_umalloc)
bin/blib.a(e820mangler.o)     bin/blib.a(hidemem.o) (hidemem_base)
bin/blib.a(__udivdi3.o)       bin/blib.a(bigint.o) (__udivdi3)
bin/blib.a(__umoddi3.o)       bin/blib.a(bigint.o) (__umoddi3)
bin/blib.a(__udivmoddi4.o)    bin/blib.a(__udivdi3.o) (__udivmoddi4)
bin/blib.a(filter.o)          bin/blib.a(tls.o) (filter_window)
bin/blib.a(smbios.o)          bin/blib.a(smbios_settings.o) (find_smbios_structure)
bin/blib.a(cbc.o)             bin/blib.a(axtls_aes.o) (cbc_encrypt)
bin/blib.a(asn1.o)            bin/blib.a(x509.o) (asn1_enter)
bin/blib.a(bios_smbios.o)     bin/blib.a(smbios.o) (find_smbios)

Allocating common symbols
Common symbol       size              file

obj_timer           0x0               bin/blib.a(timer.o)
obj_udp             0x0               bin/blib.a(udp.o)
obj_undiisr         0x0               bin/blib.a(undiisr.o)
obj_basename        0x0               bin/blib.a(basename.o)
obj_readline        0x0               bin/blib.a(readline.o)
obj_chap            0x0               bin/blib.a(chap.o)
obj_virtaddr        0x0               bin/blib.a(virtaddr.o)
obj_rsa             0x0               bin/blib.a(rsa.o)
obj___udivdi3       0x0               bin/blib.a(__udivdi3.o)
obj___umoddi3       0x0               bin/blib.a(__umoddi3.o)
obj_elf             0x0               bin/blib.a(elf.o)
obj_shell_banner    0x0               bin/blib.a(shell_banner.o)
obj_bitmap          0x0               bin/blib.a(bitmap.o)
obj_md5             0x0               bin/blib.a(md5.o)
obj_refcnt          0x0               bin/blib.a(refcnt.o)
obj_ansiesc         0x0               bin/blib.a(ansiesc.o)
obj_kkpxeprefix     0x0               bin/blib.a(kkpxeprefix.o)
obj_pxe_udp         0x0               bin/blib.a(pxe_udp.o)
obj_bios_timer      0x0               bin/blib.a(bios_timer.o)
obj_editbox         0x0               bin/blib.a(editbox.o)
obj___udivmoddi4    0x0               bin/blib.a(__udivmoddi4.o)
obj_dns             0x0               bin/blib.a(dns.o)
obj_editstring      0x0               bin/blib.a(editstring.o)
obj_nvo_cmd         0x0               bin/blib.a(nvo_cmd.o)
obj_aoe             0x0               bin/blib.a(aoe.o)
obj_print           0x0               bin/blib.a(print.o)
obj_monojob         0x0               bin/blib.a(monojob.o)
obj_wininit         0x0               bin/blib.a(wininit.o)
obj_base64          0x0               bin/blib.a(base64.o)
obj_axtls_sha1      0x0               bin/blib.a(axtls_sha1.o)
obj_login_cmd       0x0               bin/blib.a(login_cmd.o)
obj_biosint         0x0               bin/blib.a(biosint.o)
isapnp_read_port    0x2               bin/blib.a(pxe_preboot.o)
obj_timer2          0x0               bin/blib.a(timer2.o)
obj_xfer            0x0               bin/blib.a(xfer.o)
obj_ibft            0x0               bin/blib.a(ibft.o)
obj_pxe_loader      0x0               bin/blib.a(pxe_loader.o)
obj_abft            0x0               bin/blib.a(abft.o)
obj_image           0x0               bin/blib.a(image.o)
obj_strerror        0x0               bin/blib.a(strerror.o)
obj_uri             0x0               bin/blib.a(uri.o)
obj_sanboot_cmd     0x0               bin/blib.a(sanboot_cmd.o)
obj_ifmgmt          0x0               bin/blib.a(ifmgmt.o)
obj_login_ui        0x0               bin/blib.a(login_ui.o)
obj_cbc             0x0               bin/blib.a(cbc.o)
obj_bios_nap        0x0               bin/blib.a(bios_nap.o)
obj_ctype           0x0               bin/blib.a(ctype.o)
optarg              0x4               bin/blib.a(getopt.o)
comboot_return      0x1c              bin/blib.a(comboot_call.o)
obj_com32           0x0               bin/blib.a(com32.o)
obj_memtop_umalloc  0x0               bin/blib.a(memtop_umalloc.o)
obj_iobuf           0x0               bin/blib.a(iobuf.o)
obj_clear           0x0               bin/blib.a(clear.o)
obj_route           0x0               bin/blib.a(route.o)
obj_unnrv2b16       0x0               bin/blib.a(unnrv2b16.o)
obj_malloc          0x0               bin/blib.a(malloc.o)
obj_acpi            0x0               bin/blib.a(acpi.o)
obj_tcp             0x0               bin/blib.a(tcp.o)
obj_basemem_packet  0x0               bin/blib.a(basemem_packet.o)
obj_segment         0x0               bin/blib.a(segment.o)
obj_com32_call      0x0               bin/blib.a(com32_call.o)
obj_string          0x0               bin/blib.a(string.o)
obj_stack           0x0               bin/blib.a(stack.o)
obj_autoboot_cmd    0x0               bin/blib.a(autoboot_cmd.o)
freemem             0x4               bin/blib.a(malloc.o)
obj_x86_string      0x0               bin/blib.a(x86_string.o)
obj_retry           0x0               bin/blib.a(retry.o)
obj_smbios_settings
                    0x0               bin/blib.a(smbios_settings.o)
obj_gateA20         0x0               bin/blib.a(gateA20.o)
obj_open            0x0               bin/blib.a(open.o)
obj_elfboot         0x0               bin/blib.a(elfboot.o)
obj_console         0x0               bin/blib.a(console.o)
obj_init            0x0               bin/blib.a(init.o)
obj_crypto_null     0x0               bin/blib.a(crypto_null.o)
obj_fakedhcp        0x0               bin/blib.a(fakedhcp.o)
obj_cpio            0x0               bin/blib.a(cpio.o)
obj_settings_ui     0x0               bin/blib.a(settings_ui.o)
obj_posix_io        0x0               bin/blib.a(posix_io.o)
obj_nullnet         0x0               bin/blib.a(nullnet.o)
obj_main            0x0               bin/blib.a(main.o)
obj_tcpip           0x0               bin/blib.a(tcpip.o)
obj_com32_wrapper   0x0               bin/blib.a(com32_wrapper.o)
obj_bigint          0x0               bin/blib.a(bigint.o)
obj_pxe_undi        0x0               bin/blib.a(pxe_undi.o)
obj_ethernet        0x0               bin/blib.a(ethernet.o)
__licence_gpl2_only
                    0x0               bin/blib.a(bios_console.o)
obj_aoeboot         0x0               bin/blib.a(aoeboot.o)
optind              0x4               bin/blib.a(exec.o)
obj_pxeparent       0x0               bin/blib.a(pxeparent.o)
obj_colour          0x0               bin/blib.a(colour.o)
obj_getopt          0x0               bin/blib.a(getopt.o)
obj_image_cmd       0x0               bin/blib.a(image_cmd.o)
obj_cachedhcp       0x0               bin/blib.a(cachedhcp.o)
obj_ifmgmt_cmd      0x0               bin/blib.a(ifmgmt_cmd.o)
obj_dhcppkt         0x0               bin/blib.a(dhcppkt.o)
obj_pxemenu         0x0               bin/blib.a(pxemenu.o)
obj_getkey          0x0               bin/blib.a(getkey.o)
obj_interface       0x0               bin/blib.a(interface.o)
obj_stack16         0x0               bin/blib.a(stack16.o)
nextchar            0x4               bin/blib.a(exec.o)
obj_bios_console    0x0               bin/blib.a(bios_console.o)
obj_undionly        0x0               bin/blib.a(undionly.o)
obj_pnpbios         0x0               bin/blib.a(pnpbios.o)
obj_ipv4            0x0               bin/blib.a(ipv4.o)
obj_settings        0x0               bin/blib.a(settings.o)
obj_iscsiboot       0x0               bin/blib.a(iscsiboot.o)
obj_dhcpopts        0x0               bin/blib.a(dhcpopts.o)
obj_mucurses        0x0               bin/blib.a(mucurses.o)
obj_undinet         0x0               bin/blib.a(undinet.o)
__licence_gpl2_or_later
                    0x0               bin/blib.a(config.o)
obj_pxe_file        0x0               bin/blib.a(pxe_file.o)
obj_smbios          0x0               bin/blib.a(smbios.o)
obj_autoboot        0x0               bin/blib.a(autoboot.o)
obj_icmp            0x0               bin/blib.a(icmp.o)
obj_aes             0x0               bin/blib.a(aes.o)
obj_https           0x0               bin/blib.a(https.o)
obj_ansi_screen     0x0               bin/blib.a(ansi_screen.o)
obj_exec            0x0               bin/blib.a(exec.o)
obj_bzimage         0x0               bin/blib.a(bzimage.o)
obj_resolv          0x0               bin/blib.a(resolv.o)
obj_script          0x0               bin/blib.a(script.o)
obj_e820mangler     0x0               bin/blib.a(e820mangler.o)
obj_scsi            0x0               bin/blib.a(scsi.o)
obj_dhcp_cmd        0x0               bin/blib.a(dhcp_cmd.o)
obj_cwuri           0x0               bin/blib.a(cwuri.o)
obj_librm           0x0               bin/blib.a(librm.o)
obj_filter          0x0               bin/blib.a(filter.o)
obj_pxe_entry       0x0               bin/blib.a(pxe_entry.o)
obj_tls             0x0               bin/blib.a(tls.o)
obj_pxe_preboot     0x0               bin/blib.a(pxe_preboot.o)
obj_config_cmd      0x0               bin/blib.a(config_cmd.o)
obj_tftp            0x0               bin/blib.a(tftp.o)
obj_vsprintf        0x0               bin/blib.a(vsprintf.o)
obj_hmac            0x0               bin/blib.a(hmac.o)
obj_config          0x0               bin/blib.a(config.o)
obj_asprintf        0x0               bin/blib.a(asprintf.o)
obj_route_cmd       0x0               bin/blib.a(route_cmd.o)
obj_int13           0x0               bin/blib.a(int13.o)
obj_pxe_image       0x0               bin/blib.a(pxe_image.o)
obj_comboot         0x0               bin/blib.a(comboot.o)
obj_x509            0x0               bin/blib.a(x509.o)
obj_sha1            0x0               bin/blib.a(sha1.o)
obj_dhcp            0x0               bin/blib.a(dhcp.o)
obj_bootsector      0x0               bin/blib.a(bootsector.o)
obj_winattrs        0x0               bin/blib.a(winattrs.o)
obj_keepsan         0x0               bin/blib.a(keepsan.o)
optopt              0x4               bin/blib.a(getopt.o)
obj_netdev_settings
                    0x0               bin/blib.a(netdev_settings.o)
obj_process         0x0               bin/blib.a(process.o)
__licence_public_domain
                    0x0               bin/blib.a(bios_console.o)
obj_embedded        0x0               bin/blib.a(embedded.o)
obj_memmap          0x0               bin/blib.a(memmap.o)
obj_undipreload     0x0               bin/blib.a(undipreload.o)
obj_pxe_call        0x0               bin/blib.a(pxe_call.o)
obj_axtls_aes       0x0               bin/blib.a(axtls_aes.o)
obj_libprefix       0x0               bin/blib.a(libprefix.o)
__licence_bsd2      0x0               bin/blib.a(iscsiboot.o)
obj_netdevice       0x0               bin/blib.a(netdevice.o)
obj_uuid            0x0               bin/blib.a(uuid.o)
obj_pxe_cmd         0x0               bin/blib.a(pxe_cmd.o)
obj_pic8259         0x0               bin/blib.a(pic8259.o)
obj_iscsi           0x0               bin/blib.a(iscsi.o)
obj_hidemem         0x0               bin/blib.a(hidemem.o)
obj_linebuf         0x0               bin/blib.a(linebuf.o)
obj_ata             0x0               bin/blib.a(ata.o)
obj_dhcpmgmt        0x0               bin/blib.a(dhcpmgmt.o)
obj_shell           0x0               bin/blib.a(shell.o)
obj_relocate        0x0               bin/blib.a(relocate.o)
obj_setjmp          0x0               bin/blib.a(setjmp.o)
obj_downloader      0x0               bin/blib.a(downloader.o)
obj_misc            0x0               bin/blib.a(misc.o)
obj_serial          0x0               bin/blib.a(serial.o)
obj_http            0x0               bin/blib.a(http.o)
obj_ftp             0x0               bin/blib.a(ftp.o)
obj_pxeparent_dhcp  0x0               bin/blib.a(pxeparent_dhcp.o)
obj_device          0x0               bin/blib.a(device.o)
obj_rarp            0x0               bin/blib.a(rarp.o)
obj_job             0x0               bin/blib.a(job.o)
obj_comboot_call    0x0               bin/blib.a(comboot_call.o)
obj_librm_mgmt      0x0               bin/blib.a(librm_mgmt.o)
obj_comboot_resolv  0x0               bin/blib.a(comboot_resolv.o)
obj_imgmgmt         0x0               bin/blib.a(imgmgmt.o)
obj_multiboot       0x0               bin/blib.a(multiboot.o)
obj_bios_smbios     0x0               bin/blib.a(bios_smbios.o)
comboot_replacement_image
                    0x4               bin/blib.a(comboot_call.o)
obj_pxe_tftp        0x0               bin/blib.a(pxe_tftp.o)
obj_arp             0x0               bin/blib.a(arp.o)
obj_asn1            0x0               bin/blib.a(asn1.o)
obj_random          0x0               bin/blib.a(random.o)

Discarded input sections

 .discard       0x0000000000000000       0x88 bin/blib.a(config.o)
 .comment       0x0000000000000000       0x2e bin/blib.a(config.o)
 .note.GNU-stack
                0x0000000000000000        0x0 bin/blib.a(config.o)
 .group         0x0000000000000000        0x8 bin/blib.a(bios_console.o)
 .group         0x0000000000000000        0x8 bin/blib.a(bios_console.o)
 .group         0x0000000000000000        0x8 bin/blib.a(bios_console.o)
 .group         0x0000000000000000        0x8 bin/blib.a(bios_console.o)
 .eh_frame      0x0000000000000000      0x180 bin/blib.a(bios_console.o)
 .comment       0x0000000000000000       0x2e bin/blib.a(bios_console.o)
 .note.GNU-stack
                0x0000000000000000        0x0 bin/blib.a(bios_console.o)
 .group         0x0000000000000000        0x8 bin/blib.a(comboot.o)
 .eh_frame      0x0000000000000000       0xe4 bin/blib.a(comboot.o)
 .comment       0x0000000000000000       0x2e bin/blib.a(comboot.o)
 .note.GNU-stack
                0x0000000000000000        0x0 bin/blib.a(comboot.o)
 .group         0x0000000000000000        0x8 bin/blib.a(bzimage.o)
 .group         0x0000000000000000        0x8 bin/blib.a(bzimage.o)
 .group         0x0000000000000000        0x8 bin/blib.a(bzimage.o)
 .text.__x86.get_pc_thunk.bx
                0x0000000000000000        0x4 bin/blib.a(bzimage.o)
 .text.__x86.get_pc_thunk.di
                0x0000000000000000        0x4 bin/blib.a(bzimage.o)
 .eh_frame      0x0000000000000000      0x228 bin/blib.a(bzimage.o)
 .comment       0x0000000000000000       0x2e bin/blib.a(bzimage.o)
 .note.GNU-stack
                0x0000000000000000        0x0 bin/blib.a(bzimage.o)
 .group         0x0000000000000000        0x8 bin/blib.a(elfboot.o)
 .text.__x86.get_pc_thunk.si
                0x0000000000000000        0x4 bin/blib.a(elfboot.o)
 .eh_frame      0x0000000000000000       0xb8 bin/blib.a(elfboot.o)
 .comment       0x0000000000000000       0x2e bin/blib.a(elfboot.o)
 .note.GNU-stack
                0x0000000000000000        0x0 bin/blib.a(elfboot.o)
 .group         0x0000000000000000        0x8 bin/blib.a(multiboot.o)
 .group         0x0000000000000000        0x8 bin/blib.a(multiboot.o)
 .group         0x0000000000000000        0x8 bin/blib.a(multiboot.o)
 .text.__x86.get_pc_thunk.cx
                0x0000000000000000        0x4 bin/blib.a(multiboot.o)
 .text.__x86.get_pc_thunk.bx
                0x0000000000000000        0x4 bin/blib.a(multiboot.o)
 .text.__x86.get_pc_thunk.bp
                0x0000000000000000        0x4 bin/blib.a(multiboot.o)
 .eh_frame      0x0000000000000000      0x158 bin/blib.a(multiboot.o)
 .comment       0x0000000000000000       0x2e bin/blib.a(multiboot.o)
 .note.GNU-stack
                0x0000000000000000        0x0 bin/blib.a(multiboot.o)
 .group         0x0000000000000000        0x8 bin/blib.a(pxe_image.o)
 .eh_frame      0x0000000000000000       0xa8 bin/blib.a(pxe_image.o)
 .comment       0x0000000000000000       0x2e bin/blib.a(pxe_image.o)
 .note.GNU-stack
                0x0000000000000000        0x0 bin/blib.a(pxe_image.o)
 .group         0x0000000000000000        0x8 bin/blib.a(com32.o)
 .group         0x0000000000000000        0x8 bin/blib.a(com32.o)
 .text.__x86.get_pc_thunk.si
                0x0000000000000000        0x4 bin/blib.a(com32.o)
 .text.__x86.get_pc_thunk.di
                0x0000000000000000        0x4 bin/blib.a(com32.o)
 .eh_frame      0x0000000000000000      0x138 bin/blib.a(com32.o)
 .comment       0x0000000000000000       0x2e bin/blib.a(com32.o)
 .note.GNU-stack
                0x0000000000000000        0x0 bin/blib.a(com32.o)
 .group         0x0000000000000000        0x8 bin/blib.a(undionly.o)
 .group         0x0000000000000000        0x8 bin/blib.a(undionly.o)
 .text.__x86.get_pc_thunk.ax
                0x0000000000000000        0x4 bin/blib.a(undionly.o)
 .text.__x86.get_pc_thunk.dx
                0x0000000000000000        0x4 bin/blib.a(undionly.o)
 .eh_frame      0x0000000000000000       0xac bin/blib.a(undionly.o)
 .comment       0x0000000000000000       0x2e bin/blib.a(undionly.o)
 .note.GNU-stack
                0x0000000000000000        0x0 bin/blib.a(undionly.o)
 .comment       0x0000000000000000       0x2e bin/blib.a(undipreload.o)
 .note.GNU-stack
                0x0000000000000000        0x0 bin/blib.a(undipreload.o)
 .group         0x0000000000000000        0x8 bin/blib.a(iscsiboot.o)
 .text.__x86.get_pc_thunk.bp
                0x0000000000000000        0x4 bin/blib.a(iscsiboot.o)
 .eh_frame      0x0000000000000000       0xf8 bin/blib.a(iscsiboot.o)
 .comment       0x0000000000000000       0x2e bin/blib.a(iscsiboot.o)
 .note.GNU-stack
                0x0000000000000000        0x0 bin/blib.a(iscsiboot.o)
 .group         0x0000000000000000        0x8 bin/blib.a(ibft.o)
 .text.__x86.get_pc_thunk.di
                0x0000000000000000        0x4 bin/blib.a(ibft.o)
 .eh_frame      0x0000000000000000      0x148 bin/blib.a(ibft.o)
 .comment       0x0000000000000000       0x2e bin/blib.a(ibft.o)
 .note.GNU-stack
                0x0000000000000000        0x0 bin/blib.a(ibft.o)
 .group         0x0000000000000000        0x8 bin/blib.a(aoeboot.o)
 .text.__x86.get_pc_thunk.bp
                0x0000000000000000        0x4 bin/blib.a(aoeboot.o)
 .eh_frame      0x0000000000000000       0xf8 bin/blib.a(aoeboot.o)
 .comment       0x0000000000000000       0x2e bin/blib.a(aoeboot.o)
 .note.GNU-stack
                0x0000000000000000        0x0 bin/blib.a(aoeboot.o)
 .eh_frame      0x0000000000000000      0x260 bin/blib.a(int13.o)
 .comment       0x0000000000000000       0x24 bin/blib.a(int13.o)
 .note.GNU-stack
                0x0000000000000000        0x0 bin/blib.a(int13.o)
 .eh_frame      0x0000000000000000       0x34 bin/blib.a(keepsan.o)
 .comment       0x0000000000000000       0x24 bin/blib.a(keepsan.o)
 .note.GNU-stack
                0x0000000000000000        0x0 bin/blib.a(keepsan.o)
 .eh_frame      0x0000000000000000      0x1d8 bin/blib.a(pxe_call.o)
 .comment       0x0000000000000000       0x24 bin/blib.a(pxe_call.o)
 .note.GNU-stack
                0x0000000000000000        0x0 bin/blib.a(pxe_call.o)
 .eh_frame      0x0000000000000000       0x6c bin/blib.a(comboot_resolv.o)
 .comment       0x0000000000000000       0x24 bin/blib.a(comboot_resolv.o)
 .note.GNU-stack
                0x0000000000000000        0x0 bin/blib.a(comboot_resolv.o)
 .eh_frame      0x0000000000000000       0xd0 bin/blib.a(com32_call.o)
 .comment       0x0000000000000000       0x24 bin/blib.a(com32_call.o)
 .note.GNU-stack
                0x0000000000000000        0x0 bin/blib.a(com32_call.o)
 .eh_frame      0x0000000000000000      0x188 bin/blib.a(comboot_call.o)
 .comment       0x0000000000000000       0x24 bin/blib.a(comboot_call.o)
 .note.GNU-stack
                0x0000000000000000        0x0 bin/blib.a(comboot_call.o)
 .eh_frame      0x0000000000000000       0x54 bin/blib.a(pxe_cmd.o)
 .comment       0x0000000000000000       0x24 bin/blib.a(pxe_cmd.o)
 .note.GNU-stack
                0x0000000000000000        0x0 bin/blib.a(pxe_cmd.o)
 .eh_frame      0x0000000000000000       0x48 bin/blib.a(x86_string.o)
 .comment       0x0000000000000000       0x24 bin/blib.a(x86_string.o)
 .note.GNU-stack
                0x0000000000000000        0x0 bin/blib.a(x86_string.o)
 .group         0x0000000000000000        0x8 bin/blib.a(settings.o)
 .group         0x0000000000000000        0x8 bin/blib.a(settings.o)
 .group         0x0000000000000000        0x8 bin/blib.a(settings.o)
 .group         0x0000000000000000        0x8 bin/blib.a(settings.o)
 .group         0x0000000000000000        0x8 bin/blib.a(settings.o)
 .group         0x0000000000000000        0x8 bin/blib.a(settings.o)
 .group         0x0000000000000000        0x8 bin/blib.a(settings.o)
 .text.__x86.get_pc_thunk.ax
                0x0000000000000000        0x4 bin/blib.a(settings.o)
 .text.__x86.get_pc_thunk.dx
                0x0000000000000000        0x4 bin/blib.a(settings.o)
 .text.__x86.get_pc_thunk.cx
                0x0000000000000000        0x4 bin/blib.a(settings.o)
 .text.__x86.get_pc_thunk.bx
                0x0000000000000000        0x4 bin/blib.a(settings.o)
 .text.__x86.get_pc_thunk.si
                0x0000000000000000        0x4 bin/blib.a(settings.o)
 .text.__x86.get_pc_thunk.di
                0x0000000000000000        0x4 bin/blib.a(settings.o)
 .text.__x86.get_pc_thunk.bp
                0x0000000000000000        0x4 bin/blib.a(settings.o)
 .eh_frame      0x0000000000000000      0xca4 bin/blib.a(settings.o)
 .comment       0x0000000000000000       0x2e bin/blib.a(settings.o)
 .note.GNU-stack
                0x0000000000000000        0x0 bin/blib.a(settings.o)
 .eh_frame      0x0000000000000000       0x80 bin/blib.a(interface.o)
 .comment       0x0000000000000000       0x2e bin/blib.a(interface.o)
 .note.GNU-stack
                0x0000000000000000        0x0 bin/blib.a(interface.o)
 .group         0x0000000000000000        0x8 bin/blib.a(uri.o)
 .group         0x0000000000000000        0x8 bin/blib.a(uri.o)
 .group         0x0000000000000000        0x8 bin/blib.a(uri.o)
 .group         0x0000000000000000        0x8 bin/blib.a(uri.o)
 .text.__x86.get_pc_thunk.dx
                0x0000000000000000        0x4 bin/blib.a(uri.o)
 .text.__x86.get_pc_thunk.bx
                0x0000000000000000        0x4 bin/blib.a(uri.o)
 .text.__x86.get_pc_thunk.si
                0x0000000000000000        0x4 bin/blib.a(uri.o)
 .text.__x86.get_pc_thunk.bp
                0x0000000000000000        0x4 bin/blib.a(uri.o)
 .eh_frame      0x0000000000000000      0x3c4 bin/blib.a(uri.o)
 .comment       0x0000000000000000       0x2e bin/blib.a(uri.o)
 .note.GNU-stack
                0x0000000000000000        0x0 bin/blib.a(uri.o)
 .eh_frame      0x0000000000000000       0xa0 bin/blib.a(asprintf.o)
 .comment       0x0000000000000000       0x2e bin/blib.a(asprintf.o)
 .note.GNU-stack
                0x0000000000000000        0x0 bin/blib.a(asprintf.o)
 .group         0x0000000000000000        0x8 bin/blib.a(process.o)
 .group         0x0000000000000000        0x8 bin/blib.a(process.o)
 .group         0x0000000000000000        0x8 bin/blib.a(process.o)
 .text.__x86.get_pc_thunk.ax
                0x0000000000000000        0x4 bin/blib.a(process.o)
 .text.__x86.get_pc_thunk.dx
                0x0000000000000000        0x4 bin/blib.a(process.o)
 .text.__x86.get_pc_thunk.si
                0x0000000000000000        0x4 bin/blib.a(process.o)
 .eh_frame      0x0000000000000000      0x11c bin/blib.a(process.o)
 .comment       0x0000000000000000       0x2e bin/blib.a(process.o)
 .note.GNU-stack
                0x0000000000000000        0x0 bin/blib.a(process.o)
 .eh_frame      0x0000000000000000       0x40 bin/blib.a(refcnt.o)
 .comment       0x0000000000000000       0x2e bin/blib.a(refcnt.o)
 .note.GNU-stack
                0x0000000000000000        0x0 bin/blib.a(refcnt.o)
 .group         0x0000000000000000        0x8 bin/blib.a(init.o)
 .group         0x0000000000000000        0x8 bin/blib.a(init.o)
 .text.__x86.get_pc_thunk.ax
                0x0000000000000000        0x4 bin/blib.a(init.o)
 .text.__x86.get_pc_thunk.bx
                0x0000000000000000        0x4 bin/blib.a(init.o)
 .eh_frame      0x0000000000000000      0x110 bin/blib.a(init.o)
 .comment       0x0000000000000000       0x2e bin/blib.a(init.o)
 .note.GNU-stack
                0x0000000000000000        0x0 bin/blib.a(init.o)
 .eh_frame      0x0000000000000000      0x27c bin/blib.a(string.o)
 .comment       0x0000000000000000       0x2e bin/blib.a(string.o)
 .note.GNU-stack
                0x0000000000000000        0x0 bin/blib.a(string.o)
 .group         0x0000000000000000        0x8 bin/blib.a(vsprintf.o)
 .group         0x0000000000000000        0x8 bin/blib.a(vsprintf.o)
 .group         0x0000000000000000        0x8 bin/blib.a(vsprintf.o)
 .text.__x86.get_pc_thunk.cx
                0x0000000000000000        0x4 bin/blib.a(vsprintf.o)
 .text.__x86.get_pc_thunk.di
                0x0000000000000000        0x4 bin/blib.a(vsprintf.o)
 .text.__x86.get_pc_thunk.bp
                0x0000000000000000        0x4 bin/blib.a(vsprintf.o)
 .eh_frame      0x0000000000000000      0x200 bin/blib.a(vsprintf.o)
 .comment       0x0000000000000000       0x2e bin/blib.a(vsprintf.o)
 .note.GNU-stack
                0x0000000000000000        0x0 bin/blib.a(vsprintf.o)
 .group         0x0000000000000000        0x8 bin/blib.a(posix_io.o)
 .group         0x0000000000000000        0x8 bin/blib.a(posix_io.o)
 .group         0x0000000000000000        0x8 bin/blib.a(posix_io.o)
 .text.__x86.get_pc_thunk.cx
                0x0000000000000000        0x4 bin/blib.a(posix_io.o)
 .text.__x86.get_pc_thunk.si
                0x0000000000000000        0x4 bin/blib.a(posix_io.o)
 .text.__x86.get_pc_thunk.di
                0x0000000000000000        0x4 bin/blib.a(posix_io.o)
 .eh_frame      0x0000000000000000      0x294 bin/blib.a(posix_io.o)
 .comment       0x0000000000000000       0x2e bin/blib.a(posix_io.o)
 .note.GNU-stack
                0x0000000000000000        0x0 bin/blib.a(posix_io.o)
 .group         0x0000000000000000        0x8 bin/blib.a(console.o)
 .group         0x0000000000000000        0x8 bin/blib.a(console.o)
 .text.__x86.get_pc_thunk.ax
                0x0000000000000000        0x4 bin/blib.a(console.o)
 .text.__x86.get_pc_thunk.di
                0x0000000000000000        0x4 bin/blib.a(console.o)
 .eh_frame      0x0000000000000000       0xe0 bin/blib.a(console.o)
 .comment       0x0000000000000000       0x2e bin/blib.a(console.o)
 .note.GNU-stack
                0x0000000000000000        0x0 bin/blib.a(console.o)
 .group         0x0000000000000000        0x8 bin/blib.a(open.o)
 .group         0x0000000000000000        0x8 bin/blib.a(open.o)
 .text.__x86.get_pc_thunk.si
                0x0000000000000000        0x4 bin/blib.a(open.o)
 .text.__x86.get_pc_thunk.di
                0x0000000000000000        0x4 bin/blib.a(open.o)
 .eh_frame      0x0000000000000000      0x1b8 bin/blib.a(open.o)
 .comment       0x0000000000000000       0x2e bin/blib.a(open.o)
 .note.GNU-stack
                0x0000000000000000        0x0 bin/blib.a(open.o)
 .eh_frame      0x0000000000000000       0x3c bin/blib.a(acpi.o)
 .comment       0x0000000000000000       0x2e bin/blib.a(acpi.o)
 .note.GNU-stack
                0x0000000000000000        0x0 bin/blib.a(acpi.o)
 .group         0x0000000000000000        0x8 bin/blib.a(resolv.o)
 .group         0x0000000000000000        0x8 bin/blib.a(resolv.o)
 .group         0x0000000000000000        0x8 bin/blib.a(resolv.o)
 .group         0x0000000000000000        0x8 bin/blib.a(resolv.o)
 .group         0x0000000000000000        0x8 bin/blib.a(resolv.o)
 .text.__x86.get_pc_thunk.cx
                0x0000000000000000        0x4 bin/blib.a(resolv.o)
 .text.__x86.get_pc_thunk.bx
                0x0000000000000000        0x4 bin/blib.a(resolv.o)
 .text.__x86.get_pc_thunk.si
                0x0000000000000000        0x4 bin/blib.a(resolv.o)
 .text.__x86.get_pc_thunk.di
                0x0000000000000000        0x4 bin/blib.a(resolv.o)
 .text.__x86.get_pc_thunk.bp
                0x0000000000000000        0x4 bin/blib.a(resolv.o)
 .eh_frame      0x0000000000000000      0x374 bin/blib.a(resolv.o)
 .comment       0x0000000000000000       0x2e bin/blib.a(resolv.o)
 .note.GNU-stack
                0x0000000000000000        0x0 bin/blib.a(resolv.o)
 .eh_frame      0x0000000000000000       0xd4 bin/blib.a(misc.o)
 .comment       0x0000000000000000       0x2e bin/blib.a(misc.o)
 .note.GNU-stack
                0x0000000000000000        0x0 bin/blib.a(misc.o)
 .group         0x0000000000000000        0x8 bin/blib.a(cwuri.o)
 .text.__x86.get_pc_thunk.bx
                0x0000000000000000        0x4 bin/blib.a(cwuri.o)
 .eh_frame      0x0000000000000000       0x60 bin/blib.a(cwuri.o)
 .comment       0x0000000000000000       0x2e bin/blib.a(cwuri.o)
 .note.GNU-stack
                0x0000000000000000        0x0 bin/blib.a(cwuri.o)
 .group         0x0000000000000000        0x8 bin/blib.a(main.o)
 .text.__x86.get_pc_thunk.bx
                0x0000000000000000        0x4 bin/blib.a(main.o)
 .eh_frame      0x0000000000000000       0xc8 bin/blib.a(main.o)
 .comment       0x0000000000000000       0x2e bin/blib.a(main.o)
 .note.GNU-stack
                0x0000000000000000        0x0 bin/blib.a(main.o)
 .group         0x0000000000000000        0x8 bin/blib.a(malloc.o)
 .group         0x0000000000000000        0x8 bin/blib.a(malloc.o)
 .group         0x0000000000000000        0x8 bin/blib.a(malloc.o)
 .text.__x86.get_pc_thunk.ax
                0x0000000000000000        0x4 bin/blib.a(malloc.o)
 .text.__x86.get_pc_thunk.bx
                0x0000000000000000        0x4 bin/blib.a(malloc.o)
 .text.__x86.get_pc_thunk.di
                0x0000000000000000        0x4 bin/blib.a(malloc.o)
 .eh_frame      0x0000000000000000      0x1f8 bin/blib.a(malloc.o)
 .comment       0x0000000000000000       0x2e bin/blib.a(malloc.o)
 .note.GNU-stack
                0x0000000000000000        0x0 bin/blib.a(malloc.o)
 .eh_frame      0x0000000000000000       0x4c bin/blib.a(ansiesc.o)
 .comment       0x0000000000000000       0x2e bin/blib.a(ansiesc.o)
 .note.GNU-stack
                0x0000000000000000        0x0 bin/blib.a(ansiesc.o)
 .group         0x0000000000000000        0x8 bin/blib.a(device.o)
 .group         0x0000000000000000        0x8 bin/blib.a(device.o)
 .text.__x86.get_pc_thunk.dx
                0x0000000000000000        0x4 bin/blib.a(device.o)
 .text.__x86.get_pc_thunk.si
                0x0000000000000000        0x4 bin/blib.a(device.o)
 .eh_frame      0x0000000000000000       0xdc bin/blib.a(device.o)
 .comment       0x0000000000000000       0x2e bin/blib.a(device.o)
 .note.GNU-stack
                0x0000000000000000        0x0 bin/blib.a(device.o)
 .group         0x0000000000000000        0x8 bin/blib.a(exec.o)
 .group         0x0000000000000000        0x8 bin/blib.a(exec.o)
 .text.__x86.get_pc_thunk.bx
                0x0000000000000000        0x4 bin/blib.a(exec.o)
 .text.__x86.get_pc_thunk.si
                0x0000000000000000        0x4 bin/blib.a(exec.o)
 .eh_frame      0x0000000000000000      0x204 bin/blib.a(exec.o)
 .comment       0x0000000000000000       0x2e bin/blib.a(exec.o)
 .note.GNU-stack
                0x0000000000000000        0x0 bin/blib.a(exec.o)
 .eh_frame      0x0000000000000000       0xac bin/blib.a(serial.o)
 .comment       0x0000000000000000       0x2e bin/blib.a(serial.o)
 .note.GNU-stack
                0x0000000000000000        0x0 bin/blib.a(serial.o)
 .group         0x0000000000000000        0x8 bin/blib.a(basename.o)
 .text.__x86.get_pc_thunk.si
                0x0000000000000000        0x4 bin/blib.a(basename.o)
 .eh_frame      0x0000000000000000       0x84 bin/blib.a(basename.o)
 .comment       0x0000000000000000       0x2e bin/blib.a(basename.o)
 .note.GNU-stack
                0x0000000000000000        0x0 bin/blib.a(basename.o)
 .group         0x0000000000000000        0x8 bin/blib.a(cpio.o)
 .text.__x86.get_pc_thunk.cx
                0x0000000000000000        0x4 bin/blib.a(cpio.o)
 .eh_frame      0x0000000000000000       0x78 bin/blib.a(cpio.o)
 .comment       0x0000000000000000       0x2e bin/blib.a(cpio.o)
 .note.GNU-stack
                0x0000000000000000        0x0 bin/blib.a(cpio.o)
 .eh_frame      0x0000000000000000       0x64 bin/blib.a(iobuf.o)
 .comment       0x0000000000000000       0x2e bin/blib.a(iobuf.o)
 .note.GNU-stack
                0x0000000000000000        0x0 bin/blib.a(iobuf.o)
 .group         0x0000000000000000        0x8 bin/blib.a(image.o)
 .group         0x0000000000000000        0x8 bin/blib.a(image.o)
 .group         0x0000000000000000        0x8 bin/blib.a(image.o)
 .group         0x0000000000000000        0x8 bin/blib.a(image.o)
 .text.__x86.get_pc_thunk.dx
                0x0000000000000000        0x4 bin/blib.a(image.o)
 .text.__x86.get_pc_thunk.bx
                0x0000000000000000        0x4 bin/blib.a(image.o)
 .text.__x86.get_pc_thunk.si
                0x0000000000000000        0x4 bin/blib.a(image.o)
 .text.__x86.get_pc_thunk.bp
                0x0000000000000000        0x4 bin/blib.a(image.o)
 .eh_frame      0x0000000000000000      0x344 bin/blib.a(image.o)
 .comment       0x0000000000000000       0x2e bin/blib.a(image.o)
 .note.GNU-stack
                0x0000000000000000        0x0 bin/blib.a(image.o)
 .eh_frame      0x0000000000000000       0x60 bin/blib.a(timer.o)
 .comment       0x0000000000000000       0x2e bin/blib.a(timer.o)
 .note.GNU-stack
                0x0000000000000000        0x0 bin/blib.a(timer.o)
 .group         0x0000000000000000        0x8 bin/blib.a(uuid.o)
 .text.__x86.get_pc_thunk.si
                0x0000000000000000        0x4 bin/blib.a(uuid.o)
 .eh_frame      0x0000000000000000       0xec bin/blib.a(uuid.o)
 .comment       0x0000000000000000       0x2e bin/blib.a(uuid.o)
 .note.GNU-stack
                0x0000000000000000        0x0 bin/blib.a(uuid.o)
 .group         0x0000000000000000        0x8 bin/blib.a(aoe.o)
 .group         0x0000000000000000        0x8 bin/blib.a(aoe.o)
 .group         0x0000000000000000        0x8 bin/blib.a(aoe.o)
 .text.__x86.get_pc_thunk.si
                0x0000000000000000        0x4 bin/blib.a(aoe.o)
 .text.__x86.get_pc_thunk.di
                0x0000000000000000        0x4 bin/blib.a(aoe.o)
 .text.__x86.get_pc_thunk.bp
                0x0000000000000000        0x4 bin/blib.a(aoe.o)
 .eh_frame      0x0000000000000000      0x268 bin/blib.a(aoe.o)
 .comment       0x0000000000000000       0x2e bin/blib.a(aoe.o)
 .note.GNU-stack
                0x0000000000000000        0x0 bin/blib.a(aoe.o)
 .group         0x0000000000000000        0x8 bin/blib.a(ipv4.o)
 .group         0x0000000000000000        0x8 bin/blib.a(ipv4.o)
 .group         0x0000000000000000        0x8 bin/blib.a(ipv4.o)
 .group         0x0000000000000000        0x8 bin/blib.a(ipv4.o)
 .discard       0x0000000000000000        0x4 bin/blib.a(ipv4.o)
 .text.__x86.get_pc_thunk.cx
                0x0000000000000000        0x4 bin/blib.a(ipv4.o)
 .text.__x86.get_pc_thunk.bx
                0x0000000000000000        0x4 bin/blib.a(ipv4.o)
 .text.__x86.get_pc_thunk.di
                0x0000000000000000        0x4 bin/blib.a(ipv4.o)
 .text.__x86.get_pc_thunk.bp
                0x0000000000000000        0x4 bin/blib.a(ipv4.o)
 .eh_frame      0x0000000000000000      0x2c8 bin/blib.a(ipv4.o)
 .comment       0x0000000000000000       0x2e bin/blib.a(ipv4.o)
 .note.GNU-stack
                0x0000000000000000        0x0 bin/blib.a(ipv4.o)
 .group         0x0000000000000000        0x8 bin/blib.a(netdevice.o)
 .group         0x0000000000000000        0x8 bin/blib.a(netdevice.o)
 .group         0x0000000000000000        0x8 bin/blib.a(netdevice.o)
 .group         0x0000000000000000        0x8 bin/blib.a(netdevice.o)
 .group         0x0000000000000000        0x8 bin/blib.a(netdevice.o)
 .text.__x86.get_pc_thunk.ax
                0x0000000000000000        0x4 bin/blib.a(netdevice.o)
 .text.__x86.get_pc_thunk.dx
                0x0000000000000000        0x4 bin/blib.a(netdevice.o)
 .text.__x86.get_pc_thunk.cx
                0x0000000000000000        0x4 bin/blib.a(netdevice.o)
 .text.__x86.get_pc_thunk.bx
                0x0000000000000000        0x4 bin/blib.a(netdevice.o)
 .text.__x86.get_pc_thunk.si
                0x0000000000000000        0x4 bin/blib.a(netdevice.o)
 .eh_frame      0x0000000000000000      0x560 bin/blib.a(netdevice.o)
 .comment       0x0000000000000000       0x2e bin/blib.a(netdevice.o)
 .note.GNU-stack
                0x0000000000000000        0x0 bin/blib.a(netdevice.o)
 .group         0x0000000000000000        0x8 bin/blib.a(retry.o)
 .group         0x0000000000000000        0x8 bin/blib.a(retry.o)
 .text.__x86.get_pc_thunk.dx
                0x0000000000000000        0x4 bin/blib.a(retry.o)
 .text.__x86.get_pc_thunk.si
                0x0000000000000000        0x4 bin/blib.a(retry.o)
 .eh_frame      0x0000000000000000      0x124 bin/blib.a(retry.o)
 .comment       0x0000000000000000       0x2e bin/blib.a(retry.o)
 .note.GNU-stack
                0x0000000000000000        0x0 bin/blib.a(retry.o)
 .group         0x0000000000000000        0x8 bin/blib.a(icmp.o)
 .text.__x86.get_pc_thunk.di
                0x0000000000000000        0x4 bin/blib.a(icmp.o)
 .eh_frame      0x0000000000000000       0xac bin/blib.a(icmp.o)
 .comment       0x0000000000000000       0x2e bin/blib.a(icmp.o)
 .note.GNU-stack
                0x0000000000000000        0x0 bin/blib.a(icmp.o)
 .group         0x0000000000000000        0x8 bin/blib.a(netdev_settings.o)
 .group         0x0000000000000000        0x8 bin/blib.a(netdev_settings.o)
 .text.__x86.get_pc_thunk.si
                0x0000000000000000        0x4 bin/blib.a(netdev_settings.o)
 .text.__x86.get_pc_thunk.bp
                0x0000000000000000        0x4 bin/blib.a(netdev_settings.o)
 .eh_frame      0x0000000000000000      0x15c bin/blib.a(netdev_settings.o)
 .comment       0x0000000000000000       0x2e bin/blib.a(netdev_settings.o)
 .note.GNU-stack
                0x0000000000000000        0x0 bin/blib.a(netdev_settings.o)
 .group         0x0000000000000000        0x8 bin/blib.a(iscsi.o)
 .group         0x0000000000000000        0x8 bin/blib.a(iscsi.o)
 .group         0x0000000000000000        0x8 bin/blib.a(iscsi.o)
 .group         0x0000000000000000        0x8 bin/blib.a(iscsi.o)
 .group         0x0000000000000000        0x8 bin/blib.a(iscsi.o)
 .group         0x0000000000000000        0x8 bin/blib.a(iscsi.o)
 .text.__x86.get_pc_thunk.ax
                0x0000000000000000        0x4 bin/blib.a(iscsi.o)
 .text.__x86.get_pc_thunk.dx
                0x0000000000000000        0x4 bin/blib.a(iscsi.o)
 .text.__x86.get_pc_thunk.cx
                0x0000000000000000        0x4 bin/blib.a(iscsi.o)
 .text.__x86.get_pc_thunk.bx
                0x0000000000000000        0x4 bin/blib.a(iscsi.o)
 .text.__x86.get_pc_thunk.si
                0x0000000000000000        0x4 bin/blib.a(iscsi.o)
 .text.__x86.get_pc_thunk.di
                0x0000000000000000        0x4 bin/blib.a(iscsi.o)
 .eh_frame      0x0000000000000000      0x9f8 bin/blib.a(iscsi.o)
 .comment       0x0000000000000000       0x2e bin/blib.a(iscsi.o)
 .note.GNU-stack
                0x0000000000000000        0x0 bin/blib.a(iscsi.o)
 .group         0x0000000000000000        0x8 bin/blib.a(ftp.o)
 .group         0x0000000000000000        0x8 bin/blib.a(ftp.o)
 .group         0x0000000000000000        0x8 bin/blib.a(ftp.o)
 .group         0x0000000000000000        0x8 bin/blib.a(ftp.o)
 .text.__x86.get_pc_thunk.dx
                0x0000000000000000        0x4 bin/blib.a(ftp.o)
 .text.__x86.get_pc_thunk.cx
                0x0000000000000000        0x4 bin/blib.a(ftp.o)
 .text.__x86.get_pc_thunk.si
                0x0000000000000000        0x4 bin/blib.a(ftp.o)
 .text.__x86.get_pc_thunk.di
                0x0000000000000000        0x4 bin/blib.a(ftp.o)
 .eh_frame      0x0000000000000000      0x308 bin/blib.a(ftp.o)
 .comment       0x0000000000000000       0x2e bin/blib.a(ftp.o)
 .note.GNU-stack
                0x0000000000000000        0x0 bin/blib.a(ftp.o)
 .group         0x0000000000000000        0x8 bin/blib.a(http.o)
 .group         0x0000000000000000        0x8 bin/blib.a(http.o)
 .group         0x0000000000000000        0x8 bin/blib.a(http.o)
 .text.__x86.get_pc_thunk.cx
                0x0000000000000000        0x4 bin/blib.a(http.o)
 .text.__x86.get_pc_thunk.si
                0x0000000000000000        0x4 bin/blib.a(http.o)
 .text.__x86.get_pc_thunk.di
                0x0000000000000000        0x4 bin/blib.a(http.o)
 .eh_frame      0x0000000000000000      0x348 bin/blib.a(http.o)
 .comment       0x0000000000000000       0x2e bin/blib.a(http.o)
 .note.GNU-stack
                0x0000000000000000        0x0 bin/blib.a(http.o)
 .group         0x0000000000000000        0x8 bin/blib.a(https.o)
 .text.__x86.get_pc_thunk.cx
                0x0000000000000000        0x4 bin/blib.a(https.o)
 .eh_frame      0x0000000000000000       0x4c bin/blib.a(https.o)
 .comment       0x0000000000000000       0x2e bin/blib.a(https.o)
 .note.GNU-stack
                0x0000000000000000        0x0 bin/blib.a(https.o)
 .group         0x0000000000000000        0x8 bin/blib.a(dns.o)
 .group         0x0000000000000000        0x8 bin/blib.a(dns.o)
 .group         0x0000000000000000        0x8 bin/blib.a(dns.o)
 .group         0x0000000000000000        0x8 bin/blib.a(dns.o)
 .text.__x86.get_pc_thunk.cx
                0x0000000000000000        0x4 bin/blib.a(dns.o)
 .text.__x86.get_pc_thunk.bx
                0x0000000000000000        0x4 bin/blib.a(dns.o)
 .text.__x86.get_pc_thunk.si
                0x0000000000000000        0x4 bin/blib.a(dns.o)
 .text.__x86.get_pc_thunk.di
                0x0000000000000000        0x4 bin/blib.a(dns.o)
 .eh_frame      0x0000000000000000      0x234 bin/blib.a(dns.o)
 .comment       0x0000000000000000       0x2e bin/blib.a(dns.o)
 .note.GNU-stack
                0x0000000000000000        0x0 bin/blib.a(dns.o)
 .group         0x0000000000000000        0x8 bin/blib.a(tftp.o)
 .group         0x0000000000000000        0x8 bin/blib.a(tftp.o)
 .group         0x0000000000000000        0x8 bin/blib.a(tftp.o)
 .group         0x0000000000000000        0x8 bin/blib.a(tftp.o)
 .group         0x0000000000000000        0x8 bin/blib.a(tftp.o)
 .text.__x86.get_pc_thunk.dx
                0x0000000000000000        0x4 bin/blib.a(tftp.o)
 .text.__x86.get_pc_thunk.cx
                0x0000000000000000        0x4 bin/blib.a(tftp.o)
 .text.__x86.get_pc_thunk.bx
                0x0000000000000000        0x4 bin/blib.a(tftp.o)
 .text.__x86.get_pc_thunk.di
                0x0000000000000000        0x4 bin/blib.a(tftp.o)
 .text.__x86.get_pc_thunk.bp
                0x0000000000000000        0x4 bin/blib.a(tftp.o)
 .eh_frame      0x0000000000000000      0x6d8 bin/blib.a(tftp.o)
 .comment       0x0000000000000000       0x2e bin/blib.a(tftp.o)
 .note.GNU-stack
                0x0000000000000000        0x0 bin/blib.a(tftp.o)
 .group         0x0000000000000000        0x8 bin/blib.a(script.o)
 .text.__x86.get_pc_thunk.bp
                0x0000000000000000        0x4 bin/blib.a(script.o)
 .eh_frame      0x0000000000000000       0xd8 bin/blib.a(script.o)
 .comment       0x0000000000000000       0x2e bin/blib.a(script.o)
 .note.GNU-stack
                0x0000000000000000        0x0 bin/blib.a(script.o)
 .group         0x0000000000000000        0x8 bin/blib.a(elf.o)
 .text.__x86.get_pc_thunk.di
                0x0000000000000000        0x4 bin/blib.a(elf.o)
 .eh_frame      0x0000000000000000       0x90 bin/blib.a(elf.o)
 .comment       0x0000000000000000       0x2e bin/blib.a(elf.o)
 .note.GNU-stack
                0x0000000000000000        0x0 bin/blib.a(elf.o)
 .group         0x0000000000000000        0x8 bin/blib.a(segment.o)
 .text.__x86.get_pc_thunk.bx
                0x0000000000000000        0x4 bin/blib.a(segment.o)
 .eh_frame      0x0000000000000000       0x90 bin/blib.a(segment.o)
 .comment       0x0000000000000000       0x2e bin/blib.a(segment.o)
 .note.GNU-stack
                0x0000000000000000        0x0 bin/blib.a(segment.o)
 .eh_frame      0x0000000000000000       0x34 bin/blib.a(embedded.o)
 .comment       0x0000000000000000       0x2c bin/blib.a(embedded.o)
 .note.GNU-stack
                0x0000000000000000        0x0 bin/blib.a(embedded.o)
 .group         0x0000000000000000        0x8 bin/blib.a(ata.o)
 .text.__x86.get_pc_thunk.dx
                0x0000000000000000        0x4 bin/blib.a(ata.o)
 .eh_frame      0x0000000000000000      0x14c bin/blib.a(ata.o)
 .comment       0x0000000000000000       0x2e bin/blib.a(ata.o)
 .note.GNU-stack
                0x0000000000000000        0x0 bin/blib.a(ata.o)
 .group         0x0000000000000000        0x8 bin/blib.a(scsi.o)
 .text.__x86.get_pc_thunk.di
                0x0000000000000000        0x4 bin/blib.a(scsi.o)
 .eh_frame      0x0000000000000000      0x2e0 bin/blib.a(scsi.o)
 .comment       0x0000000000000000       0x2e bin/blib.a(scsi.o)
 .note.GNU-stack
                0x0000000000000000        0x0 bin/blib.a(scsi.o)
 .group         0x0000000000000000        0x8 bin/blib.a(md5.o)
 .text.__x86.get_pc_thunk.di
                0x0000000000000000        0x4 bin/blib.a(md5.o)
 .eh_frame      0x0000000000000000      0x1fc bin/blib.a(md5.o)
 .comment       0x0000000000000000       0x2e bin/blib.a(md5.o)
 .note.GNU-stack
                0x0000000000000000        0x0 bin/blib.a(md5.o)
 .eh_frame      0x0000000000000000       0xa8 bin/blib.a(chap.o)
 .comment       0x0000000000000000       0x2e bin/blib.a(chap.o)
 .note.GNU-stack
                0x0000000000000000        0x0 bin/blib.a(chap.o)
 .eh_frame      0x0000000000000000       0x2c bin/blib.a(shell_banner.o)
 .comment       0x0000000000000000       0x2e bin/blib.a(shell_banner.o)
 .note.GNU-stack
                0x0000000000000000        0x0 bin/blib.a(shell_banner.o)
 .group         0x0000000000000000        0x8 bin/blib.a(strerror.o)
 .text.__x86.get_pc_thunk.bx
                0x0000000000000000        0x4 bin/blib.a(strerror.o)
 .eh_frame      0x0000000000000000       0xc0 bin/blib.a(strerror.o)
 .comment       0x0000000000000000       0x2e bin/blib.a(strerror.o)
 .note.GNU-stack
                0x0000000000000000        0x0 bin/blib.a(strerror.o)
 .group         0x0000000000000000        0x8 bin/blib.a(shell.o)
 .group         0x0000000000000000        0x8 bin/blib.a(shell.o)
 .text.__x86.get_pc_thunk.dx
                0x0000000000000000        0x4 bin/blib.a(shell.o)
 .text.__x86.get_pc_thunk.bx
                0x0000000000000000        0x4 bin/blib.a(shell.o)
 .eh_frame      0x0000000000000000      0x144 bin/blib.a(shell.o)
 .comment       0x0000000000000000       0x2e bin/blib.a(shell.o)
 .note.GNU-stack
                0x0000000000000000        0x0 bin/blib.a(shell.o)
 .group         0x0000000000000000        0x8 bin/blib.a(image_cmd.o)
 .group         0x0000000000000000        0x8 bin/blib.a(image_cmd.o)
 .text.__x86.get_pc_thunk.bx
                0x0000000000000000        0x4 bin/blib.a(image_cmd.o)
 .text.__x86.get_pc_thunk.si
                0x0000000000000000        0x4 bin/blib.a(image_cmd.o)
 .eh_frame      0x0000000000000000      0x4c4 bin/blib.a(image_cmd.o)
 .comment       0x0000000000000000       0x2e bin/blib.a(image_cmd.o)
 .note.GNU-stack
                0x0000000000000000        0x0 bin/blib.a(image_cmd.o)
 .group         0x0000000000000000        0x8 bin/blib.a(route_cmd.o)
 .text.__x86.get_pc_thunk.bx
                0x0000000000000000        0x4 bin/blib.a(route_cmd.o)
 .eh_frame      0x0000000000000000       0xa4 bin/blib.a(route_cmd.o)
 .comment       0x0000000000000000       0x2e bin/blib.a(route_cmd.o)
 .note.GNU-stack
                0x0000000000000000        0x0 bin/blib.a(route_cmd.o)
 .group         0x0000000000000000        0x8 bin/blib.a(dhcp_cmd.o)
 .text.__x86.get_pc_thunk.bx
                0x0000000000000000        0x4 bin/blib.a(dhcp_cmd.o)
 .eh_frame      0x0000000000000000      0x198 bin/blib.a(dhcp_cmd.o)
 .comment       0x0000000000000000       0x2e bin/blib.a(dhcp_cmd.o)
 .note.GNU-stack
                0x0000000000000000        0x0 bin/blib.a(dhcp_cmd.o)
 .group         0x0000000000000000        0x8 bin/blib.a(autoboot_cmd.o)
 .text.__x86.get_pc_thunk.cx
                0x0000000000000000        0x4 bin/blib.a(autoboot_cmd.o)
 .eh_frame      0x0000000000000000       0x5c bin/blib.a(autoboot_cmd.o)
 .comment       0x0000000000000000       0x2e bin/blib.a(autoboot_cmd.o)
 .note.GNU-stack
                0x0000000000000000        0x0 bin/blib.a(autoboot_cmd.o)
 .group         0x0000000000000000        0x8 bin/blib.a(ifmgmt_cmd.o)
 .group         0x0000000000000000        0x8 bin/blib.a(ifmgmt_cmd.o)
 .text.__x86.get_pc_thunk.cx
                0x0000000000000000        0x4 bin/blib.a(ifmgmt_cmd.o)
 .text.__x86.get_pc_thunk.bx
                0x0000000000000000        0x4 bin/blib.a(ifmgmt_cmd.o)
 .eh_frame      0x0000000000000000      0x1bc bin/blib.a(ifmgmt_cmd.o)
 .comment       0x0000000000000000       0x2e bin/blib.a(ifmgmt_cmd.o)
 .note.GNU-stack
                0x0000000000000000        0x0 bin/blib.a(ifmgmt_cmd.o)
 .group         0x0000000000000000        0x8 bin/blib.a(sanboot_cmd.o)
 .text.__x86.get_pc_thunk.bx
                0x0000000000000000        0x4 bin/blib.a(sanboot_cmd.o)
 .eh_frame      0x0000000000000000       0xc0 bin/blib.a(sanboot_cmd.o)
 .comment       0x0000000000000000       0x2e bin/blib.a(sanboot_cmd.o)
 .note.GNU-stack
                0x0000000000000000        0x0 bin/blib.a(sanboot_cmd.o)
 .group         0x0000000000000000        0x8 bin/blib.a(login_cmd.o)
 .text.__x86.get_pc_thunk.bx
                0x0000000000000000        0x4 bin/blib.a(login_cmd.o)
 .eh_frame      0x0000000000000000       0x78 bin/blib.a(login_cmd.o)
 .comment       0x0000000000000000       0x2e bin/blib.a(login_cmd.o)
 .note.GNU-stack
                0x0000000000000000        0x0 bin/blib.a(login_cmd.o)
 .group         0x0000000000000000        0x8 bin/blib.a(config_cmd.o)
 .text.__x86.get_pc_thunk.bx
                0x0000000000000000        0x4 bin/blib.a(config_cmd.o)
 .eh_frame      0x0000000000000000       0x98 bin/blib.a(config_cmd.o)
 .comment       0x0000000000000000       0x2e bin/blib.a(config_cmd.o)
 .note.GNU-stack
                0x0000000000000000        0x0 bin/blib.a(config_cmd.o)
 .group         0x0000000000000000        0x8 bin/blib.a(nvo_cmd.o)
 .text.__x86.get_pc_thunk.si
                0x0000000000000000        0x4 bin/blib.a(nvo_cmd.o)
 .eh_frame      0x0000000000000000      0x1c0 bin/blib.a(nvo_cmd.o)
 .comment       0x0000000000000000       0x2e bin/blib.a(nvo_cmd.o)
 .note.GNU-stack
                0x0000000000000000        0x0 bin/blib.a(nvo_cmd.o)
 .group         0x0000000000000000        0x8 bin/blib.a(settings_ui.o)
 .group         0x0000000000000000        0x8 bin/blib.a(settings_ui.o)
 .group         0x0000000000000000        0x8 bin/blib.a(settings_ui.o)
 .text.__x86.get_pc_thunk.bx
                0x0000000000000000        0x4 bin/blib.a(settings_ui.o)
 .text.__x86.get_pc_thunk.si
                0x0000000000000000        0x4 bin/blib.a(settings_ui.o)
 .text.__x86.get_pc_thunk.bp
                0x0000000000000000        0x4 bin/blib.a(settings_ui.o)
 .eh_frame      0x0000000000000000      0x348 bin/blib.a(settings_ui.o)
 .comment       0x0000000000000000       0x2e bin/blib.a(settings_ui.o)
 .note.GNU-stack
                0x0000000000000000        0x0 bin/blib.a(settings_ui.o)
 .group         0x0000000000000000        0x8 bin/blib.a(login_ui.o)
 .text.__x86.get_pc_thunk.bx
                0x0000000000000000        0x4 bin/blib.a(login_ui.o)
 .eh_frame      0x0000000000000000      0x170 bin/blib.a(login_ui.o)
 .comment       0x0000000000000000       0x2e bin/blib.a(login_ui.o)
 .note.GNU-stack
                0x0000000000000000        0x0 bin/blib.a(login_ui.o)
 .group         0x0000000000000000        0x8 bin/blib.a(colour.o)
 .text.__x86.get_pc_thunk.bx
                0x0000000000000000        0x4 bin/blib.a(colour.o)
 .eh_frame      0x0000000000000000       0xb8 bin/blib.a(colour.o)
 .comment       0x0000000000000000       0x2e bin/blib.a(colour.o)
 .note.GNU-stack
                0x0000000000000000        0x0 bin/blib.a(colour.o)
 .group         0x0000000000000000        0x8 bin/blib.a(print.o)
 .text.__x86.get_pc_thunk.bx
                0x0000000000000000        0x4 bin/blib.a(print.o)
 .eh_frame      0x0000000000000000       0xc8 bin/blib.a(print.o)
 .comment       0x0000000000000000       0x2e bin/blib.a(print.o)
 .note.GNU-stack
                0x0000000000000000        0x0 bin/blib.a(print.o)
 .eh_frame      0x0000000000000000      0x19c bin/blib.a(mucurses.o)
 .comment       0x0000000000000000       0x2e bin/blib.a(mucurses.o)
 .note.GNU-stack
                0x0000000000000000        0x0 bin/blib.a(mucurses.o)
 .group         0x0000000000000000        0x8 bin/blib.a(wininit.o)
 .text.__x86.get_pc_thunk.bx
                0x0000000000000000        0x4 bin/blib.a(wininit.o)
 .eh_frame      0x0000000000000000       0x90 bin/blib.a(wininit.o)
 .comment       0x0000000000000000       0x2e bin/blib.a(wininit.o)
 .note.GNU-stack
                0x0000000000000000        0x0 bin/blib.a(wininit.o)
 .eh_frame      0x0000000000000000       0xec bin/blib.a(winattrs.o)
 .comment       0x0000000000000000       0x2e bin/blib.a(winattrs.o)
 .note.GNU-stack
                0x0000000000000000        0x0 bin/blib.a(winattrs.o)
 .group         0x0000000000000000        0x8 bin/blib.a(ansi_screen.o)
 .group         0x0000000000000000        0x8 bin/blib.a(ansi_screen.o)
 .group         0x0000000000000000        0x8 bin/blib.a(ansi_screen.o)
 .text.__x86.get_pc_thunk.dx
                0x0000000000000000        0x4 bin/blib.a(ansi_screen.o)
 .text.__x86.get_pc_thunk.si
                0x0000000000000000        0x4 bin/blib.a(ansi_screen.o)
 .text.__x86.get_pc_thunk.di
                0x0000000000000000        0x4 bin/blib.a(ansi_screen.o)
 .eh_frame      0x0000000000000000      0x198 bin/blib.a(ansi_screen.o)
 .comment       0x0000000000000000       0x2e bin/blib.a(ansi_screen.o)
 .note.GNU-stack
                0x0000000000000000        0x0 bin/blib.a(ansi_screen.o)
 .eh_frame      0x0000000000000000      0x12c bin/blib.a(clear.o)
 .comment       0x0000000000000000       0x2e bin/blib.a(clear.o)
 .note.GNU-stack
                0x0000000000000000        0x0 bin/blib.a(clear.o)
 .group         0x0000000000000000        0x8 bin/blib.a(editbox.o)
 .group         0x0000000000000000        0x8 bin/blib.a(editbox.o)
 .text.__x86.get_pc_thunk.di
                0x0000000000000000        0x4 bin/blib.a(editbox.o)
 .text.__x86.get_pc_thunk.bp
                0x0000000000000000        0x4 bin/blib.a(editbox.o)
 .eh_frame      0x0000000000000000       0xe0 bin/blib.a(editbox.o)
 .comment       0x0000000000000000       0x2e bin/blib.a(editbox.o)
 .note.GNU-stack
                0x0000000000000000        0x0 bin/blib.a(editbox.o)
 .group         0x0000000000000000        0x8 bin/blib.a(autoboot.o)
 .group         0x0000000000000000        0x8 bin/blib.a(autoboot.o)
 .group         0x0000000000000000        0x8 bin/blib.a(autoboot.o)
 .group         0x0000000000000000        0x8 bin/blib.a(autoboot.o)
 .group         0x0000000000000000        0x8 bin/blib.a(autoboot.o)
 .text.__x86.get_pc_thunk.ax
                0x0000000000000000        0x4 bin/blib.a(autoboot.o)
 .text.__x86.get_pc_thunk.cx
                0x0000000000000000        0x4 bin/blib.a(autoboot.o)
 .text.__x86.get_pc_thunk.bx
                0x0000000000000000        0x4 bin/blib.a(autoboot.o)
 .text.__x86.get_pc_thunk.si
                0x0000000000000000        0x4 bin/blib.a(autoboot.o)
 .text.__x86.get_pc_thunk.di
                0x0000000000000000        0x4 bin/blib.a(autoboot.o)
 .eh_frame      0x0000000000000000      0x30c bin/blib.a(autoboot.o)
 .comment       0x0000000000000000       0x2e bin/blib.a(autoboot.o)
 .note.GNU-stack
                0x0000000000000000        0x0 bin/blib.a(autoboot.o)
 .group         0x0000000000000000        0x8 bin/blib.a(ifmgmt.o)
 .group         0x0000000000000000        0x8 bin/blib.a(ifmgmt.o)
 .group         0x0000000000000000        0x8 bin/blib.a(ifmgmt.o)
 .text.__x86.get_pc_thunk.cx
                0x0000000000000000        0x4 bin/blib.a(ifmgmt.o)
 .text.__x86.get_pc_thunk.si
                0x0000000000000000        0x4 bin/blib.a(ifmgmt.o)
 .text.__x86.get_pc_thunk.di
                0x0000000000000000        0x4 bin/blib.a(ifmgmt.o)
 .eh_frame      0x0000000000000000      0x2b8 bin/blib.a(ifmgmt.o)
 .comment       0x0000000000000000       0x2e bin/blib.a(ifmgmt.o)
 .note.GNU-stack
                0x0000000000000000        0x0 bin/blib.a(ifmgmt.o)
 .group         0x0000000000000000        0x8 bin/blib.a(dhcpmgmt.o)
 .group         0x0000000000000000        0x8 bin/blib.a(dhcpmgmt.o)
 .text.__x86.get_pc_thunk.bx
                0x0000000000000000        0x4 bin/blib.a(dhcpmgmt.o)
 .text.__x86.get_pc_thunk.si
                0x0000000000000000        0x4 bin/blib.a(dhcpmgmt.o)
 .eh_frame      0x0000000000000000      0x16c bin/blib.a(dhcpmgmt.o)
 .comment       0x0000000000000000       0x2e bin/blib.a(dhcpmgmt.o)
 .note.GNU-stack
                0x0000000000000000        0x0 bin/blib.a(dhcpmgmt.o)
 .group         0x0000000000000000        0x8 bin/blib.a(pxemenu.o)
 .group         0x0000000000000000        0x8 bin/blib.a(pxemenu.o)
 .group         0x0000000000000000        0x8 bin/blib.a(pxemenu.o)
 .text.__x86.get_pc_thunk.bx
                0x0000000000000000        0x4 bin/blib.a(pxemenu.o)
 .text.__x86.get_pc_thunk.di
                0x0000000000000000        0x4 bin/blib.a(pxemenu.o)
 .text.__x86.get_pc_thunk.bp
                0x0000000000000000        0x4 bin/blib.a(pxemenu.o)
 .eh_frame      0x0000000000000000      0x214 bin/blib.a(pxemenu.o)
 .comment       0x0000000000000000       0x2e bin/blib.a(pxemenu.o)
 .note.GNU-stack
                0x0000000000000000        0x0 bin/blib.a(pxemenu.o)
 .group         0x0000000000000000        0x8 bin/blib.a(imgmgmt.o)
 .text.__x86.get_pc_thunk.bx
                0x0000000000000000        0x4 bin/blib.a(imgmgmt.o)
 .eh_frame      0x0000000000000000      0x198 bin/blib.a(imgmgmt.o)
 .comment       0x0000000000000000       0x2e bin/blib.a(imgmgmt.o)
 .note.GNU-stack
                0x0000000000000000        0x0 bin/blib.a(imgmgmt.o)
 .group         0x0000000000000000        0x8 bin/blib.a(route.o)
 .text.__x86.get_pc_thunk.si
                0x0000000000000000        0x4 bin/blib.a(route.o)
 .eh_frame      0x0000000000000000       0xe4 bin/blib.a(route.o)
 .comment       0x0000000000000000       0x2e bin/blib.a(route.o)
 .note.GNU-stack
                0x0000000000000000        0x0 bin/blib.a(route.o)
 .group         0x0000000000000000        0x8 bin/blib.a(relocate.o)
 .text.__x86.get_pc_thunk.di
                0x0000000000000000        0x4 bin/blib.a(relocate.o)
 .eh_frame      0x0000000000000000       0x90 bin/blib.a(relocate.o)
 .comment       0x0000000000000000       0x2e bin/blib.a(relocate.o)
 .note.GNU-stack
                0x0000000000000000        0x0 bin/blib.a(relocate.o)
 .eh_frame      0x0000000000000000       0x2c bin/blib.a(timer2.o)
 .comment       0x0000000000000000       0x2e bin/blib.a(timer2.o)
 .note.GNU-stack
                0x0000000000000000        0x0 bin/blib.a(timer2.o)
 .group         0x0000000000000000        0x8 bin/blib.a(librm_mgmt.o)
 .group         0x0000000000000000        0x8 bin/blib.a(librm_mgmt.o)
 .text.__x86.get_pc_thunk.bx
                0x0000000000000000        0x4 bin/blib.a(librm_mgmt.o)
 .text.__x86.get_pc_thunk.si
                0x0000000000000000        0x4 bin/blib.a(librm_mgmt.o)
 .eh_frame      0x0000000000000000       0xd8 bin/blib.a(librm_mgmt.o)
 .comment       0x0000000000000000       0x2e bin/blib.a(librm_mgmt.o)
 .note.GNU-stack
                0x0000000000000000        0x0 bin/blib.a(librm_mgmt.o)
 .group         0x0000000000000000        0x8 bin/blib.a(gateA20.o)
 .group         0x0000000000000000        0x8 bin/blib.a(gateA20.o)
 .text.__x86.get_pc_thunk.cx
                0x0000000000000000        0x4 bin/blib.a(gateA20.o)
 .text.__x86.get_pc_thunk.bx
                0x0000000000000000        0x4 bin/blib.a(gateA20.o)
 .eh_frame      0x0000000000000000       0xe0 bin/blib.a(gateA20.o)
 .comment       0x0000000000000000       0x2e bin/blib.a(gateA20.o)
 .note.GNU-stack
                0x0000000000000000        0x0 bin/blib.a(gateA20.o)
 .group         0x0000000000000000        0x8 bin/blib.a(memmap.o)
 .text.__x86.get_pc_thunk.si
                0x0000000000000000        0x4 bin/blib.a(memmap.o)
 .eh_frame      0x0000000000000000       0xc4 bin/blib.a(memmap.o)
 .comment       0x0000000000000000       0x2e bin/blib.a(memmap.o)
 .note.GNU-stack
                0x0000000000000000        0x0 bin/blib.a(memmap.o)
 .group         0x0000000000000000        0x8 bin/blib.a(bootsector.o)
 .text.__x86.get_pc_thunk.si
                0x0000000000000000        0x4 bin/blib.a(bootsector.o)
 .eh_frame      0x0000000000000000       0x90 bin/blib.a(bootsector.o)
 .comment       0x0000000000000000       0x2e bin/blib.a(bootsector.o)
 .note.GNU-stack
                0x0000000000000000        0x0 bin/blib.a(bootsector.o)
 .group         0x0000000000000000        0x8 bin/blib.a(undinet.o)
 .group         0x0000000000000000        0x8 bin/blib.a(undinet.o)
 .text.__x86.get_pc_thunk.bx
                0x0000000000000000        0x4 bin/blib.a(undinet.o)
 .text.__x86.get_pc_thunk.si
                0x0000000000000000        0x4 bin/blib.a(undinet.o)
 .eh_frame      0x0000000000000000      0x3a4 bin/blib.a(undinet.o)
 .comment       0x0000000000000000       0x2e bin/blib.a(undinet.o)
 .note.GNU-stack
                0x0000000000000000        0x0 bin/blib.a(undinet.o)
 .group         0x0000000000000000        0x8 bin/blib.a(abft.o)
 .text.__x86.get_pc_thunk.dx
                0x0000000000000000        0x4 bin/blib.a(abft.o)
 .eh_frame      0x0000000000000000       0x40 bin/blib.a(abft.o)
 .comment       0x0000000000000000       0x2e bin/blib.a(abft.o)
 .note.GNU-stack
                0x0000000000000000        0x0 bin/blib.a(abft.o)
 .group         0x0000000000000000        0x8 bin/blib.a(memtop_umalloc.o)
 .text.__x86.get_pc_thunk.bx
                0x0000000000000000        0x4 bin/blib.a(memtop_umalloc.o)
 .eh_frame      0x0000000000000000       0x90 bin/blib.a(memtop_umalloc.o)
 .comment       0x0000000000000000       0x2e bin/blib.a(memtop_umalloc.o)
 .note.GNU-stack
                0x0000000000000000        0x0 bin/blib.a(memtop_umalloc.o)
 .group         0x0000000000000000        0x8 bin/blib.a(biosint.o)
 .text.__x86.get_pc_thunk.bx
                0x0000000000000000        0x4 bin/blib.a(biosint.o)
 .eh_frame      0x0000000000000000       0xb8 bin/blib.a(biosint.o)
 .comment       0x0000000000000000       0x2e bin/blib.a(biosint.o)
 .note.GNU-stack
                0x0000000000000000        0x0 bin/blib.a(biosint.o)
 .group         0x0000000000000000        0x8 bin/blib.a(bios_timer.o)
 .text.__x86.get_pc_thunk.dx
                0x0000000000000000        0x4 bin/blib.a(bios_timer.o)
 .eh_frame      0x0000000000000000       0x5c bin/blib.a(bios_timer.o)
 .comment       0x0000000000000000       0x2e bin/blib.a(bios_timer.o)
 .note.GNU-stack
                0x0000000000000000        0x0 bin/blib.a(bios_timer.o)
 .eh_frame      0x0000000000000000       0x24 bin/blib.a(bios_nap.o)
 .comment       0x0000000000000000       0x24 bin/blib.a(bios_nap.o)
 .note.GNU-stack
                0x0000000000000000        0x0 bin/blib.a(bios_nap.o)
 .eh_frame      0x0000000000000000      0x168 bin/blib.a(pxe_udp.o)
 .comment       0x0000000000000000       0x24 bin/blib.a(pxe_udp.o)
 .note.GNU-stack
                0x0000000000000000        0x0 bin/blib.a(pxe_udp.o)
 .eh_frame      0x0000000000000000      0x404 bin/blib.a(pxe_undi.o)
 .comment       0x0000000000000000       0x24 bin/blib.a(pxe_undi.o)
 .note.GNU-stack
                0x0000000000000000        0x0 bin/blib.a(pxe_undi.o)
 .eh_frame      0x0000000000000000       0x38 bin/blib.a(pxe_loader.o)
 .comment       0x0000000000000000       0x24 bin/blib.a(pxe_loader.o)
 .note.GNU-stack
                0x0000000000000000        0x0 bin/blib.a(pxe_loader.o)
 .eh_frame      0x0000000000000000      0x148 bin/blib.a(pxe_preboot.o)
 .comment       0x0000000000000000       0x24 bin/blib.a(pxe_preboot.o)
 .note.GNU-stack
                0x0000000000000000        0x0 bin/blib.a(pxe_preboot.o)
 .eh_frame      0x0000000000000000      0x280 bin/blib.a(pxe_tftp.o)
 .comment       0x0000000000000000       0x24 bin/blib.a(pxe_tftp.o)
 .note.GNU-stack
                0x0000000000000000        0x0 bin/blib.a(pxe_tftp.o)
 .eh_frame      0x0000000000000000      0x180 bin/blib.a(pxe_file.o)
 .comment       0x0000000000000000       0x24 bin/blib.a(pxe_file.o)
 .note.GNU-stack
                0x0000000000000000        0x0 bin/blib.a(pxe_file.o)
 .eh_frame      0x0000000000000000       0x54 bin/blib.a(pxeparent_dhcp.o)
 .comment       0x0000000000000000       0x24 bin/blib.a(pxeparent_dhcp.o)
 .note.GNU-stack
                0x0000000000000000        0x0 bin/blib.a(pxeparent_dhcp.o)
 .eh_frame      0x0000000000000000       0x78 bin/blib.a(pxeparent.o)
 .comment       0x0000000000000000       0x24 bin/blib.a(pxeparent.o)
 .note.GNU-stack
                0x0000000000000000        0x0 bin/blib.a(pxeparent.o)
 .eh_frame      0x0000000000000000       0x2c bin/blib.a(ctype.o)
 .comment       0x0000000000000000       0x2e bin/blib.a(ctype.o)
 .note.GNU-stack
                0x0000000000000000        0x0 bin/blib.a(ctype.o)
 .eh_frame      0x0000000000000000       0x5c bin/blib.a(getkey.o)
 .comment       0x0000000000000000       0x2e bin/blib.a(getkey.o)
 .note.GNU-stack
                0x0000000000000000        0x0 bin/blib.a(getkey.o)
 .group         0x0000000000000000        0x8 bin/blib.a(getopt.o)
 .text.__x86.get_pc_thunk.bx
                0x0000000000000000        0x4 bin/blib.a(getopt.o)
 .eh_frame      0x0000000000000000      0x100 bin/blib.a(getopt.o)
 .comment       0x0000000000000000       0x2e bin/blib.a(getopt.o)
 .note.GNU-stack
                0x0000000000000000        0x0 bin/blib.a(getopt.o)
 .eh_frame      0x0000000000000000       0xe8 bin/blib.a(bitmap.o)
 .comment       0x0000000000000000       0x2e bin/blib.a(bitmap.o)
 .note.GNU-stack
                0x0000000000000000        0x0 bin/blib.a(bitmap.o)
 .group         0x0000000000000000        0x8 bin/blib.a(downloader.o)
 .group         0x0000000000000000        0x8 bin/blib.a(downloader.o)
 .text.__x86.get_pc_thunk.cx
                0x0000000000000000        0x4 bin/blib.a(downloader.o)
 .text.__x86.get_pc_thunk.si
                0x0000000000000000        0x4 bin/blib.a(downloader.o)
 .eh_frame      0x0000000000000000      0x1a0 bin/blib.a(downloader.o)
 .comment       0x0000000000000000       0x2e bin/blib.a(downloader.o)
 .note.GNU-stack
                0x0000000000000000        0x0 bin/blib.a(downloader.o)
 .group         0x0000000000000000        0x8 bin/blib.a(xfer.o)
 .group         0x0000000000000000        0x8 bin/blib.a(xfer.o)
 .text.__x86.get_pc_thunk.cx
                0x0000000000000000        0x4 bin/blib.a(xfer.o)
 .text.__x86.get_pc_thunk.di
                0x0000000000000000        0x4 bin/blib.a(xfer.o)
 .eh_frame      0x0000000000000000      0x3d0 bin/blib.a(xfer.o)
 .comment       0x0000000000000000       0x2e bin/blib.a(xfer.o)
 .note.GNU-stack
                0x0000000000000000        0x0 bin/blib.a(xfer.o)
 .eh_frame      0x0000000000000000       0xb4 bin/blib.a(linebuf.o)
 .comment       0x0000000000000000       0x2e bin/blib.a(linebuf.o)
 .note.GNU-stack
                0x0000000000000000        0x0 bin/blib.a(linebuf.o)
 .group         0x0000000000000000        0x8 bin/blib.a(base64.o)
 .text.__x86.get_pc_thunk.si
                0x0000000000000000        0x4 bin/blib.a(base64.o)
 .eh_frame      0x0000000000000000       0x90 bin/blib.a(base64.o)
 .comment       0x0000000000000000       0x2e bin/blib.a(base64.o)
 .note.GNU-stack
                0x0000000000000000        0x0 bin/blib.a(base64.o)
 .group         0x0000000000000000        0x8 bin/blib.a(job.o)
 .group         0x0000000000000000        0x8 bin/blib.a(job.o)
 .text.__x86.get_pc_thunk.di
                0x0000000000000000        0x4 bin/blib.a(job.o)
 .text.__x86.get_pc_thunk.bp
                0x0000000000000000        0x4 bin/blib.a(job.o)
 .eh_frame      0x0000000000000000      0x158 bin/blib.a(job.o)
 .comment       0x0000000000000000       0x2e bin/blib.a(job.o)
 .note.GNU-stack
                0x0000000000000000        0x0 bin/blib.a(job.o)
 .group         0x0000000000000000        0x8 bin/blib.a(monojob.o)
 .group         0x0000000000000000        0x8 bin/blib.a(monojob.o)
 .text.__x86.get_pc_thunk.ax
                0x0000000000000000        0x4 bin/blib.a(monojob.o)
 .text.__x86.get_pc_thunk.bx
                0x0000000000000000        0x4 bin/blib.a(monojob.o)
 .eh_frame      0x0000000000000000      0x100 bin/blib.a(monojob.o)
 .comment       0x0000000000000000       0x2e bin/blib.a(monojob.o)
 .note.GNU-stack
                0x0000000000000000        0x0 bin/blib.a(monojob.o)
 .group         0x0000000000000000        0x8 bin/blib.a(random.o)
 .group         0x0000000000000000        0x8 bin/blib.a(random.o)
 .text.__x86.get_pc_thunk.dx
                0x0000000000000000        0x4 bin/blib.a(random.o)
 .text.__x86.get_pc_thunk.bx
                0x0000000000000000        0x4 bin/blib.a(random.o)
 .eh_frame      0x0000000000000000       0x84 bin/blib.a(random.o)
 .comment       0x0000000000000000       0x2e bin/blib.a(random.o)
 .note.GNU-stack
                0x0000000000000000        0x0 bin/blib.a(random.o)
 .group         0x0000000000000000        0x8 bin/blib.a(fakedhcp.o)
 .group         0x0000000000000000        0x8 bin/blib.a(fakedhcp.o)
 .text.__x86.get_pc_thunk.bx
                0x0000000000000000        0x4 bin/blib.a(fakedhcp.o)
 .text.__x86.get_pc_thunk.si
                0x0000000000000000        0x4 bin/blib.a(fakedhcp.o)
 .eh_frame      0x0000000000000000      0x1c0 bin/blib.a(fakedhcp.o)
 .comment       0x0000000000000000       0x2e bin/blib.a(fakedhcp.o)
 .note.GNU-stack
                0x0000000000000000        0x0 bin/blib.a(fakedhcp.o)
 .group         0x0000000000000000        0x8 bin/blib.a(tcp.o)
 .group         0x0000000000000000        0x8 bin/blib.a(tcp.o)
 .group         0x0000000000000000        0x8 bin/blib.a(tcp.o)
 .group         0x0000000000000000        0x8 bin/blib.a(tcp.o)
 .group         0x0000000000000000        0x8 bin/blib.a(tcp.o)
 .text.__x86.get_pc_thunk.cx
                0x0000000000000000        0x4 bin/blib.a(tcp.o)
 .text.__x86.get_pc_thunk.bx
                0x0000000000000000        0x4 bin/blib.a(tcp.o)
 .text.__x86.get_pc_thunk.si
                0x0000000000000000        0x4 bin/blib.a(tcp.o)
 .text.__x86.get_pc_thunk.di
                0x0000000000000000        0x4 bin/blib.a(tcp.o)
 .text.__x86.get_pc_thunk.bp
                0x0000000000000000        0x4 bin/blib.a(tcp.o)
 .eh_frame      0x0000000000000000      0x4e8 bin/blib.a(tcp.o)
 .comment       0x0000000000000000       0x2e bin/blib.a(tcp.o)
 .note.GNU-stack
                0x0000000000000000        0x0 bin/blib.a(tcp.o)
 .group         0x0000000000000000        0x8 bin/blib.a(arp.o)
 .group         0x0000000000000000        0x8 bin/blib.a(arp.o)
 .group         0x0000000000000000        0x8 bin/blib.a(arp.o)
 .text.__x86.get_pc_thunk.ax
                0x0000000000000000        0x4 bin/blib.a(arp.o)
 .text.__x86.get_pc_thunk.si
                0x0000000000000000        0x4 bin/blib.a(arp.o)
 .text.__x86.get_pc_thunk.di
                0x0000000000000000        0x4 bin/blib.a(arp.o)
 .eh_frame      0x0000000000000000      0x1b4 bin/blib.a(arp.o)
 .comment       0x0000000000000000       0x2e bin/blib.a(arp.o)
 .note.GNU-stack
                0x0000000000000000        0x0 bin/blib.a(arp.o)
 .group         0x0000000000000000        0x8 bin/blib.a(ethernet.o)
 .group         0x0000000000000000        0x8 bin/blib.a(ethernet.o)
 .text.__x86.get_pc_thunk.dx
                0x0000000000000000        0x4 bin/blib.a(ethernet.o)
 .text.__x86.get_pc_thunk.bx
                0x0000000000000000        0x4 bin/blib.a(ethernet.o)
 .eh_frame      0x0000000000000000      0x190 bin/blib.a(ethernet.o)
 .comment       0x0000000000000000       0x2e bin/blib.a(ethernet.o)
 .note.GNU-stack
                0x0000000000000000        0x0 bin/blib.a(ethernet.o)
 .group         0x0000000000000000        0x8 bin/blib.a(tcpip.o)
 .group         0x0000000000000000        0x8 bin/blib.a(tcpip.o)
 .text.__x86.get_pc_thunk.si
                0x0000000000000000        0x4 bin/blib.a(tcpip.o)
 .text.__x86.get_pc_thunk.di
                0x0000000000000000        0x4 bin/blib.a(tcpip.o)
 .eh_frame      0x0000000000000000      0x150 bin/blib.a(tcpip.o)
 .comment       0x0000000000000000       0x2e bin/blib.a(tcpip.o)
 .note.GNU-stack
                0x0000000000000000        0x0 bin/blib.a(tcpip.o)
 .group         0x0000000000000000        0x8 bin/blib.a(tls.o)
 .group         0x0000000000000000        0x8 bin/blib.a(tls.o)
 .group         0x0000000000000000        0x8 bin/blib.a(tls.o)
 .text.__x86.get_pc_thunk.cx
                0x0000000000000000        0x4 bin/blib.a(tls.o)
 .text.__x86.get_pc_thunk.si
                0x0000000000000000        0x4 bin/blib.a(tls.o)
 .text.__x86.get_pc_thunk.di
                0x0000000000000000        0x4 bin/blib.a(tls.o)
 .eh_frame      0x0000000000000000      0x4fc bin/blib.a(tls.o)
 .comment       0x0000000000000000       0x2e bin/blib.a(tls.o)
 .note.GNU-stack
                0x0000000000000000        0x0 bin/blib.a(tls.o)
 .group         0x0000000000000000        0x8 bin/blib.a(rarp.o)
 .text.__x86.get_pc_thunk.ax
                0x0000000000000000        0x4 bin/blib.a(rarp.o)
 .eh_frame      0x0000000000000000       0x54 bin/blib.a(rarp.o)
 .comment       0x0000000000000000       0x2e bin/blib.a(rarp.o)
 .note.GNU-stack
                0x0000000000000000        0x0 bin/blib.a(rarp.o)
 .eh_frame      0x0000000000000000       0x7c bin/blib.a(nullnet.o)
 .comment       0x0000000000000000       0x2e bin/blib.a(nullnet.o)
 .note.GNU-stack
                0x0000000000000000        0x0 bin/blib.a(nullnet.o)
 .group         0x0000000000000000        0x8 bin/blib.a(dhcppkt.o)
 .group         0x0000000000000000        0x8 bin/blib.a(dhcppkt.o)
 .group         0x0000000000000000        0x8 bin/blib.a(dhcppkt.o)
 .text.__x86.get_pc_thunk.bx
                0x0000000000000000        0x4 bin/blib.a(dhcppkt.o)
 .text.__x86.get_pc_thunk.si
                0x0000000000000000        0x4 bin/blib.a(dhcppkt.o)
 .text.__x86.get_pc_thunk.di
                0x0000000000000000        0x4 bin/blib.a(dhcppkt.o)
 .eh_frame      0x0000000000000000      0x200 bin/blib.a(dhcppkt.o)
 .comment       0x0000000000000000       0x2e bin/blib.a(dhcppkt.o)
 .note.GNU-stack
                0x0000000000000000        0x0 bin/blib.a(dhcppkt.o)
 .eh_frame      0x0000000000000000       0x94 bin/blib.a(cachedhcp.o)
 .comment       0x0000000000000000       0x2e bin/blib.a(cachedhcp.o)
 .note.GNU-stack
                0x0000000000000000        0x0 bin/blib.a(cachedhcp.o)
 .group         0x0000000000000000        0x8 bin/blib.a(udp.o)
 .group         0x0000000000000000        0x8 bin/blib.a(udp.o)
 .group         0x0000000000000000        0x8 bin/blib.a(udp.o)
 .group         0x0000000000000000        0x8 bin/blib.a(udp.o)
 .group         0x0000000000000000        0x8 bin/blib.a(udp.o)
 .text.__x86.get_pc_thunk.cx
                0x0000000000000000        0x4 bin/blib.a(udp.o)
 .text.__x86.get_pc_thunk.bx
                0x0000000000000000        0x4 bin/blib.a(udp.o)
 .text.__x86.get_pc_thunk.si
                0x0000000000000000        0x4 bin/blib.a(udp.o)
 .text.__x86.get_pc_thunk.di
                0x0000000000000000        0x4 bin/blib.a(udp.o)
 .text.__x86.get_pc_thunk.bp
                0x0000000000000000        0x4 bin/blib.a(udp.o)
 .eh_frame      0x0000000000000000      0x30c bin/blib.a(udp.o)
 .comment       0x0000000000000000       0x2e bin/blib.a(udp.o)
 .note.GNU-stack
                0x0000000000000000        0x0 bin/blib.a(udp.o)
 .group         0x0000000000000000        0x8 bin/blib.a(dhcpopts.o)
 .text.__x86.get_pc_thunk.di
                0x0000000000000000        0x4 bin/blib.a(dhcpopts.o)
 .eh_frame      0x0000000000000000      0x228 bin/blib.a(dhcpopts.o)
 .comment       0x0000000000000000       0x2e bin/blib.a(dhcpopts.o)
 .note.GNU-stack
                0x0000000000000000        0x0 bin/blib.a(dhcpopts.o)
 .group         0x0000000000000000        0x8 bin/blib.a(dhcp.o)
 .group         0x0000000000000000        0x8 bin/blib.a(dhcp.o)
 .group         0x0000000000000000        0x8 bin/blib.a(dhcp.o)
 .group         0x0000000000000000        0x8 bin/blib.a(dhcp.o)
 .group         0x0000000000000000        0x8 bin/blib.a(dhcp.o)
 .group         0x0000000000000000        0x8 bin/blib.a(dhcp.o)
 .text.__x86.get_pc_thunk.dx
                0x0000000000000000        0x4 bin/blib.a(dhcp.o)
 .text.__x86.get_pc_thunk.cx
                0x0000000000000000        0x4 bin/blib.a(dhcp.o)
 .text.__x86.get_pc_thunk.bx
                0x0000000000000000        0x4 bin/blib.a(dhcp.o)
 .text.__x86.get_pc_thunk.si
                0x0000000000000000        0x4 bin/blib.a(dhcp.o)
 .text.__x86.get_pc_thunk.di
                0x0000000000000000        0x4 bin/blib.a(dhcp.o)
 .text.__x86.get_pc_thunk.bp
                0x0000000000000000        0x4 bin/blib.a(dhcp.o)
 .eh_frame      0x0000000000000000      0x958 bin/blib.a(dhcp.o)
 .comment       0x0000000000000000       0x2e bin/blib.a(dhcp.o)
 .note.GNU-stack
                0x0000000000000000        0x0 bin/blib.a(dhcp.o)
 .group         0x0000000000000000        0x8 bin/blib.a(smbios_settings.o)
 .text.__x86.get_pc_thunk.ax
                0x0000000000000000        0x4 bin/blib.a(smbios_settings.o)
 .eh_frame      0x0000000000000000       0x88 bin/blib.a(smbios_settings.o)
 .comment       0x0000000000000000       0x2e bin/blib.a(smbios_settings.o)
 .note.GNU-stack
                0x0000000000000000        0x0 bin/blib.a(smbios_settings.o)
 .eh_frame      0x0000000000000000       0x64 bin/blib.a(axtls_sha1.o)
 .comment       0x0000000000000000       0x2e bin/blib.a(axtls_sha1.o)
 .note.GNU-stack
                0x0000000000000000        0x0 bin/blib.a(axtls_sha1.o)
 .group         0x0000000000000000        0x8 bin/blib.a(axtls_aes.o)
 .group         0x0000000000000000        0x8 bin/blib.a(axtls_aes.o)
 .group         0x0000000000000000        0x8 bin/blib.a(axtls_aes.o)
 .text.__x86.get_pc_thunk.cx
                0x0000000000000000        0x4 bin/blib.a(axtls_aes.o)
 .text.__x86.get_pc_thunk.bx
                0x0000000000000000        0x4 bin/blib.a(axtls_aes.o)
 .text.__x86.get_pc_thunk.si
                0x0000000000000000        0x4 bin/blib.a(axtls_aes.o)
 .eh_frame      0x0000000000000000      0x220 bin/blib.a(axtls_aes.o)
 .comment       0x0000000000000000       0x2e bin/blib.a(axtls_aes.o)
 .note.GNU-stack
                0x0000000000000000        0x0 bin/blib.a(axtls_aes.o)
 .eh_frame      0x0000000000000000       0xf0 bin/blib.a(hmac.o)
 .comment       0x0000000000000000       0x2e bin/blib.a(hmac.o)
 .note.GNU-stack
                0x0000000000000000        0x0 bin/blib.a(hmac.o)
 .eh_frame      0x0000000000000000       0xb4 bin/blib.a(crypto_null.o)
 .comment       0x0000000000000000       0x2e bin/blib.a(crypto_null.o)
 .note.GNU-stack
                0x0000000000000000        0x0 bin/blib.a(crypto_null.o)
 .group         0x0000000000000000        0x8 bin/blib.a(x509.o)
 .text.__x86.get_pc_thunk.cx
                0x0000000000000000        0x4 bin/blib.a(x509.o)
 .eh_frame      0x0000000000000000       0x90 bin/blib.a(x509.o)
 .comment       0x0000000000000000       0x2e bin/blib.a(x509.o)
 .note.GNU-stack
                0x0000000000000000        0x0 bin/blib.a(x509.o)
 .group         0x0000000000000000        0x8 bin/blib.a(aes.o)
 .group         0x0000000000000000        0x8 bin/blib.a(aes.o)
 .text.__x86.get_pc_thunk.bx
                0x0000000000000000        0x4 bin/blib.a(aes.o)
 .text.__x86.get_pc_thunk.bp
                0x0000000000000000        0x4 bin/blib.a(aes.o)
 .eh_frame      0x0000000000000000      0x1d8 bin/blib.a(aes.o)
 .comment       0x0000000000000000       0x2e bin/blib.a(aes.o)
 .note.GNU-stack
                0x0000000000000000        0x0 bin/blib.a(aes.o)
 .eh_frame      0x0000000000000000      0x118 bin/blib.a(sha1.o)
 .comment       0x0000000000000000       0x2e bin/blib.a(sha1.o)
 .note.GNU-stack
                0x0000000000000000        0x0 bin/blib.a(sha1.o)
 .eh_frame      0x0000000000000000      0x208 bin/blib.a(rsa.o)
 .comment       0x0000000000000000       0x2e bin/blib.a(rsa.o)
 .note.GNU-stack
                0x0000000000000000        0x0 bin/blib.a(rsa.o)
 .group         0x0000000000000000        0x8 bin/blib.a(bigint.o)
 .group         0x0000000000000000        0x8 bin/blib.a(bigint.o)
 .text.__x86.get_pc_thunk.bx
                0x0000000000000000        0x4 bin/blib.a(bigint.o)
 .text.__x86.get_pc_thunk.di
                0x0000000000000000        0x4 bin/blib.a(bigint.o)
 .eh_frame      0x0000000000000000      0x700 bin/blib.a(bigint.o)
 .comment       0x0000000000000000       0x2e bin/blib.a(bigint.o)
 .note.GNU-stack
                0x0000000000000000        0x0 bin/blib.a(bigint.o)
 .eh_frame      0x0000000000000000       0xd0 bin/blib.a(editstring.o)
 .comment       0x0000000000000000       0x2e bin/blib.a(editstring.o)
 .note.GNU-stack
                0x0000000000000000        0x0 bin/blib.a(editstring.o)
 .group         0x0000000000000000        0x8 bin/blib.a(readline.o)
 .text.__x86.get_pc_thunk.bp
                0x0000000000000000        0x4 bin/blib.a(readline.o)
 .eh_frame      0x0000000000000000       0xc0 bin/blib.a(readline.o)
 .comment       0x0000000000000000       0x2e bin/blib.a(readline.o)
 .note.GNU-stack
                0x0000000000000000        0x0 bin/blib.a(readline.o)
 .eh_frame      0x0000000000000000       0x2c bin/blib.a(pic8259.o)
 .comment       0x0000000000000000       0x2e bin/blib.a(pic8259.o)
 .note.GNU-stack
                0x0000000000000000        0x0 bin/blib.a(pic8259.o)
 .comment       0x0000000000000000       0x2e bin/blib.a(basemem_packet.o)
 .note.GNU-stack
                0x0000000000000000        0x0 bin/blib.a(basemem_packet.o)
 .group         0x0000000000000000        0x8 bin/blib.a(pnpbios.o)
 .text.__x86.get_pc_thunk.bx
                0x0000000000000000        0x4 bin/blib.a(pnpbios.o)
 .eh_frame      0x0000000000000000       0x90 bin/blib.a(pnpbios.o)
 .comment       0x0000000000000000       0x2e bin/blib.a(pnpbios.o)
 .note.GNU-stack
                0x0000000000000000        0x0 bin/blib.a(pnpbios.o)
 .group         0x0000000000000000        0x8 bin/blib.a(hidemem.o)
 .group         0x0000000000000000        0x8 bin/blib.a(hidemem.o)
 .group         0x0000000000000000        0x8 bin/blib.a(hidemem.o)
 .text.__x86.get_pc_thunk.ax
                0x0000000000000000        0x4 bin/blib.a(hidemem.o)
 .text.__x86.get_pc_thunk.cx
                0x0000000000000000        0x4 bin/blib.a(hidemem.o)
 .text.__x86.get_pc_thunk.bx
                0x0000000000000000        0x4 bin/blib.a(hidemem.o)
 .eh_frame      0x0000000000000000      0x108 bin/blib.a(hidemem.o)
 .comment       0x0000000000000000       0x2e bin/blib.a(hidemem.o)
 .note.GNU-stack
                0x0000000000000000        0x0 bin/blib.a(hidemem.o)
 .eh_frame      0x0000000000000000       0x4c bin/blib.a(__udivdi3.o)
 .comment       0x0000000000000000       0x2e bin/blib.a(__udivdi3.o)
 .note.GNU-stack
                0x0000000000000000        0x0 bin/blib.a(__udivdi3.o)
 .eh_frame      0x0000000000000000       0x4c bin/blib.a(__umoddi3.o)
 .comment       0x0000000000000000       0x2e bin/blib.a(__umoddi3.o)
 .note.GNU-stack
                0x0000000000000000        0x0 bin/blib.a(__umoddi3.o)
 .eh_frame      0x0000000000000000       0x60 bin/blib.a(__udivmoddi4.o)
 .comment       0x0000000000000000       0x2e bin/blib.a(__udivmoddi4.o)
 .note.GNU-stack
                0x0000000000000000        0x0 bin/blib.a(__udivmoddi4.o)
 .eh_frame      0x0000000000000000       0xc0 bin/blib.a(filter.o)
 .comment       0x0000000000000000       0x2e bin/blib.a(filter.o)
 .note.GNU-stack
                0x0000000000000000        0x0 bin/blib.a(filter.o)
 .group         0x0000000000000000        0x8 bin/blib.a(smbios.o)
 .group         0x0000000000000000        0x8 bin/blib.a(smbios.o)
 .text.__x86.get_pc_thunk.bx
                0x0000000000000000        0x4 bin/blib.a(smbios.o)
 .text.__x86.get_pc_thunk.di
                0x0000000000000000        0x4 bin/blib.a(smbios.o)
 .eh_frame      0x0000000000000000      0x14c bin/blib.a(smbios.o)
 .comment       0x0000000000000000       0x2e bin/blib.a(smbios.o)
 .note.GNU-stack
                0x0000000000000000        0x0 bin/blib.a(smbios.o)
 .eh_frame      0x0000000000000000      0x100 bin/blib.a(cbc.o)
 .comment       0x0000000000000000       0x2e bin/blib.a(cbc.o)
 .note.GNU-stack
                0x0000000000000000        0x0 bin/blib.a(cbc.o)
 .eh_frame      0x0000000000000000       0xa4 bin/blib.a(asn1.o)
 .comment       0x0000000000000000       0x2e bin/blib.a(asn1.o)
 .note.GNU-stack
                0x0000000000000000        0x0 bin/blib.a(asn1.o)
 .eh_frame      0x0000000000000000       0x58 bin/blib.a(bios_smbios.o)
 .comment       0x0000000000000000       0x24 bin/blib.a(bios_smbios.o)
 .note.GNU-stack
                0x0000000000000000        0x0 bin/blib.a(bios_smbios.o)

Memory Configuration

Name             Origin             Length             Attributes
*default*        0x0000000000000000 0xffffffffffffffff

Linker script and memory map


.prefix         0x0000000000000000      0x7e6
                0x0000000000000000                _prefix = .
 *(.prefix)
 .prefix        0x0000000000000000      0x321 bin/blib.a(kkpxeprefix.o)
 *(.prefix.*)
 .prefix.data   0x0000000000000321      0x1b4 bin/blib.a(kkpxeprefix.o)
 *fill*         0x00000000000004d5        0xb 
 .prefix.lib    0x00000000000004e0      0x26b bin/blib.a(libprefix.o)
                0x00000000000004e0                print_character
                0x00000000000004ff                print_message
                0x000000000000050c                print_hex_dword
                0x0000000000000517                print_hex_word
                0x000000000000051e                print_hex_byte
                0x0000000000000527                print_hex_nibble
                0x0000000000000534                print_pci_busdevfn
                0x0000000000000555                print_kill_line
                0x0000000000000690                alloc_basemem
                0x00000000000006b1                install
                0x00000000000006c9                install_prealloc
 .prefix.lib    0x000000000000074b       0x9b bin/blib.a(unnrv2b16.o)
                0x000000000000074b                decompress16
                0x00000000000007e6                _mprefix = .

.bss.prefix     0x00000000000007e6        0x0 load address 0x0000000000024590
                0x00000000000007e6                _eprefix = .
                0x00000000000007e6                _prefix_filesz = ABSOLUTE ((_mprefix - _prefix))
                0x00000000000007e6                _prefix_memsz = ABSOLUTE ((_eprefix - _prefix))

.text16         0x0000000000000000      0x814 load address 0x00000000000007f0
                0x0000000000000000                _text16 = .
 *(.text16.null)
 .text16.null   0x0000000000000000        0x3 bin/blib.a(pxe_entry.o)
                0x0000000000000004                . = (. + 0x1)
 *fill*         0x0000000000000003        0x1 
 *(.text16)
 .text16        0x0000000000000004       0x2a bin/blib.a(bios_console.o)
 .text16        0x000000000000002e       0x21 bin/blib.a(comboot.o)
 .text16        0x000000000000004f       0x11 bin/blib.a(bzimage.o)
 .text16        0x0000000000000060       0x51 bin/blib.a(int13.o)
 .text16        0x00000000000000b1        0xe bin/blib.a(pxe_call.o)
 .text16        0x00000000000000bf       0xb3 bin/blib.a(com32_call.o)
 .text16        0x0000000000000172       0x6c bin/blib.a(comboot_call.o)
 .text16        0x00000000000001de      0x158 bin/blib.a(librm.o)
                0x00000000000001de                init_librm
                0x000000000000025b                idt_init
                0x00000000000002d0                prot_call
 .text16        0x0000000000000336       0x3d bin/blib.a(kkpxeprefix.o)
 .text16        0x0000000000000373       0x30 bin/blib.a(libprefix.o)
                0x0000000000000373                free_basemem
                0x000000000000039f                uninstall
 .text16        0x00000000000003a3       0x65 bin/blib.a(pxe_entry.o)
                0x00000000000003da                pxe_int_1a
 .text16        0x0000000000000408        0x3 bin/blib.a(gateA20.o)
 .text16        0x000000000000040b       0x13 bin/blib.a(memmap.o)
 .text16        0x000000000000041e       0x2b bin/blib.a(bootsector.o)
 .text16        0x0000000000000449        0x5 bin/blib.a(undinet.o)
 .text16        0x000000000000044e        0x5 bin/blib.a(bios_timer.o)
 .text16        0x0000000000000453        0x4 bin/blib.a(bios_nap.o)
 .text16        0x0000000000000457        0xb bin/blib.a(pxeparent.o)
 .text16        0x0000000000000462       0x65 bin/blib.a(undiisr.o)
                0x0000000000000462                undiisr
 .text16        0x00000000000004c7      0x266 bin/blib.a(e820mangler.o)
                0x0000000000000705                int15
 *(.text16.*)
 *fill*         0x000000000000072d        0x3 
 .text16.data   0x0000000000000730        0x4 bin/blib.a(int13.o)
 .text16.data   0x0000000000000734       0x3c bin/blib.a(comboot_call.o)
 .text16.data   0x0000000000000770        0x2 bin/blib.a(librm.o)
                0x0000000000000770                rm_ds
 .text16.data   0x0000000000000772        0x2 bin/blib.a(libprefix.o)
                0x0000000000000772                hooked_bios_interrupts
 *fill*         0x0000000000000774        0xc 
 .text16.data   0x0000000000000780       0x90 bin/blib.a(pxe_entry.o)
                0x0000000000000780                ppxe
                0x00000000000007e0                pxenv
                0x000000000000080c                pxe_int_1a_vector
 .text16.data   0x0000000000000810        0x4 bin/blib.a(e820mangler.o)
                0x0000000000000810                int15_vector
                0x0000000000000814                _mtext16 = .

.bss.text16     0x0000000000000814        0x0 load address 0x0000000000024590
                0x0000000000000814                _etext16 = .
                0x0000000000000814                _text16_filesz = ABSOLUTE ((_mtext16 - _text16))
                0x0000000000000814                _text16_memsz = ABSOLUTE ((_etext16 - _text16))

.data16         0x0000000000000000      0x4d2 load address 0x0000000000001010
                0x0000000000000000                _data16 = .
                0x0000000000000001                . = (. + 0x1)
 *fill*         0x0000000000000000        0x1 
 *(.rodata16)
 *(.rodata16.*)
 *(.data16)
 *fill*         0x0000000000000001        0x3 
 .data16        0x0000000000000004        0xb bin/blib.a(multiboot.o)
 *fill*         0x000000000000000f       0x11 
 .data16        0x0000000000000020       0x60 bin/blib.a(undipreload.o)
                0x0000000000000020                preloaded_undi
 .data16        0x0000000000000080      0x2d0 bin/blib.a(ibft.o)
                0x0000000000000080                ibftab
 .data16        0x0000000000000350       0x27 bin/blib.a(comboot_call.o)
 *fill*         0x0000000000000377        0x9 
 .data16        0x0000000000000380       0x52 bin/blib.a(librm.o)
                0x00000000000003b8                idtr
                0x00000000000003c0                rm_cs
 .data16        0x00000000000003d2        0x8 bin/blib.a(libprefix.o)
 *fill*         0x00000000000003da        0x6 
 .data16        0x00000000000003e0       0x51 bin/blib.a(undinet.o)
                0x0000000000000428                undiisr_trigger_count
                0x000000000000042c                undiisr_next_handler
                0x0000000000000430                undiisr_irq
 *fill*         0x0000000000000431        0xf 
 .data16        0x0000000000000440       0x2e bin/blib.a(abft.o)
                0x0000000000000440                abftab
 *fill*         0x000000000000046e        0x2 
 .data16        0x0000000000000470        0x4 bin/blib.a(pxe_file.o)
                0x0000000000000470                pxe_exit_hook
 .data16        0x0000000000000474       0x10 bin/blib.a(undiisr.o)
 *fill*         0x0000000000000484        0xc 
 .data16        0x0000000000000490       0x42 bin/blib.a(e820mangler.o)
                0x0000000000000498                hidemem_base
                0x00000000000004a8                hidemem_umalloc
                0x00000000000004b8                hidemem_textdata
 *(.data16.*)
                0x00000000000004d2                _mdata16 = .

.got            0x00000000000004d4        0x8 load address 0x00000000000014e4
 .got           0x00000000000004d4        0x8 bin/blib.a(config.o)

.got.plt        0x00000000000004dc        0xc load address 0x00000000000014ec
 .got.plt       0x00000000000004dc        0xc bin/blib.a(config.o)
                0x00000000000004dc                _GLOBAL_OFFSET_TABLE_

.bss.data16     0x0000000000000500     0x2998 load address 0x0000000000024590
 *(.bss16)
 .bss16         0x0000000000000500      0x3a0 bin/blib.a(multiboot.o)
 .bss16         0x00000000000008a0       0x38 bin/blib.a(com32_call.o)
                0x00000000000008a0                com32_saved_sp
 .bss16         0x00000000000008d8       0x18 bin/blib.a(memmap.o)
 .bss16         0x00000000000008f0      0xec4 bin/blib.a(pxe_preboot.o)
 .bss16         0x00000000000017b4       0xa2 bin/blib.a(pxeparent.o)
                0x00000000000017b4                pxeparent_entry_point
 *fill*         0x0000000000001856        0xa 
 .bss16         0x0000000000001860      0x5ea bin/blib.a(basemem_packet.o)
                0x0000000000001860                basemem_packet
 .bss16         0x0000000000001e4a       0x48 bin/blib.a(e820mangler.o)
 *(.bss16.*)
 *(.stack16)
 *fill*         0x0000000000001e92        0x6 
 .stack16       0x0000000000001e98     0x1000 bin/blib.a(stack16.o)
                0x0000000000001e98                _stack16
                0x0000000000002e98                _estack16
 *(.stack16.*)
                0x0000000000002e98                _edata16 = .
                0x00000000000004d2                _data16_filesz = ABSOLUTE ((_mdata16 - _data16))
                0x0000000000002e98                _data16_memsz = ABSOLUTE ((_edata16 - _data16))

.textdata       0x0000000000000000    0x23058 load address 0x00000000000014f0
                0x0000000000000000                _textdata = .
 *(.text.null_trap)
                0x0000000000000001                . = (. + 0x1)
 *fill*         0x0000000000000000        0x1 
 *(.text)
 .text          0x0000000000000001        0x0 bin/blib.a(config.o)
 .text          0x0000000000000001      0x1d1 bin/blib.a(bios_console.o)
 .text          0x00000000000001d2      0x1e3 bin/blib.a(comboot.o)
 .text          0x00000000000003b5      0x623 bin/blib.a(bzimage.o)
                0x000000000000068a                bzimage_load
 .text          0x00000000000009d8       0x7b bin/blib.a(elfboot.o)
 .text          0x0000000000000a53      0x45a bin/blib.a(multiboot.o)
                0x0000000000000b88                multiboot_add_cmdline
 .text          0x0000000000000ead       0x86 bin/blib.a(pxe_image.o)
                0x0000000000000ed1                pxe_load
 .text          0x0000000000000f33      0x237 bin/blib.a(com32.o)
 .text          0x000000000000116a       0xf8 bin/blib.a(undionly.o)
 .text          0x0000000000001262        0x0 bin/blib.a(undipreload.o)
 .text          0x0000000000001262      0x11b bin/blib.a(iscsiboot.o)
 .text          0x000000000000137d      0x30e bin/blib.a(ibft.o)
                0x0000000000001406                ibft_fill_data
 .text          0x000000000000168b      0x11d bin/blib.a(aoeboot.o)
 .text          0x00000000000017a8      0x4c7 bin/blib.a(int13.o)
                0x0000000000001b5b                register_int13_drive
                0x0000000000001bd5                unregister_int13_drive
                0x0000000000001c06                int13_boot
 .text          0x0000000000001c6f       0x2c bin/blib.a(keepsan.o)
                0x0000000000001c6f                keep_san
 .text          0x0000000000001c9b      0x280 bin/blib.a(pxe_call.o)
                0x0000000000001d79                pxe_api_call
                0x0000000000001dfe                _pxe_api_call_weak
                0x0000000000001e08                pxe_loader_call
                0x0000000000001e67                pxe_activate
                0x0000000000001e9f                pxe_deactivate
                0x0000000000001ed8                pxe_start_nbp
 .text          0x0000000000001f1b       0x7f bin/blib.a(comboot_resolv.o)
                0x0000000000001f5e                comboot_resolv
 .text          0x0000000000001f9a      0x107 bin/blib.a(com32_call.o)
                0x0000000000001f9a                com32_intcall
                0x0000000000001ffe                com32_farcall
                0x0000000000002060                com32_cfarcall
 .text          0x00000000000020a1      0x774 bin/blib.a(comboot_call.o)
                0x0000000000002277                comboot_force_text_mode
                0x0000000000002779                hook_comboot_interrupts
                0x00000000000027c7                unhook_comboot_interrupts
 .text          0x0000000000002815       0x26 bin/blib.a(pxe_cmd.o)
 .text          0x000000000000283b       0x1f bin/blib.a(x86_string.o)
                0x000000000000283b                __memcpy
 .text          0x000000000000285a       0x45 bin/blib.a(setjmp.o)
                0x000000000000285a                setjmp
                0x0000000000002878                longjmp
 .text          0x000000000000289f       0x55 bin/blib.a(virtaddr.o)
                0x000000000000289f                _virt_to_phys
                0x00000000000028cb                _phys_to_virt
 .text          0x00000000000028f4       0xab bin/blib.a(librm.o)
                0x000000000000298c                real_call
 .text          0x000000000000299f        0x0 bin/blib.a(kkpxeprefix.o)
 .text          0x000000000000299f        0x0 bin/blib.a(libprefix.o)
 .text          0x000000000000299f        0x0 bin/blib.a(pxe_entry.o)
 .text          0x000000000000299f       0x53 bin/blib.a(com32_wrapper.o)
                0x000000000000299f                com32_farcall_wrapper
                0x00000000000029a6                com32_cfarcall_wrapper
                0x00000000000029ad                com32_intcall_wrapper
 .text          0x00000000000029f2      0xcae bin/blib.a(settings.o)
                0x0000000000002c9c                generic_settings_clear
                0x0000000000002cc4                find_settings
                0x0000000000002cda                unregister_settings
                0x0000000000002d06                fetch_setting
                0x0000000000002d8d                fetch_setting_len
                0x0000000000002e51                fetch_string_setting
                0x0000000000002ed6                fetch_string_setting_copy
                0x0000000000002f1e                fetch_ipv4_setting
                0x0000000000002f70                fetch_int_setting
                0x0000000000002ff1                fetch_uint_setting
                0x0000000000003051                fetch_intz_setting
                0x00000000000030f1                register_settings
                0x00000000000031f5                fetch_uintz_setting
                0x0000000000003202                fetch_uuid_setting
                0x000000000000325d                clear_settings
                0x000000000000326a                setting_cmp
                0x0000000000003295                generic_settings_store
                0x000000000000339a                store_setting
                0x0000000000003582                generic_settings_fetch
                0x00000000000035db                storef_setting
                0x00000000000035f1                storef_named_setting
                0x0000000000003645                fetchf_named_setting
 .text          0x00000000000036a0       0x30 bin/blib.a(interface.o)
                0x00000000000036a0                plug
                0x00000000000036bd                plug_plug
 .text          0x00000000000036d0      0x609 bin/blib.a(uri.o)
                0x00000000000036d0                uri_port
                0x00000000000036e7                resolve_path
                0x00000000000037c7                uri_encode
                0x00000000000038bc                unparse_uri
                0x00000000000039e7                uri_decode
                0x0000000000003a68                parse_uri
                0x0000000000003bfb                uri_dup
                0x0000000000003c3b                resolve_uri
 .text          0x0000000000003cd9       0x4f bin/blib.a(asprintf.o)
                0x0000000000003cd9                vasprintf
                0x0000000000003d16                asprintf
 .text          0x0000000000003d28       0xc2 bin/blib.a(process.o)
                0x0000000000003d28                process_add
                0x0000000000003d8a                process_del
                0x0000000000003da6                step
 .text          0x0000000000003dea       0x25 bin/blib.a(refcnt.o)
                0x0000000000003dea                ref_get
                0x0000000000003df1                ref_put
 .text          0x0000000000003e0f       0xb1 bin/blib.a(init.o)
                0x0000000000003e0f                initialise
                0x0000000000003e35                startup
                0x0000000000003e77                shutdown
 .text          0x0000000000003ec0      0x1bf bin/blib.a(string.o)
                0x0000000000003ec0                strcpy
                0x0000000000003ed0                strncpy
                0x0000000000003ee8                strcat
                0x0000000000003f06                strcmp
                0x0000000000003f21                strcasecmp
                0x0000000000003f60                strchr
                0x0000000000003f71                strrchr
                0x0000000000003f92                strnlen
                0x0000000000003fa7                memcmp
                0x0000000000003fc7                strstr
                0x0000000000004028                memchr
                0x000000000000403e                strndup
                0x000000000000407a                strdup
 .text          0x000000000000407f      0x38e bin/blib.a(vsprintf.o)
                0x000000000000409f                vcprintf
                0x0000000000004348                vsnprintf
                0x0000000000004395                snprintf
                0x00000000000043ac                vssnprintf
                0x00000000000043be                ssnprintf
                0x00000000000043d5                vprintf
                0x00000000000043ff                printf
 .text          0x000000000000440d      0x334 bin/blib.a(posix_io.o)
                0x00000000000044e1                open
                0x00000000000045eb                select
                0x0000000000004651                read_user
                0x00000000000046de                fsize
                0x00000000000046f1                close
 .text          0x0000000000004741       0xbd bin/blib.a(console.o)
                0x000000000000477d                putchar
                0x00000000000047c5                getchar
                0x00000000000047f0                iskey
 .text          0x00000000000047fe      0x141 bin/blib.a(open.o)
                0x00000000000047fe                xfer_open_uri
                0x0000000000004866                xfer_open_uri_string
                0x0000000000004895                xfer_open_socket
                0x00000000000048da                xfer_vopen
                0x0000000000004910                xfer_open
                0x0000000000004922                xfer_vreopen
 .text          0x000000000000493f       0x17 bin/blib.a(acpi.o)
                0x000000000000493f                acpi_fix_checksum
 .text          0x0000000000004956      0x350 bin/blib.a(resolv.o)
                0x0000000000004956                ignore_resolv_done
                0x0000000000004a80                resolv_done
                0x0000000000004b3c                resolv
                0x0000000000004bf0                xfer_open_named_socket
 .text          0x0000000000004ca6       0xf8 bin/blib.a(misc.o)
                0x0000000000004ca6                strtoul
                0x0000000000004d20                inet_aton
 .text          0x0000000000004d9e       0x30 bin/blib.a(cwuri.o)
                0x0000000000004d9e                churi
 .text          0x0000000000004dce        0x0 bin/blib.a(main.o)
 .text          0x0000000000004dce      0x1b4 bin/blib.a(malloc.o)
                0x0000000000004dce                alloc_memblock
                0x0000000000004e53                free_memblock
                0x0000000000004efc                realloc
                0x0000000000004f53                malloc
                0x0000000000004f59                free
                0x0000000000004f5d                zalloc
                0x0000000000004f7a                mpopulate
 .text          0x0000000000004f82       0xba bin/blib.a(ansiesc.o)
                0x0000000000004f82                ansiesc_process
 .text          0x000000000000503c       0xb6 bin/blib.a(device.o)
 .text          0x00000000000050f2      0x291 bin/blib.a(exec.o)
                0x00000000000051a0                execv
                0x000000000000523a                system
 .text          0x0000000000005383       0xe4 bin/blib.a(serial.o)
                0x0000000000005411                serial_putc
                0x0000000000005440                serial_getc
                0x000000000000545d                serial_ischar
 .text          0x0000000000005467       0x51 bin/blib.a(basename.o)
                0x0000000000005467                basename
                0x000000000000547f                dirname
 .text          0x00000000000054b8       0x37 bin/blib.a(cpio.o)
                0x00000000000054b8                cpio_set_field
 .text          0x00000000000054ef       0x5e bin/blib.a(iobuf.o)
                0x00000000000054ef                alloc_iob
                0x0000000000005526                free_iob
                0x000000000000553d                iob_ensure_headroom
 .text          0x000000000000554d      0x28d bin/blib.a(image.o)
                0x0000000000005572                alloc_image
                0x0000000000005597                image_set_uri
                0x00000000000055d9                image_set_cmdline
                0x00000000000055fe                register_image
                0x0000000000005661                unregister_image
                0x0000000000005671                find_image
                0x00000000000056ba                image_load
                0x00000000000056db                image_autoload
                0x0000000000005731                image_exec
                0x00000000000057ae                register_and_autoload_image
                0x00000000000057c4                register_and_autoexec_image
 .text          0x00000000000057da       0x2e bin/blib.a(timer.o)
                0x00000000000057da                mdelay
                0x00000000000057f0                sleep
 .text          0x0000000000005808       0x80 bin/blib.a(uuid.o)
                0x0000000000005808                uuid_ntoa
 .text          0x0000000000005888      0x53a bin/blib.a(aoe.o)
                0x0000000000005c1f                aoe_detach
                0x0000000000005c61                aoe_attach
 .text          0x0000000000005dc2      0x6e9 bin/blib.a(ipv4.o)
                0x0000000000006468                inet_ntoa
 .text          0x00000000000064ab      0x528 bin/blib.a(netdevice.o)
                0x00000000000064e6                netdev_link_down
                0x00000000000064fd                netdev_tx_complete_err
                0x0000000000006525                netdev_tx
                0x000000000000656a                netdev_tx_complete_next_err
                0x000000000000657e                netdev_rx
                0x0000000000006597                netdev_rx_err
                0x00000000000065c0                netdev_poll
                0x00000000000065cd                netdev_rx_dequeue
                0x000000000000663c                alloc_netdev
                0x00000000000066e5                register_netdev
                0x0000000000006763                netdev_open
                0x00000000000067aa                netdev_close
                0x00000000000067e9                unregister_netdev
                0x000000000000680f                netdev_irq
                0x0000000000006815                find_netdev
                0x000000000000685e                find_netdev_by_location
                0x00000000000068a2                last_opened_netdev
                0x00000000000068c3                net_tx
                0x000000000000690e                net_rx
 .text          0x00000000000069d3      0x134 bin/blib.a(retry.o)
                0x0000000000006a4c                start_timer
                0x0000000000006ab0                start_timer_fixed
                0x0000000000006ac1                stop_timer
 .text          0x0000000000006b07       0x91 bin/blib.a(icmp.o)
 .text          0x0000000000006b98      0x13b bin/blib.a(netdev_settings.o)
 .text          0x0000000000006cd3     0x1341 bin/blib.a(iscsi.o)
                0x00000000000075a6                iscsi_detach
                0x00000000000075f2                iscsi_attach
                0x00000000000077f6                iscsi_initiator_iqn
 .text          0x0000000000008014      0x39a bin/blib.a(ftp.o)
 .text          0x00000000000083ae      0x568 bin/blib.a(http.o)
                0x00000000000087e1                http_open_filter
 .text          0x0000000000008916       0x1d bin/blib.a(https.o)
 .text          0x0000000000008933      0x48c bin/blib.a(dns.o)
 .text          0x0000000000008dbf      0x9c6 bin/blib.a(tftp.o)
                0x0000000000009740                tftp_set_request_blksize
                0x000000000000975e                tftp_set_mtftp_address
                0x0000000000009770                tftp_set_mtftp_port
 .text          0x0000000000009785       0xf4 bin/blib.a(script.o)
 .text          0x0000000000009879      0x126 bin/blib.a(elf.o)
                0x0000000000009879                elf_load
 .text          0x000000000000999f       0xc4 bin/blib.a(segment.o)
                0x000000000000999f                prep_segment
 .text          0x0000000000009a63       0x28 bin/blib.a(embedded.o)
 .text          0x0000000000009a8b      0x1c7 bin/blib.a(ata.o)
                0x0000000000009c3a                init_atadev
 .text          0x0000000000009c52      0x358 bin/blib.a(scsi.o)
                0x0000000000009e7b                scsi_detached_command
                0x0000000000009e81                init_scsidev
                0x0000000000009f44                scsi_parse_lun
 .text          0x0000000000009faa      0x23c bin/blib.a(md5.o)
 .text          0x000000000000a1e6       0x6d bin/blib.a(chap.o)
                0x000000000000a1e6                chap_init
                0x000000000000a21d                chap_update
                0x000000000000a22c                chap_respond
                0x000000000000a23c                chap_finish
 .text          0x000000000000a253        0x3 bin/blib.a(shell_banner.o)
                0x000000000000a253                shell_banner
 .text          0x000000000000a256       0x86 bin/blib.a(strerror.o)
                0x000000000000a256                strerror
 .text          0x000000000000a2dc      0x104 bin/blib.a(shell.o)
                0x000000000000a39e                shell
 .text          0x000000000000a3e0      0x53a bin/blib.a(image_cmd.o)
 .text          0x000000000000a91a       0x56 bin/blib.a(route_cmd.o)
 .text          0x000000000000a970      0x140 bin/blib.a(dhcp_cmd.o)
 .text          0x000000000000aab0       0x2b bin/blib.a(autoboot_cmd.o)
 .text          0x000000000000aadb      0x15a bin/blib.a(ifmgmt_cmd.o)
                0x000000000000aaf0                ifcommon_exec
 .text          0x000000000000ac35       0x74 bin/blib.a(sanboot_cmd.o)
 .text          0x000000000000aca9       0x3d bin/blib.a(login_cmd.o)
 .text          0x000000000000ace6       0x60 bin/blib.a(config_cmd.o)
 .text          0x000000000000ad46      0x12c bin/blib.a(nvo_cmd.o)
 .text          0x000000000000ae72      0x562 bin/blib.a(settings_ui.o)
                0x000000000000b34b                settings_ui
 .text          0x000000000000b3d4      0x22c bin/blib.a(login_ui.o)
                0x000000000000b3d4                login_ui
 .text          0x000000000000b600       0x8c bin/blib.a(colour.o)
                0x000000000000b600                colour_content
                0x000000000000b628                init_pair
                0x000000000000b659                pair_content
 .text          0x000000000000b68c       0x60 bin/blib.a(print.o)
                0x000000000000b699                waddch
                0x000000000000b6a3                waddnstr
                0x000000000000b6b0                vw_printw
                0x000000000000b6da                wprintw
 .text          0x000000000000b6ec      0x121 bin/blib.a(mucurses.o)
                0x000000000000b702                _wputch
                0x000000000000b752                _wputc
                0x000000000000b75c                _wcursback
                0x000000000000b78b                _wputchstr
                0x000000000000b7b9                _wputstr
                0x000000000000b7e7                wmove
 .text          0x000000000000b80d       0xad bin/blib.a(wininit.o)
                0x000000000000b80d                initscr
                0x000000000000b855                endwin
 .text          0x000000000000b8ba       0x84 bin/blib.a(winattrs.o)
                0x000000000000b8ba                getbkgd
                0x000000000000b8be                wattroff
                0x000000000000b8c6                wattron
                0x000000000000b8cc                wattrset
                0x000000000000b8dd                wattr_get
                0x000000000000b8f5                wattr_off
                0x000000000000b8fd                wattr_on
                0x000000000000b903                wattr_set
                0x000000000000b920                wcolour_set
 .text          0x000000000000b93e       0xf7 bin/blib.a(ansi_screen.o)
 .text          0x000000000000ba35       0xc3 bin/blib.a(clear.o)
                0x000000000000ba35                wclrtobot
                0x000000000000ba67                wclrtoeol
                0x000000000000ba98                wdelch
                0x000000000000bab5                wdeleteln
                0x000000000000bae1                werase
 .text          0x000000000000baf8      0x165 bin/blib.a(editbox.o)
                0x000000000000baf8                init_editbox
                0x000000000000bb64                draw_editbox
 .text          0x000000000000bc5d      0x397 bin/blib.a(autoboot.o)
                0x000000000000bc96                boot_next_server_and_filename
                0x000000000000bd76                boot_root_path
                0x000000000000bf9c                autoboot
 .text          0x000000000000bff4      0x1ee bin/blib.a(ifmgmt.o)
                0x000000000000c040                ifopen
                0x000000000000c07a                ifclose
                0x000000000000c07f                ifstat
                0x000000000000c153                iflinkwait
 .text          0x000000000000c1e2      0x11c bin/blib.a(dhcpmgmt.o)
                0x000000000000c1e2                dhcp
                0x000000000000c2b3                pxebs
 .text          0x000000000000c2fe      0x4de bin/blib.a(pxemenu.o)
                0x000000000000c508                pxe_menu_boot
 .text          0x000000000000c7dc      0x17c bin/blib.a(imgmgmt.o)
                0x000000000000c7dc                imgfetch
                0x000000000000c88f                imgload
                0x000000000000c894                imgexec
                0x000000000000c899                imgautoselect
                0x000000000000c8de                imgstat
                0x000000000000c953                imgfree
 .text          0x000000000000c958       0x9c bin/blib.a(route.o)
                0x000000000000c958                route
 .text          0x000000000000c9f4      0x101 bin/blib.a(relocate.o)
                0x000000000000c9f4                relocate
 .text          0x000000000000caf5       0x31 bin/blib.a(timer2.o)
                0x000000000000caf5                timer2_udelay
 .text          0x000000000000cb26       0x95 bin/blib.a(librm_mgmt.o)
                0x000000000000cb26                copy_user_to_rm_stack
                0x000000000000cb76                remove_user_from_rm_stack
 .text          0x000000000000cbbb      0x16d bin/blib.a(gateA20.o)
                0x000000000000cc24                gateA20_set
                0x000000000000cd27                gateA20_unset
 .text          0x000000000000cd28      0x1dd bin/blib.a(memmap.o)
                0x000000000000cd28                extmemsize
                0x000000000000cd7b                get_memmap
 .text          0x000000000000cf05       0xa0 bin/blib.a(bootsector.o)
                0x000000000000cf05                call_bootsector
 .text          0x000000000000cfa5      0x760 bin/blib.a(undinet.o)
                0x000000000000d379                undinet_probe
                0x000000000000d643                undinet_remove
 .text          0x000000000000d705       0x3c bin/blib.a(abft.o)
                0x000000000000d705                abft_fill_data
 .text          0x000000000000d741      0x1df bin/blib.a(memtop_umalloc.o)
                0x000000000000d741                urealloc
 .text          0x000000000000d920       0xc2 bin/blib.a(biosint.o)
                0x000000000000d920                hook_bios_interrupt
                0x000000000000d978                unhook_bios_interrupt
 .text          0x000000000000d9e2       0x50 bin/blib.a(bios_timer.o)
                0x000000000000d9e2                currticks
 .text          0x000000000000da32        0xe bin/blib.a(bios_nap.o)
                0x000000000000da32                cpu_nap
 .text          0x000000000000da40      0x212 bin/blib.a(pxe_udp.o)
                0x000000000000dac9                pxenv_udp_open
                0x000000000000db0a                pxenv_udp_close
                0x000000000000db22                pxenv_udp_write
                0x000000000000dbf9                pxenv_udp_read
 .text          0x000000000000dc52      0x6c1 bin/blib.a(pxe_undi.o)
                0x000000000000dc97                pxe_set_netdev
                0x000000000000dcc5                pxenv_undi_startup
                0x000000000000dccd                pxenv_undi_cleanup
                0x000000000000dcde                pxenv_undi_initialize
                0x000000000000dce6                pxenv_undi_reset_adapter
                0x000000000000dd13                pxenv_undi_shutdown
                0x000000000000dd24                pxenv_undi_open
                0x000000000000dd4c                pxenv_undi_close
                0x000000000000dd5d                pxenv_undi_transmit
                0x000000000000df41                pxenv_undi_set_mcast_address
                0x000000000000df49                pxenv_undi_set_station_address
                0x000000000000df81                pxenv_undi_set_packet_filter
                0x000000000000df89                pxenv_undi_get_information
                0x000000000000dff4                pxenv_undi_get_statistics
                0x000000000000e01d                pxenv_undi_clear_statistics
                0x000000000000e04f                pxenv_undi_initiate_diags
                0x000000000000e05a                pxenv_undi_force_interrupt
                0x000000000000e065                pxenv_undi_get_mcast_address
                0x000000000000e0a3                pxenv_undi_get_nic_type
                0x000000000000e135                pxenv_undi_get_iface_info
                0x000000000000e16f                pxenv_undi_get_state
                0x000000000000e17a                pxenv_undi_isr
 .text          0x000000000000e313       0x3e bin/blib.a(pxe_loader.o)
                0x000000000000e313                undi_loader
 .text          0x000000000000e351      0x1d4 bin/blib.a(pxe_preboot.o)
                0x000000000000e351                pxe_set_cached_filename
                0x000000000000e381                pxenv_unload_stack
                0x000000000000e389                pxenv_get_cached_info
                0x000000000000e43d                pxenv_restart_tftp
                0x000000000000e478                pxenv_start_undi
                0x000000000000e4dc                pxenv_stop_undi
                0x000000000000e512                pxenv_start_base
                0x000000000000e51d                pxenv_stop_base
 .text          0x000000000000e525      0x3df bin/blib.a(pxe_tftp.o)
                0x000000000000e6bf                pxenv_tftp_open
                0x000000000000e750                pxenv_tftp_close
                0x000000000000e763                pxenv_tftp_read
                0x000000000000e7fc                pxenv_tftp_read_file
                0x000000000000e88a                pxenv_tftp_get_fsize
 .text          0x000000000000e904      0x263 bin/blib.a(pxe_file.o)
                0x000000000000e904                pxenv_file_open
                0x000000000000e978                pxenv_file_close
                0x000000000000e98d                pxenv_file_select
                0x000000000000e9cf                pxenv_file_read
                0x000000000000ea1b                pxenv_get_file_size
                0x000000000000ea4a                pxenv_file_exec
                0x000000000000eabc                pxenv_file_api_check
                0x000000000000eb25                pxenv_file_exit_hook
 .text          0x000000000000eb67       0x6c bin/blib.a(pxeparent_dhcp.o)
                0x000000000000eb67                _w_get_cached_dhcpack
 .text          0x000000000000ebd3       0x8a bin/blib.a(pxeparent.o)
                0x000000000000ebd3                pxeparent_call
 .text          0x000000000000ec5d        0x0 bin/blib.a(stack16.o)
 .text          0x000000000000ec5d        0x0 bin/blib.a(stack.o)
 .text          0x000000000000ec5d        0x0 bin/blib.a(unnrv2b16.o)
 .text          0x000000000000ec5d        0x0 bin/blib.a(undiisr.o)
 .text          0x000000000000ec5d       0x1d bin/blib.a(ctype.o)
                0x000000000000ec5d                isspace
 .text          0x000000000000ec7a       0x62 bin/blib.a(getkey.o)
                0x000000000000ec7a                getkey
 .text          0x000000000000ecdc      0x281 bin/blib.a(getopt.o)
                0x000000000000ecdc                getopt_long
 .text          0x000000000000ef5d       0xac bin/blib.a(bitmap.o)
                0x000000000000ef5d                bitmap_resize
                0x000000000000efb7                bitmap_test
                0x000000000000efd7                bitmap_set
 .text          0x000000000000f009      0x198 bin/blib.a(downloader.o)
                0x000000000000f0fa                create_downloader
 .text          0x000000000000f1a1      0x294 bin/blib.a(xfer.o)
                0x000000000000f1a1                ignore_xfer_close
                0x000000000000f1a2                ignore_xfer_vredirect
                0x000000000000f1a5                unlimited_xfer_window
                0x000000000000f1a9                ignore_xfer_deliver_raw
                0x000000000000f1ac                default_xfer_alloc_iob
                0x000000000000f1b3                xfer_deliver_as_raw
                0x000000000000f1d3                xfer_close
                0x000000000000f225                xfer_vredirect
                0x000000000000f25c                xfer_redirect
                0x000000000000f26e                xfer_window
                0x000000000000f291                xfer_alloc_iob
                0x000000000000f2bc                xfer_deliver_iob_meta
                0x000000000000f2f3                xfer_deliver_iob
                0x000000000000f306                xfer_deliver_raw
                0x000000000000f33d                xfer_vprintf
                0x000000000000f389                xfer_printf
                0x000000000000f39b                xfer_seek
                0x000000000000f3dd                no_xfer_window
                0x000000000000f3e0                xfer_deliver_as_iob
 .text          0x000000000000f435       0xce bin/blib.a(linebuf.o)
                0x000000000000f435                buffered_line
                0x000000000000f441                empty_line_buffer
                0x000000000000f461                line_buffer
 .text          0x000000000000f503       0x8f bin/blib.a(base64.o)
                0x000000000000f503                base64_encode
 .text          0x000000000000f592       0xae bin/blib.a(job.o)
                0x000000000000f592                ignore_job_done
                0x000000000000f593                ignore_job_kill
                0x000000000000f594                ignore_job_progress
                0x000000000000f5a3                job_done
                0x000000000000f5e2                job_kill
                0x000000000000f61c                job_progress
 .text          0x000000000000f640       0xd7 bin/blib.a(monojob.o)
                0x000000000000f651                monojob_wait
 .text          0x000000000000f717       0x71 bin/blib.a(random.o)
                0x000000000000f717                srandom
                0x000000000000f729                random
 .text          0x000000000000f788      0x1c2 bin/blib.a(fakedhcp.o)
                0x000000000000f84d                create_fakedhcpdiscover
                0x000000000000f86a                create_fakedhcpack
                0x000000000000f8af                create_fakepxebsack
 .text          0x000000000000f94a      0xa04 bin/blib.a(tcp.o)
 .text          0x000000000001034e      0x30c bin/blib.a(arp.o)
                0x000000000001054d                arp_resolve
 .text          0x000000000001065a      0x12b bin/blib.a(ethernet.o)
                0x00000000000106c9                eth_init_addr
                0x00000000000106d5                eth_mc_hash
                0x0000000000010702                eth_eth_addr
                0x0000000000010710                eth_ntoa
                0x0000000000010755                alloc_etherdev
 .text          0x0000000000010785       0xde bin/blib.a(tcpip.o)
                0x0000000000010785                tcpip_rx
                0x00000000000107d4                tcpip_tx
                0x0000000000010824                tcpip_continue_chksum
                0x0000000000010858                tcpip_chksum
 .text          0x0000000000010863     0x108c bin/blib.a(tls.o)
                0x00000000000117b2                add_tls
 .text          0x00000000000118ef       0x19 bin/blib.a(rarp.o)
 .text          0x0000000000011908        0xf bin/blib.a(nullnet.o)
 .text          0x0000000000011917      0x1bb bin/blib.a(dhcppkt.o)
                0x0000000000011929                dhcppkt_store
                0x00000000000119cc                dhcppkt_fetch
                0x0000000000011a6d                dhcppkt_init
 .text          0x0000000000011ad2       0x52 bin/blib.a(cachedhcp.o)
                0x0000000000011ad2                store_cached_dhcpack
 .text          0x0000000000011b24      0x454 bin/blib.a(udp.o)
                0x0000000000011dfc                udp_open
                0x0000000000011f0e                udp_open_promisc
 .text          0x0000000000011f78      0x31d bin/blib.a(dhcpopts.o)
                0x00000000000121e6                dhcpopt_store
                0x00000000000121fc                dhcpopt_extensible_store
                0x0000000000012212                dhcpopt_fetch
                0x0000000000012246                dhcpopt_init
 .text          0x0000000000012295      0xe50 bin/blib.a(dhcp.o)
                0x0000000000012956                dhcp_chaddr
                0x0000000000012986                dhcp_create_packet
                0x0000000000012a60                dhcp_create_request
                0x0000000000012da8                start_dhcp
                0x0000000000012ea0                start_pxebs
 .text          0x00000000000130e5       0xb0 bin/blib.a(smbios_settings.o)
 .text          0x0000000000013195       0x11 bin/blib.a(axtls_sha1.o)
 .text          0x00000000000131a6      0x15e bin/blib.a(axtls_aes.o)
 .text          0x0000000000013304      0x147 bin/blib.a(hmac.o)
                0x000000000001333d                hmac_init
                0x00000000000133b5                hmac_final
 .text          0x000000000001344b       0x19 bin/blib.a(crypto_null.o)
 .text          0x0000000000013464      0x218 bin/blib.a(x509.o)
                0x0000000000013464                x509_rsa_public_key
 .text          0x000000000001367c      0x5c1 bin/blib.a(aes.o)
                0x0000000000013687                AES_set_key
                0x00000000000137fd                AES_convert_key
                0x00000000000138a3                AES_encrypt
                0x0000000000013a40                AES_decrypt
 .text          0x0000000000013c3d      0x32f bin/blib.a(sha1.o)
                0x0000000000013e08                SHA1Init
                0x0000000000013e3f                SHA1Update
                0x0000000000013e7b                SHA1Final
 .text          0x0000000000013f6c      0x24d bin/blib.a(rsa.o)
                0x0000000000013f6c                RSA_pub_key_new
                0x0000000000013fd8                RSA_priv_key_new
                0x0000000000014006                RSA_free
                0x0000000000014054                RSA_private
                0x0000000000014067                RSA_public
                0x000000000001407a                RSA_decrypt
                0x0000000000014123                RSA_encrypt
 .text          0x00000000000141b9      0xbf4 bin/blib.a(bigint.o)
                0x00000000000142a3                bi_initialize
                0x00000000000142d8                bi_copy
                0x00000000000142e8                bi_permanent
                0x00000000000142f0                bi_depermanent
                0x00000000000142f8                bi_free
                0x000000000001431a                bi_terminate
                0x00000000000144e1                int_to_bi
                0x00000000000144f5                bi_clone
                0x000000000001451b                bi_add
                0x00000000000145b2                bi_subtract
                0x000000000001463b                bi_import
                0x000000000001469f                bi_export
                0x000000000001470b                bi_set_mod
                0x0000000000014763                bi_free_mod
                0x0000000000014788                bi_multiply
                0x000000000001478f                bi_compare
                0x00000000000147c9                bi_divide
                0x0000000000014bc8                bi_mod_power
                0x0000000000014d10                bi_mod_power2
 .text          0x0000000000014dad      0x1af bin/blib.a(editstring.o)
                0x0000000000014e67                edit_string
 .text          0x0000000000014f5c      0x12c bin/blib.a(readline.o)
                0x0000000000014f5c                readline
 .text          0x0000000000015088       0x1f bin/blib.a(pic8259.o)
                0x0000000000015088                send_eoi
 .text          0x00000000000150a7        0x0 bin/blib.a(basemem_packet.o)
 .text          0x00000000000150a7       0x9d bin/blib.a(pnpbios.o)
                0x00000000000150a7                find_pnp_bios
 .text          0x0000000000015144      0x19f bin/blib.a(hidemem.o)
                0x0000000000015177                hide_basemem
                0x00000000000151ab                hide_umalloc
                0x00000000000151ea                hide_textdata
 .text          0x00000000000152e3        0x0 bin/blib.a(e820mangler.o)
 .text          0x00000000000152e3       0x1b bin/blib.a(__udivdi3.o)
                0x00000000000152e3                __udivdi3
 .text          0x00000000000152fe       0x26 bin/blib.a(__umoddi3.o)
                0x00000000000152fe                __umoddi3
 .text          0x0000000000015324       0xa7 bin/blib.a(__udivmoddi4.o)
                0x0000000000015324                __udivmoddi4
 .text          0x00000000000153cb       0x36 bin/blib.a(filter.o)
                0x00000000000153cb                filter_close
                0x00000000000153d3                filter_vredirect
                0x00000000000153dd                filter_window
                0x00000000000153e5                filter_alloc_iob
                0x00000000000153ed                filter_deliver_iob
                0x00000000000153f7                filter_deliver_raw
 .text          0x0000000000015401      0x165 bin/blib.a(smbios.o)
                0x0000000000015401                find_smbios_structure
                0x00000000000154be                read_smbios_structure
                0x00000000000154f0                read_smbios_string
 .text          0x0000000000015566       0xd6 bin/blib.a(cbc.o)
                0x0000000000015566                cbc_encrypt
                0x00000000000155d2                cbc_decrypt
 .text          0x000000000001563c       0xb7 bin/blib.a(asn1.o)
                0x00000000000156b7                asn1_enter
                0x00000000000156ca                asn1_skip
 .text          0x00000000000156f3       0xa4 bin/blib.a(bios_smbios.o)
                0x00000000000156f3                find_smbios
 *(.text.*)
 .text.__x86.get_pc_thunk.ax
                0x0000000000015797        0x4 bin/blib.a(bios_console.o)
                0x0000000000015797                __x86.get_pc_thunk.ax
 .text.__x86.get_pc_thunk.cx
                0x000000000001579b        0x4 bin/blib.a(bios_console.o)
                0x000000000001579b                __x86.get_pc_thunk.cx
 .text.__x86.get_pc_thunk.bx
                0x000000000001579f        0x4 bin/blib.a(bios_console.o)
                0x000000000001579f                __x86.get_pc_thunk.bx
 .text.__x86.get_pc_thunk.si
                0x00000000000157a3        0x4 bin/blib.a(bios_console.o)
                0x00000000000157a3                __x86.get_pc_thunk.si
 .text.__x86.get_pc_thunk.di
                0x00000000000157a7        0x4 bin/blib.a(comboot.o)
                0x00000000000157a7                __x86.get_pc_thunk.di
 .text.__x86.get_pc_thunk.bp
                0x00000000000157ab        0x4 bin/blib.a(bzimage.o)
                0x00000000000157ab                __x86.get_pc_thunk.bp
 .text.__x86.get_pc_thunk.dx
                0x00000000000157af        0x4 bin/blib.a(pxe_image.o)
                0x00000000000157af                __x86.get_pc_thunk.dx
 .text.unlikely
                0x00000000000157b3        0x0 bin/blib.a(int13.o)
 .text.unlikely
                0x00000000000157b3        0x0 bin/blib.a(keepsan.o)
 .text.unlikely
                0x00000000000157b3        0x0 bin/blib.a(pxe_call.o)
 .text.unlikely
                0x00000000000157b3        0x0 bin/blib.a(comboot_resolv.o)
 .text.unlikely
                0x00000000000157b3        0x0 bin/blib.a(com32_call.o)
 .text.unlikely
                0x00000000000157b3        0x0 bin/blib.a(comboot_call.o)
 .text.unlikely
                0x00000000000157b3        0x0 bin/blib.a(pxe_cmd.o)
 .text.unlikely
                0x00000000000157b3        0x0 bin/blib.a(x86_string.o)
 .text.startup  0x00000000000157b3       0xb2 bin/blib.a(main.o)
                0x00000000000157b3                main
 .text.unlikely
                0x0000000000015865        0x0 bin/blib.a(bios_nap.o)
 .text.unlikely
                0x0000000000015865        0x0 bin/blib.a(pxe_udp.o)
 .text.unlikely
                0x0000000000015865        0x0 bin/blib.a(pxe_undi.o)
 .text.unlikely
                0x0000000000015865        0x0 bin/blib.a(pxe_loader.o)
 .text.unlikely
                0x0000000000015865        0x0 bin/blib.a(pxe_preboot.o)
 .text.unlikely
                0x0000000000015865        0x0 bin/blib.a(pxe_tftp.o)
 .text.unlikely
                0x0000000000015865        0x0 bin/blib.a(pxe_file.o)
 .text.unlikely
                0x0000000000015865        0x0 bin/blib.a(pxeparent_dhcp.o)
 .text.unlikely
                0x0000000000015865        0x0 bin/blib.a(pxeparent.o)
 .text.unlikely
                0x0000000000015865        0x0 bin/blib.a(bios_smbios.o)
 *(.rodata)
 *fill*         0x0000000000015865        0x3 
 .rodata        0x0000000000015868       0x16 bin/blib.a(bios_console.o)
 *fill*         0x000000000001587e        0x2 
 .rodata        0x0000000000015880        0x7 bin/blib.a(elfboot.o)
 *fill*         0x0000000000015887        0x1 
 .rodata        0x0000000000015888        0x5 bin/blib.a(com32.o)
 *fill*         0x000000000001588d        0x3 
 .rodata        0x0000000000015890      0x488 bin/blib.a(pxe_call.o)
 .rodata        0x0000000000015d18       0x74 bin/blib.a(comboot_call.o)
 .rodata        0x0000000000015d8c        0x9 bin/blib.a(uri.o)
 *fill*         0x0000000000015d95        0x3 
 .rodata        0x0000000000015d98       0x13 bin/blib.a(iscsi.o)
 *fill*         0x0000000000015dab        0x1 
 .rodata        0x0000000000015dac       0x14 bin/blib.a(tftp.o)
 .rodata        0x0000000000015dc0        0x7 bin/blib.a(script.o)
 .rodata        0x0000000000015dc7     0xa6b6 bin/blib.a(embedded.o)
 *fill*         0x000000000002047d        0x3 
 .rodata        0x0000000000020480      0x140 bin/blib.a(md5.o)
 .rodata        0x00000000000205c0        0x7 bin/blib.a(shell.o)
 *fill*         0x00000000000205c7        0x1 
 .rodata        0x00000000000205c8        0xc bin/blib.a(pxe_preboot.o)
 *fill*         0x00000000000205d4        0xc 
 .rodata        0x00000000000205e0       0x40 bin/blib.a(base64.o)
 .rodata        0x0000000000020620        0x1 bin/blib.a(tls.o)
 *fill*         0x0000000000020621       0x1f 
 .rodata        0x0000000000020640       0x20 bin/blib.a(udp.o)
 .rodata        0x0000000000020660        0x1 bin/blib.a(dhcpopts.o)
 *fill*         0x0000000000020661        0x3 
 .rodata        0x0000000000020664        0x9 bin/blib.a(dhcp.o)
 *fill*         0x000000000002066d        0x3 
 .rodata        0x0000000000020670        0x9 bin/blib.a(x509.o)
 *fill*         0x0000000000020679        0x7 
 .rodata        0x0000000000020680      0x220 bin/blib.a(aes.o)
 *(.rodata.*)
 .rodata.str1.1
                0x00000000000208a0       0x1b bin/blib.a(bios_console.o)
                                         0x1c (size before relaxing)
 .rodata.str1.1
                0x00000000000208bb       0x10 bin/blib.a(comboot.o)
                                         0x11 (size before relaxing)
 .rodata.str1.1
                0x00000000000208cb       0x1d bin/blib.a(bzimage.o)
                                         0x22 (size before relaxing)
 .rodata.str1.1
                0x00000000000208e8       0x1d bin/blib.a(elfboot.o)
                                          0x4 (size before relaxing)
 .rodata.str1.1
                0x00000000000208e8       0x10 bin/blib.a(multiboot.o)
                                         0x11 (size before relaxing)
 .rodata.str1.1
                0x00000000000208f8        0x4 bin/blib.a(pxe_image.o)
 .rodata.str1.1
                0x00000000000208fc        0xa bin/blib.a(com32.o)
 .rodata.str1.1
                0x0000000000020906        0x5 bin/blib.a(undionly.o)
 .rodata.str1.1
                0x000000000002090b       0xbd bin/blib.a(iscsiboot.o)
 .rodata.str1.1
                0x00000000000209c8       0x4b bin/blib.a(aoeboot.o)
                                         0xb7 (size before relaxing)
 .rodata.str1.1
                0x0000000000020a13       0x44 bin/blib.a(keepsan.o)
 .rodata.str1.1
                0x0000000000020a57        0x8 bin/blib.a(comboot_call.o)
 .rodata.str1.1
                0x0000000000020a5f       0x21 bin/blib.a(pxe_cmd.o)
 .rodata.str1.1
                0x0000000000020a80       0xb3 bin/blib.a(settings.o)
                                         0xec (size before relaxing)
 .rodata.str1.1
                0x0000000000020b33       0x12 bin/blib.a(uri.o)
                                         0x1e (size before relaxing)
 .rodata.str1.1
                0x0000000000020b45       0x18 bin/blib.a(vsprintf.o)
 .rodata.str1.1
                0x0000000000020b5d        0x8 bin/blib.a(resolv.o)
 .rodata.str1.1
                0x0000000000020b65       0x80 bin/blib.a(main.o)
                                         0x86 (size before relaxing)
 .rodata.str1.1
                0x0000000000020be5       0x21 bin/blib.a(exec.o)
                                         0x32 (size before relaxing)
 .rodata.str1.1
                0x0000000000020c06       0x21 bin/blib.a(basename.o)
                                          0x4 (size before relaxing)
 .rodata.str1.1
                0x0000000000020c06        0x6 bin/blib.a(cpio.o)
 .rodata.str1.1
                0x0000000000020c0c        0x6 bin/blib.a(image.o)
 .rodata.str1.1
                0x0000000000020c12       0x2d bin/blib.a(uuid.o)
 .rodata.str1.1
                0x0000000000020c3f        0x4 bin/blib.a(aoe.o)
                                          0x9 (size before relaxing)
 .rodata.str1.1
                0x0000000000020c43       0x4d bin/blib.a(ipv4.o)
                                         0x55 (size before relaxing)
 .rodata.str1.1
                0x0000000000020c90        0xe bin/blib.a(netdevice.o)
 .rodata.str1.1
                0x0000000000020c9e        0x5 bin/blib.a(icmp.o)
 .rodata.str1.1
                0x0000000000020ca3       0x1d bin/blib.a(netdev_settings.o)
 .rodata.str1.1
                0x0000000000020cc0      0x264 bin/blib.a(iscsi.o)
                                        0x274 (size before relaxing)
 .rodata.str1.1
                0x0000000000020f24       0x4c bin/blib.a(ftp.o)
                                         0x55 (size before relaxing)
 .rodata.str1.1
                0x0000000000020f70       0x85 bin/blib.a(http.o)
                                         0x8b (size before relaxing)
 .rodata.str1.1
                0x0000000000020ff5        0xc bin/blib.a(https.o)
 .rodata.str1.1
                0x0000000000021001       0x26 bin/blib.a(dns.o)
                                         0x2d (size before relaxing)
 .rodata.str1.1
                0x0000000000021027       0x8d bin/blib.a(tftp.o)
                                         0x92 (size before relaxing)
 .rodata.str1.1
                0x00000000000210b4        0x7 bin/blib.a(script.o)
 .rodata.str1.1
                0x00000000000210bb        0x5 bin/blib.a(elf.o)
 .rodata.str1.1
                0x00000000000210c0       0x1f bin/blib.a(segment.o)
 .rodata.str1.1
                0x00000000000210df        0x4 bin/blib.a(md5.o)
 .rodata.str1.1
                0x00000000000210e3      0x141 bin/blib.a(strerror.o)
 .rodata.str1.1
                0x0000000000021224       0x7f bin/blib.a(shell.o)
                                         0x83 (size before relaxing)
 .rodata.str1.1
                0x00000000000212a3      0x288 bin/blib.a(image_cmd.o)
                                        0x2a5 (size before relaxing)
 .rodata.str1.1
                0x000000000002152b       0x2f bin/blib.a(route_cmd.o)
                                         0x36 (size before relaxing)
 .rodata.str1.1
                0x000000000002155a      0x105 bin/blib.a(dhcp_cmd.o)
                                        0x111 (size before relaxing)
 .rodata.str1.1
                0x000000000002165f       0x33 bin/blib.a(autoboot_cmd.o)
 .rodata.str1.1
                0x0000000000021692       0x9b bin/blib.a(ifmgmt_cmd.o)
                                         0xa2 (size before relaxing)
 .rodata.str1.1
                0x000000000002172d       0x53 bin/blib.a(sanboot_cmd.o)
                                         0x5a (size before relaxing)
 .rodata.str1.1
                0x0000000000021780       0x4d bin/blib.a(login_cmd.o)
 .rodata.str1.1
                0x00000000000217cd       0x72 bin/blib.a(config_cmd.o)
                                         0x73 (size before relaxing)
 .rodata.str1.1
                0x000000000002183f       0x9e bin/blib.a(nvo_cmd.o)
                                         0xa2 (size before relaxing)
 .rodata.str1.1
                0x00000000000218dd       0xa9 bin/blib.a(settings_ui.o)
                                         0xac (size before relaxing)
 .rodata.str1.1
                0x0000000000021986       0x14 bin/blib.a(login_ui.o)
 .rodata.str1.1
                0x000000000002199a        0x2 bin/blib.a(wininit.o)
 .rodata.str1.1
                0x000000000002199a       0x1e bin/blib.a(ansi_screen.o)
 .rodata.str1.1
                0x00000000000219b8        0x3 bin/blib.a(editbox.o)
 .rodata.str1.1
                0x00000000000219b8       0xe6 bin/blib.a(autoboot.o)
                                         0xf1 (size before relaxing)
 .rodata.str1.1
                0x0000000000021a9e       0xbf bin/blib.a(ifmgmt.o)
                                         0xc4 (size before relaxing)
 .rodata.str1.1
                0x0000000000021b5d       0x33 bin/blib.a(dhcpmgmt.o)
                                         0x34 (size before relaxing)
 .rodata.str1.1
                0x0000000000021b90       0x12 bin/blib.a(pxemenu.o)
                                         0x21 (size before relaxing)
 .rodata.str1.1
                0x0000000000021ba2       0x28 bin/blib.a(imgmgmt.o)
                                         0x2a (size before relaxing)
 .rodata.str1.1
                0x0000000000021bca       0x1f bin/blib.a(route.o)
                                         0x24 (size before relaxing)
 .rodata.str1.1
                0x0000000000021be9       0x17 bin/blib.a(gateA20.o)
 .rodata.str1.1
                0x0000000000021c00        0xa bin/blib.a(undinet.o)
 .rodata.str1.1
                0x0000000000021c0a        0xa bin/blib.a(pxe_undi.o)
 .rodata.str1.1
                0x0000000000021c14       0x1f bin/blib.a(pxe_tftp.o)
                                         0x27 (size before relaxing)
 .rodata.str1.1
                0x0000000000021c33        0x6 bin/blib.a(pxe_file.o)
 .rodata.str1.1
                0x0000000000021c39       0x9a bin/blib.a(getopt.o)
 .rodata.str1.1
                0x0000000000021cd3        0x4 bin/blib.a(monojob.o)
                                         0x10 (size before relaxing)
 .rodata.str1.1
                0x0000000000021cd7        0xa bin/blib.a(fakedhcp.o)
                                         0x11 (size before relaxing)
 .rodata.str1.1
                0x0000000000021ce1        0x8 bin/blib.a(tcp.o)
 .rodata.str1.1
                0x0000000000021ce9        0x6 bin/blib.a(arp.o)
                                          0xa (size before relaxing)
 .rodata.str1.1
                0x0000000000021cef       0x27 bin/blib.a(ethernet.o)
 .rodata.str1.1
                0x0000000000021d16       0x2c bin/blib.a(tls.o)
 .rodata.str1.1
                0x0000000000021d42        0xc bin/blib.a(rarp.o)
 .rodata.str1.1
                0x0000000000021d4e        0x5 bin/blib.a(dhcppkt.o)
 .rodata.str1.1
                0x0000000000021d4e        0x8 bin/blib.a(udp.o)
 .rodata.str1.1
                0x0000000000021d56       0x8a bin/blib.a(dhcp.o)
                                         0xa4 (size before relaxing)
 .rodata.str1.1
                0x0000000000021de0       0x60 bin/blib.a(smbios_settings.o)
                                         0x65 (size before relaxing)
 .rodata.str1.1
                0x0000000000021e40        0x5 bin/blib.a(axtls_sha1.o)
 .rodata.str1.1
                0x0000000000021e45        0xc bin/blib.a(axtls_aes.o)
 .rodata.str1.1
                0x0000000000021e51        0x5 bin/blib.a(crypto_null.o)
 .rodata.str1.1
                0x0000000000021e56        0xf bin/blib.a(readline.o)
                                         0x12 (size before relaxing)
 *(.data)
 .data          0x0000000000021e65        0x0 bin/blib.a(config.o)
 *fill*         0x0000000000021e65        0x3 
 .data          0x0000000000021e68        0x4 bin/blib.a(bios_console.o)
 .data          0x0000000000021e6c        0x0 bin/blib.a(comboot.o)
 .data          0x0000000000021e6c        0x0 bin/blib.a(bzimage.o)
 .data          0x0000000000021e6c        0x0 bin/blib.a(elfboot.o)
 .data          0x0000000000021e6c        0x0 bin/blib.a(multiboot.o)
 .data          0x0000000000021e6c        0x0 bin/blib.a(pxe_image.o)
 .data          0x0000000000021e6c        0x0 bin/blib.a(com32.o)
 .data          0x0000000000021e6c        0x0 bin/blib.a(undionly.o)
 .data          0x0000000000021e6c        0x0 bin/blib.a(undipreload.o)
 .data          0x0000000000021e6c        0x0 bin/blib.a(iscsiboot.o)
 .data          0x0000000000021e6c        0x0 bin/blib.a(ibft.o)
 .data          0x0000000000021e6c        0x0 bin/blib.a(aoeboot.o)
 .data          0x0000000000021e6c        0x8 bin/blib.a(int13.o)
 .data          0x0000000000021e74        0x0 bin/blib.a(keepsan.o)
 .data          0x0000000000021e74        0x0 bin/blib.a(pxe_call.o)
 .data          0x0000000000021e74       0x10 bin/blib.a(comboot_resolv.o)
 .data          0x0000000000021e84        0x0 bin/blib.a(com32_call.o)
 .data          0x0000000000021e84        0x0 bin/blib.a(comboot_call.o)
 .data          0x0000000000021e84        0x0 bin/blib.a(pxe_cmd.o)
 .data          0x0000000000021e84        0x0 bin/blib.a(x86_string.o)
 .data          0x0000000000021e84        0x0 bin/blib.a(setjmp.o)
 .data          0x0000000000021e84        0x0 bin/blib.a(virtaddr.o)
 .data          0x0000000000021e84       0x14 bin/blib.a(librm.o)
                0x0000000000021e84                rm_sp
                0x0000000000021e86                rm_ss
                0x0000000000021e8c                virt_offset
                0x0000000000021e90                text16
                0x0000000000021e94                data16
 .data          0x0000000000021e98        0x0 bin/blib.a(kkpxeprefix.o)
 .data          0x0000000000021e98        0x0 bin/blib.a(libprefix.o)
 .data          0x0000000000021e98        0x0 bin/blib.a(pxe_entry.o)
 .data          0x0000000000021e98        0x0 bin/blib.a(com32_wrapper.o)
 .data          0x0000000000021e98        0x0 bin/blib.a(settings.o)
 .data          0x0000000000021e98        0x0 bin/blib.a(interface.o)
 .data          0x0000000000021e98        0x0 bin/blib.a(uri.o)
 .data          0x0000000000021e98        0x0 bin/blib.a(asprintf.o)
 .data          0x0000000000021e98        0x0 bin/blib.a(process.o)
 .data          0x0000000000021e98        0x0 bin/blib.a(refcnt.o)
 .data          0x0000000000021e98        0x0 bin/blib.a(init.o)
 .data          0x0000000000021e98        0x0 bin/blib.a(string.o)
 .data          0x0000000000021e98        0x6 bin/blib.a(vsprintf.o)
 .data          0x0000000000021e9e        0x0 bin/blib.a(posix_io.o)
 .data          0x0000000000021e9e        0x0 bin/blib.a(console.o)
 .data          0x0000000000021e9e        0x0 bin/blib.a(open.o)
 .data          0x0000000000021e9e        0x0 bin/blib.a(acpi.o)
 .data          0x0000000000021e9e        0x0 bin/blib.a(resolv.o)
 .data          0x0000000000021e9e        0x0 bin/blib.a(misc.o)
 .data          0x0000000000021e9e        0x0 bin/blib.a(cwuri.o)
 .data          0x0000000000021e9e        0x0 bin/blib.a(main.o)
 .data          0x0000000000021e9e        0x0 bin/blib.a(malloc.o)
 .data          0x0000000000021e9e        0x0 bin/blib.a(ansiesc.o)
 .data          0x0000000000021e9e        0x0 bin/blib.a(device.o)
 .data          0x0000000000021e9e        0x0 bin/blib.a(exec.o)
 .data          0x0000000000021e9e        0x0 bin/blib.a(serial.o)
 .data          0x0000000000021e9e        0x0 bin/blib.a(basename.o)
 .data          0x0000000000021e9e        0x0 bin/blib.a(cpio.o)
 .data          0x0000000000021e9e        0x0 bin/blib.a(iobuf.o)
 .data          0x0000000000021e9e        0x0 bin/blib.a(image.o)
 .data          0x0000000000021e9e        0x0 bin/blib.a(timer.o)
 .data          0x0000000000021e9e        0x0 bin/blib.a(uuid.o)
 .data          0x0000000000021e9e        0x0 bin/blib.a(aoe.o)
 .data          0x0000000000021e9e        0x0 bin/blib.a(ipv4.o)
 .data          0x0000000000021e9e        0x0 bin/blib.a(netdevice.o)
 .data          0x0000000000021e9e        0x0 bin/blib.a(retry.o)
 .data          0x0000000000021e9e        0x0 bin/blib.a(icmp.o)
 .data          0x0000000000021e9e        0x0 bin/blib.a(netdev_settings.o)
 .data          0x0000000000021e9e        0x0 bin/blib.a(iscsi.o)
 .data          0x0000000000021e9e        0x0 bin/blib.a(ftp.o)
 .data          0x0000000000021e9e        0x0 bin/blib.a(http.o)
 .data          0x0000000000021e9e        0x0 bin/blib.a(https.o)
 *fill*         0x0000000000021e9e        0x2 
 .data          0x0000000000021ea0       0x20 bin/blib.a(dns.o)
 .data          0x0000000000021ec0       0x24 bin/blib.a(tftp.o)
 .data          0x0000000000021ee4        0x0 bin/blib.a(script.o)
 .data          0x0000000000021ee4        0x0 bin/blib.a(elf.o)
 .data          0x0000000000021ee4        0x0 bin/blib.a(segment.o)
 .data          0x0000000000021ee4       0x80 bin/blib.a(embedded.o)
 .data          0x0000000000021f64        0x0 bin/blib.a(ata.o)
 .data          0x0000000000021f64        0x0 bin/blib.a(scsi.o)
 .data          0x0000000000021f64        0x0 bin/blib.a(md5.o)
 .data          0x0000000000021f64        0x0 bin/blib.a(chap.o)
 .data          0x0000000000021f64        0x0 bin/blib.a(shell_banner.o)
 .data          0x0000000000021f64        0x0 bin/blib.a(strerror.o)
 .data          0x0000000000021f64        0x0 bin/blib.a(shell.o)
 .data          0x0000000000021f64        0x0 bin/blib.a(image_cmd.o)
 .data          0x0000000000021f64        0x0 bin/blib.a(route_cmd.o)
 .data          0x0000000000021f64        0x0 bin/blib.a(dhcp_cmd.o)
 .data          0x0000000000021f64        0x0 bin/blib.a(autoboot_cmd.o)
 .data          0x0000000000021f64        0x0 bin/blib.a(ifmgmt_cmd.o)
 .data          0x0000000000021f64        0x0 bin/blib.a(sanboot_cmd.o)
 .data          0x0000000000021f64        0x0 bin/blib.a(login_cmd.o)
 .data          0x0000000000021f64        0x0 bin/blib.a(config_cmd.o)
 .data          0x0000000000021f64        0x0 bin/blib.a(nvo_cmd.o)
 .data          0x0000000000021f64        0x0 bin/blib.a(settings_ui.o)
 .data          0x0000000000021f64        0x0 bin/blib.a(login_ui.o)
 *fill*         0x0000000000021f64       0x1c 
 .data          0x0000000000021f80       0x20 bin/blib.a(colour.o)
 .data          0x0000000000021fa0        0x0 bin/blib.a(print.o)
 .data          0x0000000000021fa0        0x0 bin/blib.a(mucurses.o)
 .data          0x0000000000021fa0        0x0 bin/blib.a(wininit.o)
 .data          0x0000000000021fa0        0x0 bin/blib.a(winattrs.o)
 .data          0x0000000000021fa0        0x4 bin/blib.a(ansi_screen.o)
                0x0000000000021fa0                _LINES
                0x0000000000021fa2                _COLS
 .data          0x0000000000021fa4        0x0 bin/blib.a(clear.o)
 .data          0x0000000000021fa4        0x0 bin/blib.a(editbox.o)
 .data          0x0000000000021fa4        0x0 bin/blib.a(autoboot.o)
 .data          0x0000000000021fa4        0x0 bin/blib.a(ifmgmt.o)
 .data          0x0000000000021fa4        0x0 bin/blib.a(dhcpmgmt.o)
 .data          0x0000000000021fa4        0x0 bin/blib.a(pxemenu.o)
 .data          0x0000000000021fa4        0x0 bin/blib.a(imgmgmt.o)
 .data          0x0000000000021fa4        0x0 bin/blib.a(route.o)
 .data          0x0000000000021fa4        0x0 bin/blib.a(relocate.o)
 .data          0x0000000000021fa4        0x0 bin/blib.a(timer2.o)
 .data          0x0000000000021fa4        0x0 bin/blib.a(librm_mgmt.o)
 .data          0x0000000000021fa4        0x4 bin/blib.a(gateA20.o)
 .data          0x0000000000021fa8        0x0 bin/blib.a(memmap.o)
 .data          0x0000000000021fa8        0x0 bin/blib.a(bootsector.o)
 .data          0x0000000000021fa8        0x0 bin/blib.a(undinet.o)
 .data          0x0000000000021fa8        0x0 bin/blib.a(abft.o)
 .data          0x0000000000021fa8        0x0 bin/blib.a(memtop_umalloc.o)
 .data          0x0000000000021fa8        0x0 bin/blib.a(biosint.o)
 .data          0x0000000000021fa8        0x0 bin/blib.a(bios_timer.o)
 .data          0x0000000000021fa8        0x0 bin/blib.a(bios_nap.o)
 .data          0x0000000000021fa8       0x48 bin/blib.a(pxe_udp.o)
 .data          0x0000000000021ff0        0x0 bin/blib.a(pxe_undi.o)
 .data          0x0000000000021ff0        0x0 bin/blib.a(pxe_loader.o)
 .data          0x0000000000021ff0        0x0 bin/blib.a(pxe_preboot.o)
 .data          0x0000000000021ff0       0x44 bin/blib.a(pxe_tftp.o)
 .data          0x0000000000022034        0x0 bin/blib.a(pxe_file.o)
 .data          0x0000000000022034        0x0 bin/blib.a(pxeparent_dhcp.o)
 .data          0x0000000000022034        0x0 bin/blib.a(pxeparent.o)
 .data          0x0000000000022034        0x0 bin/blib.a(stack16.o)
 .data          0x0000000000022034        0x0 bin/blib.a(stack.o)
 .data          0x0000000000022034        0x0 bin/blib.a(unnrv2b16.o)
 .data          0x0000000000022034        0x0 bin/blib.a(undiisr.o)
 .data          0x0000000000022034        0x0 bin/blib.a(ctype.o)
 .data          0x0000000000022034        0x0 bin/blib.a(getkey.o)
 .data          0x0000000000022034        0x0 bin/blib.a(getopt.o)
 .data          0x0000000000022034        0x0 bin/blib.a(bitmap.o)
 .data          0x0000000000022034        0x0 bin/blib.a(downloader.o)
 .data          0x0000000000022034        0x0 bin/blib.a(xfer.o)
 .data          0x0000000000022034        0x0 bin/blib.a(linebuf.o)
 .data          0x0000000000022034        0x0 bin/blib.a(base64.o)
 .data          0x0000000000022034        0x0 bin/blib.a(job.o)
 .data          0x0000000000022034        0x0 bin/blib.a(monojob.o)
 .data          0x0000000000022034        0x0 bin/blib.a(random.o)
 .data          0x0000000000022034        0x0 bin/blib.a(fakedhcp.o)
 .data          0x0000000000022034        0x8 bin/blib.a(tcp.o)
                0x0000000000022038                tcp_sock_stream
 .data          0x000000000002203c        0x0 bin/blib.a(arp.o)
 .data          0x000000000002203c        0x6 bin/blib.a(ethernet.o)
 .data          0x0000000000022042        0x0 bin/blib.a(tcpip.o)
 .data          0x0000000000022042        0x0 bin/blib.a(tls.o)
 .data          0x0000000000022042        0x0 bin/blib.a(rarp.o)
 .data          0x0000000000022042        0x0 bin/blib.a(nullnet.o)
 .data          0x0000000000022042        0x0 bin/blib.a(dhcppkt.o)
 .data          0x0000000000022042        0x0 bin/blib.a(cachedhcp.o)
 *fill*         0x0000000000022042        0x2 
 .data          0x0000000000022044        0x8 bin/blib.a(udp.o)
                0x0000000000022048                udp_sock_dgram
 .data          0x000000000002204c        0x0 bin/blib.a(dhcpopts.o)
 *fill*         0x000000000002204c       0x14 
 .data          0x0000000000022060       0x88 bin/blib.a(dhcp.o)
 .data          0x00000000000220e8        0x0 bin/blib.a(smbios_settings.o)
 .data          0x00000000000220e8        0x0 bin/blib.a(axtls_sha1.o)
 .data          0x00000000000220e8        0x0 bin/blib.a(axtls_aes.o)
 .data          0x00000000000220e8        0x0 bin/blib.a(hmac.o)
 .data          0x00000000000220e8        0x0 bin/blib.a(crypto_null.o)
 .data          0x00000000000220e8        0x0 bin/blib.a(x509.o)
 .data          0x00000000000220e8        0x0 bin/blib.a(aes.o)
 .data          0x00000000000220e8        0x0 bin/blib.a(sha1.o)
 .data          0x00000000000220e8        0x0 bin/blib.a(rsa.o)
 .data          0x00000000000220e8        0x0 bin/blib.a(bigint.o)
 .data          0x00000000000220e8        0x0 bin/blib.a(editstring.o)
 .data          0x00000000000220e8        0x0 bin/blib.a(readline.o)
 .data          0x00000000000220e8        0x0 bin/blib.a(pic8259.o)
 .data          0x00000000000220e8        0x0 bin/blib.a(basemem_packet.o)
 .data          0x00000000000220e8        0x0 bin/blib.a(pnpbios.o)
 .data          0x00000000000220e8        0x0 bin/blib.a(hidemem.o)
 .data          0x00000000000220e8        0x0 bin/blib.a(e820mangler.o)
 .data          0x00000000000220e8        0x0 bin/blib.a(__udivdi3.o)
 .data          0x00000000000220e8        0x0 bin/blib.a(__umoddi3.o)
 .data          0x00000000000220e8        0x0 bin/blib.a(__udivmoddi4.o)
 .data          0x00000000000220e8        0x0 bin/blib.a(filter.o)
 .data          0x00000000000220e8        0x0 bin/blib.a(smbios.o)
 .data          0x00000000000220e8        0x0 bin/blib.a(cbc.o)
 .data          0x00000000000220e8        0x0 bin/blib.a(asn1.o)
 .data          0x00000000000220e8        0x0 bin/blib.a(bios_smbios.o)
 *(.data.*)
 *fill*         0x00000000000220e8       0x18 
 .data.rel.ro.local
                0x0000000000022100       0x48 bin/blib.a(bios_console.o)
 *fill*         0x0000000000022148       0x18 
 .data.rel.local
                0x0000000000022160       0x40 bin/blib.a(bios_console.o)
 .data.rel.local
                0x00000000000221a0        0x8 bin/blib.a(undionly.o)
 *fill*         0x00000000000221a8       0x18 
 .data.rel.local
                0x00000000000221c0       0x38 bin/blib.a(settings.o)
                0x00000000000221c0                generic_settings_root
                0x00000000000221ec                generic_settings_operations
 .data.rel.local
                0x00000000000221f8        0x8 bin/blib.a(process.o)
 .data.rel.local
                0x0000000000022200       0x20 bin/blib.a(posix_io.o)
 .data.rel.local
                0x0000000000022220       0x30 bin/blib.a(resolv.o)
                0x0000000000022240                null_resolv
                0x000000000002224c                null_resolv_ops
 .data.rel.local
                0x0000000000022250        0x8 bin/blib.a(malloc.o)
 .data.rel.local
                0x0000000000022258        0x8 bin/blib.a(device.o)
 .data.rel.local
                0x0000000000022260        0x8 bin/blib.a(image.o)
                0x0000000000022260                images
 .data.rel.local
                0x0000000000022268        0x8 bin/blib.a(aoe.o)
 .data.rel.local
                0x0000000000022270       0x10 bin/blib.a(ipv4.o)
                0x0000000000022278                ipv4_miniroutes
 .data.rel.local
                0x0000000000022280       0x10 bin/blib.a(netdevice.o)
                0x0000000000022288                net_devices
 .data.rel.local
                0x0000000000022290        0x8 bin/blib.a(retry.o)
 .data.rel.local
                0x0000000000022298        0xc bin/blib.a(netdev_settings.o)
                0x0000000000022298                netdev_settings_operations
 *fill*         0x00000000000222a4       0x1c 
 .data.rel.local
                0x00000000000222c0       0xa0 bin/blib.a(iscsi.o)
 .data.rel.local
                0x0000000000022360       0x48 bin/blib.a(ftp.o)
 *fill*         0x00000000000223a8       0x18 
 .data.rel.ro.local
                0x00000000000223c0       0x48 bin/blib.a(ftp.o)
 .data.rel.local
                0x0000000000022408       0x48 bin/blib.a(http.o)
 .data.rel.ro.local
                0x0000000000022450        0x8 bin/blib.a(http.o)
 .data.rel.local
                0x0000000000022458       0x18 bin/blib.a(dns.o)
 *fill*         0x0000000000022470       0x10 
 .data.rel.local
                0x0000000000022480       0x80 bin/blib.a(tftp.o)
 .data.rel.local
                0x0000000000022500        0x8 bin/blib.a(ata.o)
 .data.rel.local
                0x0000000000022508       0x10 bin/blib.a(scsi.o)
 .data.rel.local
                0x0000000000022518       0x1c bin/blib.a(md5.o)
                0x0000000000022518                md5_algorithm
 *fill*         0x0000000000022534        0xc 
 .data.rel.ro.local
                0x0000000000022540       0x20 bin/blib.a(md5.o)
 .data.rel.ro.local
                0x0000000000022560        0xc bin/blib.a(image_cmd.o)
 *fill*         0x000000000002256c       0x14 
 .data.rel.local
                0x0000000000022580       0xe0 bin/blib.a(image_cmd.o)
 .data.rel.local
                0x0000000000022660       0x20 bin/blib.a(route_cmd.o)
 .data.rel.local
                0x0000000000022680       0x40 bin/blib.a(dhcp_cmd.o)
 .data.rel.local
                0x00000000000226c0       0x20 bin/blib.a(ifmgmt_cmd.o)
 .data.rel.local
                0x00000000000226e0       0x20 bin/blib.a(sanboot_cmd.o)
 .data.rel.local
                0x0000000000022700       0x24 bin/blib.a(mucurses.o)
                0x0000000000022700                _stdscr
 *fill*         0x0000000000022724       0x1c 
 .data.rel.local
                0x0000000000022740       0x24 bin/blib.a(ansi_screen.o)
                0x0000000000022740                _ansi_screen
 .data.rel.local
                0x0000000000022764       0x14 bin/blib.a(undinet.o)
 .data.rel.local
                0x0000000000022778       0x24 bin/blib.a(downloader.o)
 .data.rel.local
                0x000000000002279c       0x24 bin/blib.a(xfer.o)
                0x000000000002279c                null_xfer
                0x00000000000227a8                null_xfer_ops
 .data.rel.local
                0x00000000000227c0       0x18 bin/blib.a(job.o)
                0x00000000000227c0                null_job
                0x00000000000227cc                null_job_ops
 .data.rel.local
                0x00000000000227d8       0x18 bin/blib.a(monojob.o)
                0x00000000000227d8                monojob
 .data.rel.local
                0x00000000000227f0       0x20 bin/blib.a(tcp.o)
 .data.rel.local
                0x0000000000022810       0x30 bin/blib.a(tls.o)
 .data.rel.local
                0x0000000000022840       0x14 bin/blib.a(nullnet.o)
                0x0000000000022840                null_netdev_operations
 *fill*         0x0000000000022854        0xc 
 .data.rel.local
                0x0000000000022860       0x50 bin/blib.a(dhcppkt.o)
 .data.rel.local
                0x00000000000228b0       0x20 bin/blib.a(udp.o)
 .data.rel.local
                0x00000000000228d0       0x74 bin/blib.a(dhcp.o)
 *fill*         0x0000000000022944       0x1c 
 .data.rel.local
                0x0000000000022960       0x30 bin/blib.a(smbios_settings.o)
 .data.rel.local
                0x0000000000022990       0x1c bin/blib.a(axtls_sha1.o)
                0x0000000000022990                sha1_algorithm
 .data.rel.local
                0x00000000000229ac       0x38 bin/blib.a(axtls_aes.o)
                0x00000000000229ac                aes_cbc_algorithm
                0x00000000000229c8                aes_algorithm
 .data.rel.local
                0x00000000000229e4       0x40 bin/blib.a(crypto_null.o)
                0x00000000000229e4                pubkey_null
                0x00000000000229ec                cipher_null
                0x0000000000022a08                digest_null
 *(SORT(.tbl.*))
 .tbl.arp_net_protocols.00
                0x0000000000022a24        0x0 bin/blib.a(arp.o)
 .tbl.arp_net_protocols.01
                0x0000000000022a24        0x8 bin/blib.a(ipv4.o)
                0x0000000000022a24                ipv4_arp_protocol
 .tbl.arp_net_protocols.99
                0x0000000000022a2c        0x0 bin/blib.a(arp.o)
 .tbl.commands.00
                0x0000000000022a2c        0x0 bin/blib.a(exec.o)
 .tbl.commands.00
                0x0000000000022a2c        0x0 bin/blib.a(shell.o)
 .tbl.commands.01
                0x0000000000022a2c       0x10 bin/blib.a(pxe_cmd.o)
                0x0000000000022a2c                pxe_commands
 .tbl.commands.01
                0x0000000000022a3c        0x8 bin/blib.a(exec.o)
                0x0000000000022a3c                echo_command
 .tbl.commands.01
                0x0000000000022a44       0x10 bin/blib.a(shell.o)
                0x0000000000022a44                help_command
                0x0000000000022a4c                exit_command
 .tbl.commands.01
                0x0000000000022a54       0x58 bin/blib.a(image_cmd.o)
                0x0000000000022a54                image_commands
 .tbl.commands.01
                0x0000000000022aac        0x8 bin/blib.a(route_cmd.o)
                0x0000000000022aac                route_commands
 .tbl.commands.01
                0x0000000000022ab4       0x10 bin/blib.a(dhcp_cmd.o)
                0x0000000000022ab4                dhcp_commands
 .tbl.commands.01
                0x0000000000022ac4        0x8 bin/blib.a(autoboot_cmd.o)
                0x0000000000022ac4                autoboot_command
 .tbl.commands.01
                0x0000000000022acc       0x18 bin/blib.a(ifmgmt_cmd.o)
                0x0000000000022acc                ifmgmt_commands
 .tbl.commands.01
                0x0000000000022ae4        0x8 bin/blib.a(sanboot_cmd.o)
                0x0000000000022ae4                sanboot_command
 .tbl.commands.01
                0x0000000000022aec        0x8 bin/blib.a(login_cmd.o)
                0x0000000000022aec                login_command
 .tbl.commands.01
                0x0000000000022af4        0x8 bin/blib.a(config_cmd.o)
                0x0000000000022af4                config_command
 .tbl.commands.01
                0x0000000000022afc       0x18 bin/blib.a(nvo_cmd.o)
                0x0000000000022afc                nvo_commands
 .tbl.commands.99
                0x0000000000022b14        0x0 bin/blib.a(exec.o)
 .tbl.commands.99
                0x0000000000022b14        0x0 bin/blib.a(shell.o)
 .tbl.consoles.00
                0x0000000000022b14        0x0 bin/blib.a(console.o)
 .tbl.consoles.01
                0x0000000000022b14       0x14 bin/blib.a(bios_console.o)
                0x0000000000022b14                bios_console
 .tbl.consoles.99
                0x0000000000022b28        0x0 bin/blib.a(console.o)
 .tbl.dhcp_features.00
                0x0000000000022b28        0x0 bin/blib.a(dhcp.o)
 .tbl.dhcp_features.01
                0x0000000000022b28        0x3 bin/blib.a(comboot.o)
                0x0000000000022b28                __dhcp_feature_comboot
 .tbl.dhcp_features.01
                0x0000000000022b2b        0x3 bin/blib.a(bzimage.o)
                0x0000000000022b2b                __dhcp_feature_bzimage
 .tbl.dhcp_features.01
                0x0000000000022b2e        0x3 bin/blib.a(elfboot.o)
                0x0000000000022b2e                __dhcp_feature_elfboot
 .tbl.dhcp_features.01
                0x0000000000022b31        0x3 bin/blib.a(multiboot.o)
                0x0000000000022b31                __dhcp_feature_multiboot
 .tbl.dhcp_features.01
                0x0000000000022b34        0x3 bin/blib.a(pxe_image.o)
                0x0000000000022b34                __dhcp_feature_pxe_image
 .tbl.dhcp_features.01
                0x0000000000022b37        0x3 bin/blib.a(aoe.o)
                0x0000000000022b37                __dhcp_feature_aoe
 .tbl.dhcp_features.01
                0x0000000000022b3a        0x3 bin/blib.a(iscsi.o)
                0x0000000000022b3a                __dhcp_feature_iscsi
 .tbl.dhcp_features.01
                0x0000000000022b3d        0x3 bin/blib.a(ftp.o)
                0x0000000000022b3d                __dhcp_feature_ftp
 .tbl.dhcp_features.01
                0x0000000000022b40        0x3 bin/blib.a(http.o)
                0x0000000000022b40                __dhcp_feature_http
 .tbl.dhcp_features.01
                0x0000000000022b43        0x3 bin/blib.a(https.o)
                0x0000000000022b43                __dhcp_feature_https
 .tbl.dhcp_features.01
                0x0000000000022b46        0x3 bin/blib.a(dns.o)
                0x0000000000022b46                __dhcp_feature_dns
 .tbl.dhcp_features.01
                0x0000000000022b49        0x3 bin/blib.a(tftp.o)
                0x0000000000022b49                __dhcp_feature_tftp
 .tbl.dhcp_features.01
                0x0000000000022b4c        0x3 bin/blib.a(pxe_file.o)
                0x0000000000022b4c                __dhcp_feature_pxe_file
 .tbl.dhcp_features.01
                0x0000000000022b4f        0x5 bin/blib.a(dhcp.o)
                0x0000000000022b4f                __dhcp_feature_dhcp
 .tbl.dhcp_features.99
                0x0000000000022b54        0x0 bin/blib.a(dhcp.o)
 .tbl.errortab.00
                0x0000000000022b54        0x0 bin/blib.a(strerror.o)
 .tbl.errortab.01
                0x0000000000022b54        0x8 bin/blib.a(netdevice.o)
                0x0000000000022b54                netdev_errors
 .tbl.errortab.01
                0x0000000000022b5c        0x8 bin/blib.a(segment.o)
                0x0000000000022b5c                segment_errors
 .tbl.errortab.01
                0x0000000000022b64       0x88 bin/blib.a(strerror.o)
                0x0000000000022b64                common_errors
 .tbl.errortab.99
                0x0000000000022bec        0x0 bin/blib.a(strerror.o)
 .tbl.features.00
                0x0000000000022bec        0x0 bin/blib.a(main.o)
 .tbl.features.01
                0x0000000000022bec        0x4 bin/blib.a(aoe.o)
                0x0000000000022bec                __feature_aoe
 .tbl.features.01
                0x0000000000022bf0        0x4 bin/blib.a(iscsi.o)
                0x0000000000022bf0                __feature_iscsi
 .tbl.features.01
                0x0000000000022bf4        0x4 bin/blib.a(ftp.o)
                0x0000000000022bf4                __feature_ftp
 .tbl.features.01
                0x0000000000022bf8        0x4 bin/blib.a(http.o)
                0x0000000000022bf8                __feature_http
 .tbl.features.01
                0x0000000000022bfc        0x4 bin/blib.a(https.o)
                0x0000000000022bfc                __feature_https
 .tbl.features.01
                0x0000000000022c00        0x4 bin/blib.a(dns.o)
                0x0000000000022c00                __feature_dns
 .tbl.features.01
                0x0000000000022c04        0x4 bin/blib.a(tftp.o)
                0x0000000000022c04                __feature_tftp
 .tbl.features.02
                0x0000000000022c08        0x4 bin/blib.a(comboot.o)
                0x0000000000022c08                __feature_comboot
 .tbl.features.02
                0x0000000000022c0c        0x4 bin/blib.a(bzimage.o)
                0x0000000000022c0c                __feature_bzimage
 .tbl.features.02
                0x0000000000022c10        0x4 bin/blib.a(elfboot.o)
                0x0000000000022c10                __feature_elfboot
 .tbl.features.02
                0x0000000000022c14        0x4 bin/blib.a(multiboot.o)
                0x0000000000022c14                __feature_multiboot
 .tbl.features.02
                0x0000000000022c18        0x4 bin/blib.a(pxe_image.o)
                0x0000000000022c18                __feature_pxe_image
 .tbl.features.03
                0x0000000000022c1c        0x4 bin/blib.a(pxe_file.o)
                0x0000000000022c1c                __feature_pxe_file
 .tbl.features.99
                0x0000000000022c20        0x0 bin/blib.a(main.o)
 .tbl.image_types.00
                0x0000000000022c20        0x0 bin/blib.a(image.o)
 .tbl.image_types.01
                0x0000000000022c20        0xc bin/blib.a(multiboot.o)
                0x0000000000022c20                multiboot_image_type
 .tbl.image_types.02
                0x0000000000022c2c        0xc bin/blib.a(comboot.o)
                0x0000000000022c2c                comboot_image_type
 .tbl.image_types.02
                0x0000000000022c38        0xc bin/blib.a(bzimage.o)
                0x0000000000022c38                bzimage_image_type
 .tbl.image_types.02
                0x0000000000022c44        0xc bin/blib.a(elfboot.o)
                0x0000000000022c44                elfboot_image_type
 .tbl.image_types.02
                0x0000000000022c50        0xc bin/blib.a(com32.o)
                0x0000000000022c50                com32_image_type
 .tbl.image_types.02
                0x0000000000022c5c        0xc bin/blib.a(script.o)
                0x0000000000022c5c                script_image_type
 .tbl.image_types.03
                0x0000000000022c68        0xc bin/blib.a(pxe_image.o)
                0x0000000000022c68                pxe_image_type
 .tbl.image_types.99
                0x0000000000022c74        0x0 bin/blib.a(image.o)
 .tbl.init_fns.00
                0x0000000000022c74        0x0 bin/blib.a(init.o)
 .tbl.init_fns.01
                0x0000000000022c74        0x4 bin/blib.a(malloc.o)
                0x0000000000022c74                heap_init_fn
 .tbl.init_fns.02
                0x0000000000022c78        0x4 bin/blib.a(serial.o)
                0x0000000000022c78                serial_init_fn
 .tbl.init_fns.04
                0x0000000000022c7c        0x4 bin/blib.a(pxe_call.o)
                0x0000000000022c7c                pxe_init_fn
 .tbl.init_fns.04
                0x0000000000022c80        0x4 bin/blib.a(process.o)
                0x0000000000022c80                process_init_fn
 .tbl.init_fns.04
                0x0000000000022c84        0x4 bin/blib.a(embedded.o)
                0x0000000000022c84                embedded_init_fn
 .tbl.init_fns.04
                0x0000000000022c88        0x4 bin/blib.a(smbios_settings.o)
                0x0000000000022c88                smbios_init_fn
 .tbl.init_fns.99
                0x0000000000022c8c        0x0 bin/blib.a(init.o)
 .tbl.ll_protocols.01
                0x0000000000022c8c       0x24 bin/blib.a(ethernet.o)
                0x0000000000022c8c                ethernet_protocol
 .tbl.net_protocols.00
                0x0000000000022cb0        0x0 bin/blib.a(netdevice.o)
 .tbl.net_protocols.01
                0x0000000000022cb0       0x10 bin/blib.a(aoe.o)
                0x0000000000022cb0                aoe_protocol
 .tbl.net_protocols.01
                0x0000000000022cc0       0x10 bin/blib.a(ipv4.o)
                0x0000000000022cc0                ipv4_protocol
 .tbl.net_protocols.01
                0x0000000000022cd0       0x10 bin/blib.a(arp.o)
                0x0000000000022cd0                arp_protocol
 .tbl.net_protocols.01
                0x0000000000022ce0       0x10 bin/blib.a(rarp.o)
                0x0000000000022ce0                rarp_protocol
 .tbl.net_protocols.99
                0x0000000000022cf0        0x0 bin/blib.a(netdevice.o)
 .tbl.processes.00
                0x0000000000022cf0        0x0 bin/blib.a(process.o)
 .tbl.processes.01
                0x0000000000022cf0       0x10 bin/blib.a(netdevice.o)
                0x0000000000022cf0                net_process
 .tbl.processes.01
                0x0000000000022d00       0x10 bin/blib.a(retry.o)
                0x0000000000022d00                retry_process
 .tbl.processes.99
                0x0000000000022d10        0x0 bin/blib.a(process.o)
 .tbl.resolvers.00
                0x0000000000022d10        0x0 bin/blib.a(resolv.o)
 .tbl.resolvers.01
                0x0000000000022d10        0x8 bin/blib.a(resolv.o)
                0x0000000000022d10                numeric_resolver
 .tbl.resolvers.02
                0x0000000000022d18        0x8 bin/blib.a(dns.o)
                0x0000000000022d18                dns_resolver
 .tbl.resolvers.99
                0x0000000000022d20        0x0 bin/blib.a(resolv.o)
 .tbl.root_devices.00
                0x0000000000022d20        0x0 bin/blib.a(device.o)
 .tbl.root_devices.01
                0x0000000000022d20       0x44 bin/blib.a(undionly.o)
                0x0000000000022d20                undi_root_device
 .tbl.root_devices.99
                0x0000000000022d64        0x0 bin/blib.a(device.o)
 .tbl.sanboot_protocols.00
                0x0000000000022d64        0x0 bin/blib.a(autoboot.o)
 .tbl.sanboot_protocols.01
                0x0000000000022d64        0x8 bin/blib.a(iscsiboot.o)
                0x0000000000022d64                iscsi_sanboot_protocol
 .tbl.sanboot_protocols.01
                0x0000000000022d6c        0x8 bin/blib.a(aoeboot.o)
                0x0000000000022d6c                aoe_sanboot_protocol
 .tbl.sanboot_protocols.99
                0x0000000000022d74        0x0 bin/blib.a(autoboot.o)
 .tbl.setting_types.00
                0x0000000000022d74        0x0 bin/blib.a(settings.o)
 .tbl.setting_types.01
                0x0000000000022d74       0x84 bin/blib.a(settings.o)
                0x0000000000022d74                setting_type_uristring
                0x0000000000022d80                setting_type_uuid
                0x0000000000022d8c                setting_type_hex
                0x0000000000022d98                setting_type_uint32
                0x0000000000022da4                setting_type_uint16
                0x0000000000022db0                setting_type_uint8
                0x0000000000022dbc                setting_type_int32
                0x0000000000022dc8                setting_type_int16
                0x0000000000022dd4                setting_type_int8
                0x0000000000022de0                setting_type_ipv4
                0x0000000000022dec                setting_type_string
 .tbl.setting_types.99
                0x0000000000022df8        0x0 bin/blib.a(settings.o)
 .tbl.settings.00
                0x0000000000022df8        0x0 bin/blib.a(settings.o)
 .tbl.settings.00
                0x0000000000022df8        0x0 bin/blib.a(settings_ui.o)
 .tbl.settings.01
                0x0000000000022df8       0x10 bin/blib.a(keepsan.o)
                0x0000000000022df8                keep_san_setting
 .tbl.settings.01
                0x0000000000022e08       0x60 bin/blib.a(settings.o)
                0x0000000000022e08                priority_setting
                0x0000000000022e18                password_setting
                0x0000000000022e28                username_setting
                0x0000000000022e38                root_path_setting
                0x0000000000022e48                filename_setting
                0x0000000000022e58                hostname_setting
 .tbl.settings.01
                0x0000000000022e68       0x30 bin/blib.a(ipv4.o)
                0x0000000000022e68                gateway_setting
                0x0000000000022e78                netmask_setting
                0x0000000000022e88                ip_setting
 .tbl.settings.01
                0x0000000000022e98       0x20 bin/blib.a(netdev_settings.o)
                0x0000000000022e98                busid_setting
                0x0000000000022ea8                mac_setting
 .tbl.settings.01
                0x0000000000022eb8       0x30 bin/blib.a(iscsi.o)
                0x0000000000022eb8                reverse_password_setting
                0x0000000000022ec8                reverse_username_setting
                0x0000000000022ed8                initiator_iqn_setting
 .tbl.settings.01
                0x0000000000022ee8       0x20 bin/blib.a(dns.o)
                0x0000000000022ee8                domain_setting
                0x0000000000022ef8                dns_setting
 .tbl.settings.01
                0x0000000000022f08       0x10 bin/blib.a(tftp.o)
                0x0000000000022f08                next_server_setting
 .tbl.settings.01
                0x0000000000022f18       0x30 bin/blib.a(dhcp.o)
                0x0000000000022f18                use_cached_setting
                0x0000000000022f28                dhcp_server_setting
                0x0000000000022f38                user_class_setting
 .tbl.settings.01
                0x0000000000022f48       0x50 bin/blib.a(smbios_settings.o)
                0x0000000000022f48                smbios_named_settings
                0x0000000000022f88                uuid_setting
 .tbl.settings.99
                0x0000000000022f98        0x0 bin/blib.a(settings.o)
 .tbl.settings.99
                0x0000000000022f98        0x0 bin/blib.a(settings_ui.o)
 .tbl.settings_applicators.00
                0x0000000000022f98        0x0 bin/blib.a(settings.o)
 .tbl.settings_applicators.01
                0x0000000000022f98        0x4 bin/blib.a(ipv4.o)
                0x0000000000022f98                ipv4_settings_applicator
 .tbl.settings_applicators.01
                0x0000000000022f9c        0x4 bin/blib.a(iscsi.o)
                0x0000000000022f9c                iscsi_settings_applicator
 .tbl.settings_applicators.01
                0x0000000000022fa0        0x4 bin/blib.a(dns.o)
                0x0000000000022fa0                dns_applicator
 .tbl.settings_applicators.01
                0x0000000000022fa4        0x4 bin/blib.a(tftp.o)
                0x0000000000022fa4                tftp_settings_applicator
 .tbl.settings_applicators.99
                0x0000000000022fa8        0x0 bin/blib.a(settings.o)
 .tbl.socket_openers.00
                0x0000000000022fa8        0x0 bin/blib.a(open.o)
 .tbl.socket_openers.01
                0x0000000000022fa8        0xc bin/blib.a(tcp.o)
                0x0000000000022fa8                tcp_socket_opener
 .tbl.socket_openers.01
                0x0000000000022fb4        0xc bin/blib.a(udp.o)
                0x0000000000022fb4                udp_socket_opener
 .tbl.socket_openers.99
                0x0000000000022fc0        0x0 bin/blib.a(open.o)
 .tbl.startup_fns.00
                0x0000000000022fc0        0x0 bin/blib.a(init.o)
 .tbl.startup_fns.01
                0x0000000000022fc0        0x8 bin/blib.a(serial.o)
                0x0000000000022fc0                serial_startup_fn
 .tbl.startup_fns.01
                0x0000000000022fc8        0x8 bin/blib.a(hidemem.o)
                0x0000000000022fc8                hide_etherboot_startup_fn
 .tbl.startup_fns.02
                0x0000000000022fd0        0x8 bin/blib.a(device.o)
                0x0000000000022fd0                startup_devices
 .tbl.startup_fns.03
                0x0000000000022fd8        0x8 bin/blib.a(undionly.o)
                0x0000000000022fd8                startup_undionly
 .tbl.startup_fns.99
                0x0000000000022fe0        0x0 bin/blib.a(init.o)
 .tbl.tcpip_net_protocols.00
                0x0000000000022fe0        0x0 bin/blib.a(tcpip.o)
 .tbl.tcpip_net_protocols.01
                0x0000000000022fe0        0xc bin/blib.a(ipv4.o)
                0x0000000000022fe0                ipv4_tcpip_protocol
 .tbl.tcpip_net_protocols.99
                0x0000000000022fec        0x0 bin/blib.a(tcpip.o)
 .tbl.tcpip_protocols.00
                0x0000000000022fec        0x0 bin/blib.a(tcpip.o)
 .tbl.tcpip_protocols.01
                0x0000000000022fec        0xc bin/blib.a(icmp.o)
                0x0000000000022fec                icmp_protocol
 .tbl.tcpip_protocols.01
                0x0000000000022ff8        0xc bin/blib.a(tcp.o)
                0x0000000000022ff8                tcp_protocol
 .tbl.tcpip_protocols.01
                0x0000000000023004        0xc bin/blib.a(udp.o)
                0x0000000000023004                udp_protocol
 .tbl.tcpip_protocols.99
                0x0000000000023010        0x0 bin/blib.a(tcpip.o)
 .tbl.uri_openers.00
                0x0000000000023010        0x0 bin/blib.a(open.o)
 .tbl.uri_openers.01
                0x0000000000023010        0x8 bin/blib.a(ftp.o)
                0x0000000000023010                ftp_uri_opener
 .tbl.uri_openers.01
                0x0000000000023018        0x8 bin/blib.a(http.o)
                0x0000000000023018                http_uri_opener
 .tbl.uri_openers.01
                0x0000000000023020        0x8 bin/blib.a(https.o)
                0x0000000000023020                https_uri_opener
 .tbl.uri_openers.01
                0x0000000000023028       0x20 bin/blib.a(tftp.o)
                0x0000000000023028                mtftp_uri_opener
                0x0000000000023030                tftm_uri_opener
                0x0000000000023038                tftpsize_uri_opener
                0x0000000000023040                tftp_uri_opener
 .tbl.uri_openers.01
                0x0000000000023048        0x8 bin/blib.a(tcp.o)
                0x0000000000023048                tcp_uri_opener
 .tbl.uri_openers.01
                0x0000000000023050        0x8 bin/blib.a(udp.o)
                0x0000000000023050                udp_uri_opener
 .tbl.uri_openers.99
                0x0000000000023058        0x0 bin/blib.a(open.o)
                0x0000000000023058                _mtextdata = .

.plt.got        0x0000000000023058        0x0 load address 0x0000000000024548
 .plt.got       0x0000000000023058        0x0 bin/blib.a(config.o)

.bss.textdata   0x0000000000023060    0x81260 load address 0x0000000000024590
 *(.bss)
 .bss           0x0000000000023060        0x0 bin/blib.a(config.o)
 .bss           0x0000000000023060        0x0 bin/blib.a(bios_console.o)
 .bss           0x0000000000023060        0x0 bin/blib.a(comboot.o)
 .bss           0x0000000000023060        0x0 bin/blib.a(bzimage.o)
 .bss           0x0000000000023060        0x0 bin/blib.a(elfboot.o)
 .bss           0x0000000000023060        0x4 bin/blib.a(multiboot.o)
 .bss           0x0000000000023064        0x0 bin/blib.a(pxe_image.o)
 .bss           0x0000000000023064        0x0 bin/blib.a(com32.o)
 .bss           0x0000000000023064        0x0 bin/blib.a(undionly.o)
 .bss           0x0000000000023064        0x0 bin/blib.a(undipreload.o)
 .bss           0x0000000000023064        0x0 bin/blib.a(iscsiboot.o)
 .bss           0x0000000000023064        0x0 bin/blib.a(ibft.o)
 .bss           0x0000000000023064        0x0 bin/blib.a(aoeboot.o)
 .bss           0x0000000000023064        0x1 bin/blib.a(int13.o)
 .bss           0x0000000000023065        0x0 bin/blib.a(keepsan.o)
 *fill*         0x0000000000023065        0x3 
 .bss           0x0000000000023068        0x4 bin/blib.a(pxe_call.o)
 .bss           0x000000000002306c        0x8 bin/blib.a(comboot_resolv.o)
 .bss           0x0000000000023074        0x0 bin/blib.a(com32_call.o)
 .bss           0x0000000000023074        0x2 bin/blib.a(comboot_call.o)
 .bss           0x0000000000023076        0x0 bin/blib.a(pxe_cmd.o)
 .bss           0x0000000000023076        0x0 bin/blib.a(x86_string.o)
 .bss           0x0000000000023076        0x0 bin/blib.a(setjmp.o)
 .bss           0x0000000000023076        0x0 bin/blib.a(virtaddr.o)
 .bss           0x0000000000023076        0x0 bin/blib.a(librm.o)
 .bss           0x0000000000023076        0x0 bin/blib.a(kkpxeprefix.o)
 .bss           0x0000000000023076        0x0 bin/blib.a(libprefix.o)
 .bss           0x0000000000023076        0x0 bin/blib.a(pxe_entry.o)
 *fill*         0x0000000000023076        0x2 
 .bss           0x0000000000023078        0xc bin/blib.a(com32_wrapper.o)
                0x0000000000023078                com32_internal_esp
                0x000000000002307c                com32_external_esp
 .bss           0x0000000000023084        0x0 bin/blib.a(settings.o)
 .bss           0x0000000000023084        0x0 bin/blib.a(interface.o)
 .bss           0x0000000000023084        0x0 bin/blib.a(uri.o)
 .bss           0x0000000000023084        0x0 bin/blib.a(asprintf.o)
 .bss           0x0000000000023084        0x0 bin/blib.a(process.o)
 .bss           0x0000000000023084        0x0 bin/blib.a(refcnt.o)
 .bss           0x0000000000023084        0x4 bin/blib.a(init.o)
 .bss           0x0000000000023088        0x0 bin/blib.a(string.o)
 .bss           0x0000000000023088        0x0 bin/blib.a(vsprintf.o)
 .bss           0x0000000000023088        0x0 bin/blib.a(posix_io.o)
 .bss           0x0000000000023088        0x0 bin/blib.a(console.o)
 .bss           0x0000000000023088        0x0 bin/blib.a(open.o)
 .bss           0x0000000000023088        0x0 bin/blib.a(acpi.o)
 .bss           0x0000000000023088        0x0 bin/blib.a(resolv.o)
 .bss           0x0000000000023088        0x0 bin/blib.a(misc.o)
 .bss           0x0000000000023088        0x4 bin/blib.a(cwuri.o)
                0x0000000000023088                cwuri
 .bss           0x000000000002308c        0x0 bin/blib.a(main.o)
 .bss           0x000000000002308c    0x80000 bin/blib.a(malloc.o)
 .bss           0x00000000000a308c        0x0 bin/blib.a(ansiesc.o)
 .bss           0x00000000000a308c        0x0 bin/blib.a(device.o)
 .bss           0x00000000000a308c        0x0 bin/blib.a(exec.o)
 .bss           0x00000000000a308c        0x0 bin/blib.a(serial.o)
 .bss           0x00000000000a308c        0x0 bin/blib.a(basename.o)
 .bss           0x00000000000a308c        0x0 bin/blib.a(cpio.o)
 .bss           0x00000000000a308c        0x0 bin/blib.a(iobuf.o)
 .bss           0x00000000000a308c        0x4 bin/blib.a(image.o)
 .bss           0x00000000000a3090        0x0 bin/blib.a(timer.o)
 *fill*         0x00000000000a3090       0x10 
 .bss           0x00000000000a30a0       0x25 bin/blib.a(uuid.o)
 .bss           0x00000000000a30c5        0x0 bin/blib.a(aoe.o)
 *fill*         0x00000000000a30c5        0x3 
 .bss           0x00000000000a30c8       0x12 bin/blib.a(ipv4.o)
 *fill*         0x00000000000a30da        0x2 
 .bss           0x00000000000a30dc        0x4 bin/blib.a(netdevice.o)
 .bss           0x00000000000a30e0        0x0 bin/blib.a(retry.o)
 .bss           0x00000000000a30e0        0x0 bin/blib.a(icmp.o)
 .bss           0x00000000000a30e0        0x0 bin/blib.a(netdev_settings.o)
 .bss           0x00000000000a30e0       0x18 bin/blib.a(iscsi.o)
 .bss           0x00000000000a30f8        0x0 bin/blib.a(ftp.o)
 .bss           0x00000000000a30f8        0x0 bin/blib.a(http.o)
 .bss           0x00000000000a30f8        0x0 bin/blib.a(https.o)
 .bss           0x00000000000a30f8        0x8 bin/blib.a(dns.o)
 .bss           0x00000000000a3100        0x4 bin/blib.a(tftp.o)
 .bss           0x00000000000a3104        0x0 bin/blib.a(script.o)
 .bss           0x00000000000a3104        0x0 bin/blib.a(elf.o)
 .bss           0x00000000000a3104        0x0 bin/blib.a(segment.o)
 .bss           0x00000000000a3104        0x0 bin/blib.a(embedded.o)
 .bss           0x00000000000a3104        0x0 bin/blib.a(ata.o)
 .bss           0x00000000000a3104        0x0 bin/blib.a(scsi.o)
 .bss           0x00000000000a3104        0x0 bin/blib.a(md5.o)
 .bss           0x00000000000a3104        0x0 bin/blib.a(chap.o)
 .bss           0x00000000000a3104        0x0 bin/blib.a(shell_banner.o)
 *fill*         0x00000000000a3104       0x1c 
 .bss           0x00000000000a3120       0x40 bin/blib.a(strerror.o)
 .bss           0x00000000000a3160        0x4 bin/blib.a(shell.o)
 .bss           0x00000000000a3164        0x0 bin/blib.a(image_cmd.o)
 .bss           0x00000000000a3164        0x0 bin/blib.a(route_cmd.o)
 .bss           0x00000000000a3164        0x0 bin/blib.a(dhcp_cmd.o)
 .bss           0x00000000000a3164        0x0 bin/blib.a(autoboot_cmd.o)
 .bss           0x00000000000a3164        0x0 bin/blib.a(ifmgmt_cmd.o)
 .bss           0x00000000000a3164        0x0 bin/blib.a(sanboot_cmd.o)
 .bss           0x00000000000a3164        0x0 bin/blib.a(login_cmd.o)
 .bss           0x00000000000a3164        0x0 bin/blib.a(config_cmd.o)
 .bss           0x00000000000a3164        0x0 bin/blib.a(nvo_cmd.o)
 .bss           0x00000000000a3164        0x0 bin/blib.a(settings_ui.o)
 .bss           0x00000000000a3164        0x0 bin/blib.a(login_ui.o)
 .bss           0x00000000000a3164        0x0 bin/blib.a(colour.o)
 .bss           0x00000000000a3164        0x0 bin/blib.a(print.o)
 .bss           0x00000000000a3164        0x0 bin/blib.a(mucurses.o)
 .bss           0x00000000000a3164        0x0 bin/blib.a(wininit.o)
 .bss           0x00000000000a3164        0x0 bin/blib.a(winattrs.o)
 .bss           0x00000000000a3164        0x0 bin/blib.a(ansi_screen.o)
 .bss           0x00000000000a3164        0x0 bin/blib.a(clear.o)
 .bss           0x00000000000a3164        0x0 bin/blib.a(editbox.o)
 .bss           0x00000000000a3164        0x4 bin/blib.a(autoboot.o)
                0x00000000000a3164                shutdown_exit_flags
 .bss           0x00000000000a3168        0x0 bin/blib.a(ifmgmt.o)
 .bss           0x00000000000a3168        0x0 bin/blib.a(dhcpmgmt.o)
 .bss           0x00000000000a3168        0x0 bin/blib.a(pxemenu.o)
 .bss           0x00000000000a3168        0x0 bin/blib.a(imgmgmt.o)
 .bss           0x00000000000a3168        0x0 bin/blib.a(route.o)
 .bss           0x00000000000a3168        0x0 bin/blib.a(relocate.o)
 .bss           0x00000000000a3168        0x0 bin/blib.a(timer2.o)
 .bss           0x00000000000a3168        0x0 bin/blib.a(librm_mgmt.o)
 .bss           0x00000000000a3168        0x5 bin/blib.a(gateA20.o)
 .bss           0x00000000000a316d        0x0 bin/blib.a(memmap.o)
 *fill*         0x00000000000a316d        0x3 
 .bss           0x00000000000a3170        0x8 bin/blib.a(bootsector.o)
 .bss           0x00000000000a3178        0x8 bin/blib.a(undinet.o)
 .bss           0x00000000000a3180        0x0 bin/blib.a(abft.o)
 .bss           0x00000000000a3180        0x8 bin/blib.a(memtop_umalloc.o)
 .bss           0x00000000000a3188        0x0 bin/blib.a(biosint.o)
 .bss           0x00000000000a3188        0x4 bin/blib.a(bios_timer.o)
 .bss           0x00000000000a318c        0x0 bin/blib.a(bios_nap.o)
 .bss           0x00000000000a318c        0x0 bin/blib.a(pxe_udp.o)
 .bss           0x00000000000a318c        0x8 bin/blib.a(pxe_undi.o)
                0x00000000000a318c                pxe_netdev
 .bss           0x00000000000a3194        0x0 bin/blib.a(pxe_loader.o)
 .bss           0x00000000000a3194        0x0 bin/blib.a(pxe_preboot.o)
 .bss           0x00000000000a3194        0x0 bin/blib.a(pxe_tftp.o)
 .bss           0x00000000000a3194        0x0 bin/blib.a(pxe_file.o)
 .bss           0x00000000000a3194        0x0 bin/blib.a(pxeparent_dhcp.o)
 .bss           0x00000000000a3194        0x0 bin/blib.a(pxeparent.o)
 .bss           0x00000000000a3194        0x0 bin/blib.a(stack16.o)
 .bss           0x00000000000a3194        0x0 bin/blib.a(stack.o)
 .bss           0x00000000000a3194        0x0 bin/blib.a(unnrv2b16.o)
 .bss           0x00000000000a3194        0x0 bin/blib.a(undiisr.o)
 .bss           0x00000000000a3194        0x0 bin/blib.a(ctype.o)
 .bss           0x00000000000a3194        0x0 bin/blib.a(getkey.o)
 .bss           0x00000000000a3194        0x0 bin/blib.a(getopt.o)
 .bss           0x00000000000a3194        0x0 bin/blib.a(bitmap.o)
 .bss           0x00000000000a3194        0x0 bin/blib.a(downloader.o)
 .bss           0x00000000000a3194       0x14 bin/blib.a(xfer.o)
 .bss           0x00000000000a31a8        0x0 bin/blib.a(linebuf.o)
 .bss           0x00000000000a31a8        0x0 bin/blib.a(base64.o)
 .bss           0x00000000000a31a8        0x0 bin/blib.a(job.o)
 .bss           0x00000000000a31a8        0x4 bin/blib.a(monojob.o)
 .bss           0x00000000000a31ac        0x4 bin/blib.a(random.o)
 .bss           0x00000000000a31b0        0x0 bin/blib.a(fakedhcp.o)
 .bss           0x00000000000a31b0        0x0 bin/blib.a(tcp.o)
 *fill*         0x00000000000a31b0       0x10 
 .bss           0x00000000000a31c0       0xa0 bin/blib.a(arp.o)
 .bss           0x00000000000a3260       0x12 bin/blib.a(ethernet.o)
 .bss           0x00000000000a3272        0x0 bin/blib.a(tcpip.o)
 .bss           0x00000000000a3272        0x0 bin/blib.a(tls.o)
 .bss           0x00000000000a3272        0x0 bin/blib.a(rarp.o)
 .bss           0x00000000000a3272        0x0 bin/blib.a(nullnet.o)
 .bss           0x00000000000a3272        0x0 bin/blib.a(dhcppkt.o)
 .bss           0x00000000000a3272        0x0 bin/blib.a(cachedhcp.o)
 .bss           0x00000000000a3272        0x0 bin/blib.a(udp.o)
 .bss           0x00000000000a3272        0x0 bin/blib.a(dhcpopts.o)
 .bss           0x00000000000a3272        0x0 bin/blib.a(dhcp.o)
 .bss           0x00000000000a3272        0x0 bin/blib.a(smbios_settings.o)
 .bss           0x00000000000a3272        0x0 bin/blib.a(axtls_sha1.o)
 .bss           0x00000000000a3272        0x0 bin/blib.a(axtls_aes.o)
 .bss           0x00000000000a3272        0x0 bin/blib.a(hmac.o)
 .bss           0x00000000000a3272        0x0 bin/blib.a(crypto_null.o)
 .bss           0x00000000000a3272        0x0 bin/blib.a(x509.o)
 .bss           0x00000000000a3272        0x0 bin/blib.a(aes.o)
 .bss           0x00000000000a3272        0x0 bin/blib.a(sha1.o)
 .bss           0x00000000000a3272        0x0 bin/blib.a(rsa.o)
 .bss           0x00000000000a3272        0x0 bin/blib.a(bigint.o)
 .bss           0x00000000000a3272        0x0 bin/blib.a(editstring.o)
 .bss           0x00000000000a3272        0x0 bin/blib.a(readline.o)
 .bss           0x00000000000a3272        0x0 bin/blib.a(pic8259.o)
 .bss           0x00000000000a3272        0x0 bin/blib.a(basemem_packet.o)
 *fill*         0x00000000000a3272        0x2 
 .bss           0x00000000000a3274        0x4 bin/blib.a(pnpbios.o)
 .bss           0x00000000000a3278        0x0 bin/blib.a(hidemem.o)
 .bss           0x00000000000a3278        0x0 bin/blib.a(e820mangler.o)
 .bss           0x00000000000a3278        0x0 bin/blib.a(__udivdi3.o)
 .bss           0x00000000000a3278        0x0 bin/blib.a(__umoddi3.o)
 .bss           0x00000000000a3278        0x0 bin/blib.a(__udivmoddi4.o)
 .bss           0x00000000000a3278        0x0 bin/blib.a(filter.o)
 .bss           0x00000000000a3278        0xc bin/blib.a(smbios.o)
 .bss           0x00000000000a3284        0x0 bin/blib.a(cbc.o)
 .bss           0x00000000000a3284        0x0 bin/blib.a(asn1.o)
 .bss           0x00000000000a3284        0x4 bin/blib.a(bios_smbios.o)
 *(.bss.*)
 *(COMMON)
 COMMON         0x00000000000a3288        0x0 bin/blib.a(config.o)
                0x00000000000a3288                __licence_gpl2_or_later
                0x00000000000a3288                obj_config
 COMMON         0x00000000000a3288        0x0 bin/blib.a(bios_console.o)
                0x00000000000a3288                __licence_gpl2_only
                0x00000000000a3288                obj_bios_console
                0x00000000000a3288                __licence_public_domain
 COMMON         0x00000000000a3288        0x0 bin/blib.a(comboot.o)
                0x00000000000a3288                obj_comboot
 COMMON         0x00000000000a3288        0x0 bin/blib.a(bzimage.o)
                0x00000000000a3288                obj_bzimage
 COMMON         0x00000000000a3288        0x0 bin/blib.a(elfboot.o)
                0x00000000000a3288                obj_elfboot
 COMMON         0x00000000000a3288        0x0 bin/blib.a(multiboot.o)
                0x00000000000a3288                obj_multiboot
 COMMON         0x00000000000a3288        0x0 bin/blib.a(pxe_image.o)
                0x00000000000a3288                obj_pxe_image
 COMMON         0x00000000000a3288        0x0 bin/blib.a(com32.o)
                0x00000000000a3288                obj_com32
 COMMON         0x00000000000a3288        0x0 bin/blib.a(undionly.o)
                0x00000000000a3288                obj_undionly
 COMMON         0x00000000000a3288        0x0 bin/blib.a(undipreload.o)
                0x00000000000a3288                obj_undipreload
 COMMON         0x00000000000a3288        0x0 bin/blib.a(iscsiboot.o)
                0x00000000000a3288                obj_iscsiboot
                0x00000000000a3288                __licence_bsd2
 COMMON         0x00000000000a3288        0x0 bin/blib.a(ibft.o)
                0x00000000000a3288                obj_ibft
 COMMON         0x00000000000a3288        0x0 bin/blib.a(aoeboot.o)
                0x00000000000a3288                obj_aoeboot
 COMMON         0x00000000000a3288        0x0 bin/blib.a(int13.o)
                0x00000000000a3288                obj_int13
 COMMON         0x00000000000a3288        0x0 bin/blib.a(keepsan.o)
                0x00000000000a3288                obj_keepsan
 COMMON         0x00000000000a3288        0x0 bin/blib.a(pxe_call.o)
                0x00000000000a3288                obj_pxe_call
 COMMON         0x00000000000a3288        0x0 bin/blib.a(comboot_resolv.o)
                0x00000000000a3288                obj_comboot_resolv
 COMMON         0x00000000000a3288        0x0 bin/blib.a(com32_call.o)
                0x00000000000a3288                obj_com32_call
 COMMON         0x00000000000a3288       0x20 bin/blib.a(comboot_call.o)
                0x00000000000a3288                comboot_return
                0x00000000000a32a4                obj_comboot_call
                0x00000000000a32a4                comboot_replacement_image
 COMMON         0x00000000000a32a8        0x0 bin/blib.a(pxe_cmd.o)
                0x00000000000a32a8                obj_pxe_cmd
 COMMON         0x00000000000a32a8        0x0 bin/blib.a(x86_string.o)
                0x00000000000a32a8                obj_x86_string
 COMMON         0x00000000000a32a8        0x0 bin/blib.a(setjmp.o)
                0x00000000000a32a8                obj_setjmp
 COMMON         0x00000000000a32a8        0x0 bin/blib.a(virtaddr.o)
                0x00000000000a32a8                obj_virtaddr
 COMMON         0x00000000000a32a8        0x0 bin/blib.a(librm.o)
                0x00000000000a32a8                obj_librm
 COMMON         0x00000000000a32a8        0x0 bin/blib.a(kkpxeprefix.o)
                0x00000000000a32a8                obj_kkpxeprefix
 COMMON         0x00000000000a32a8        0x0 bin/blib.a(libprefix.o)
                0x00000000000a32a8                obj_libprefix
 COMMON         0x00000000000a32a8        0x0 bin/blib.a(pxe_entry.o)
                0x00000000000a32a8                obj_pxe_entry
 COMMON         0x00000000000a32a8        0x0 bin/blib.a(com32_wrapper.o)
                0x00000000000a32a8                obj_com32_wrapper
 COMMON         0x00000000000a32a8        0x0 bin/blib.a(settings.o)
                0x00000000000a32a8                obj_settings
 COMMON         0x00000000000a32a8        0x0 bin/blib.a(interface.o)
                0x00000000000a32a8                obj_interface
 COMMON         0x00000000000a32a8        0x0 bin/blib.a(uri.o)
                0x00000000000a32a8                obj_uri
 COMMON         0x00000000000a32a8        0x0 bin/blib.a(asprintf.o)
                0x00000000000a32a8                obj_asprintf
 COMMON         0x00000000000a32a8        0x0 bin/blib.a(process.o)
                0x00000000000a32a8                obj_process
 COMMON         0x00000000000a32a8        0x0 bin/blib.a(refcnt.o)
                0x00000000000a32a8                obj_refcnt
 COMMON         0x00000000000a32a8        0x0 bin/blib.a(init.o)
                0x00000000000a32a8                obj_init
 COMMON         0x00000000000a32a8        0x0 bin/blib.a(string.o)
                0x00000000000a32a8                obj_string
 COMMON         0x00000000000a32a8        0x0 bin/blib.a(vsprintf.o)
                0x00000000000a32a8                obj_vsprintf
 COMMON         0x00000000000a32a8        0x0 bin/blib.a(posix_io.o)
                0x00000000000a32a8                obj_posix_io
 COMMON         0x00000000000a32a8        0x0 bin/blib.a(console.o)
                0x00000000000a32a8                obj_console
 COMMON         0x00000000000a32a8        0x0 bin/blib.a(open.o)
                0x00000000000a32a8                obj_open
 COMMON         0x00000000000a32a8        0x0 bin/blib.a(acpi.o)
                0x00000000000a32a8                obj_acpi
 COMMON         0x00000000000a32a8        0x0 bin/blib.a(resolv.o)
                0x00000000000a32a8                obj_resolv
 COMMON         0x00000000000a32a8        0x0 bin/blib.a(misc.o)
                0x00000000000a32a8                obj_misc
 COMMON         0x00000000000a32a8        0x0 bin/blib.a(cwuri.o)
                0x00000000000a32a8                obj_cwuri
 COMMON         0x00000000000a32a8        0x0 bin/blib.a(main.o)
                0x00000000000a32a8                obj_main
 COMMON         0x00000000000a32a8        0x4 bin/blib.a(malloc.o)
                0x00000000000a32a8                obj_malloc
                0x00000000000a32a8                freemem
 COMMON         0x00000000000a32ac        0x0 bin/blib.a(ansiesc.o)
                0x00000000000a32ac                obj_ansiesc
 COMMON         0x00000000000a32ac        0x0 bin/blib.a(device.o)
                0x00000000000a32ac                obj_device
 COMMON         0x00000000000a32ac        0x8 bin/blib.a(exec.o)
                0x00000000000a32ac                optind
                0x00000000000a32b0                nextchar
                0x00000000000a32b4                obj_exec
 COMMON         0x00000000000a32b4        0x0 bin/blib.a(serial.o)
                0x00000000000a32b4                obj_serial
 COMMON         0x00000000000a32b4        0x0 bin/blib.a(basename.o)
                0x00000000000a32b4                obj_basename
 COMMON         0x00000000000a32b4        0x0 bin/blib.a(cpio.o)
                0x00000000000a32b4                obj_cpio
 COMMON         0x00000000000a32b4        0x0 bin/blib.a(iobuf.o)
                0x00000000000a32b4                obj_iobuf
 COMMON         0x00000000000a32b4        0x0 bin/blib.a(image.o)
                0x00000000000a32b4                obj_image
 COMMON         0x00000000000a32b4        0x0 bin/blib.a(timer.o)
                0x00000000000a32b4                obj_timer
 COMMON         0x00000000000a32b4        0x0 bin/blib.a(uuid.o)
                0x00000000000a32b4                obj_uuid
 COMMON         0x00000000000a32b4        0x0 bin/blib.a(aoe.o)
                0x00000000000a32b4                obj_aoe
 COMMON         0x00000000000a32b4        0x0 bin/blib.a(ipv4.o)
                0x00000000000a32b4                obj_ipv4
 COMMON         0x00000000000a32b4        0x0 bin/blib.a(netdevice.o)
                0x00000000000a32b4                obj_netdevice
 COMMON         0x00000000000a32b4        0x0 bin/blib.a(retry.o)
                0x00000000000a32b4                obj_retry
 COMMON         0x00000000000a32b4        0x0 bin/blib.a(icmp.o)
                0x00000000000a32b4                obj_icmp
 COMMON         0x00000000000a32b4        0x0 bin/blib.a(netdev_settings.o)
                0x00000000000a32b4                obj_netdev_settings
 COMMON         0x00000000000a32b4        0x0 bin/blib.a(iscsi.o)
                0x00000000000a32b4                obj_iscsi
 COMMON         0x00000000000a32b4        0x0 bin/blib.a(ftp.o)
                0x00000000000a32b4                obj_ftp
 COMMON         0x00000000000a32b4        0x0 bin/blib.a(http.o)
                0x00000000000a32b4                obj_http
 COMMON         0x00000000000a32b4        0x0 bin/blib.a(https.o)
                0x00000000000a32b4                obj_https
 COMMON         0x00000000000a32b4        0x0 bin/blib.a(dns.o)
                0x00000000000a32b4                obj_dns
 COMMON         0x00000000000a32b4        0x0 bin/blib.a(tftp.o)
                0x00000000000a32b4                obj_tftp
 COMMON         0x00000000000a32b4        0x0 bin/blib.a(script.o)
                0x00000000000a32b4                obj_script
 COMMON         0x00000000000a32b4        0x0 bin/blib.a(elf.o)
                0x00000000000a32b4                obj_elf
 COMMON         0x00000000000a32b4        0x0 bin/blib.a(segment.o)
                0x00000000000a32b4                obj_segment
 COMMON         0x00000000000a32b4        0x0 bin/blib.a(embedded.o)
                0x00000000000a32b4                obj_embedded
 COMMON         0x00000000000a32b4        0x0 bin/blib.a(ata.o)
                0x00000000000a32b4                obj_ata
 COMMON         0x00000000000a32b4        0x0 bin/blib.a(scsi.o)
                0x00000000000a32b4                obj_scsi
 COMMON         0x00000000000a32b4        0x0 bin/blib.a(md5.o)
                0x00000000000a32b4                obj_md5
 COMMON         0x00000000000a32b4        0x0 bin/blib.a(chap.o)
                0x00000000000a32b4                obj_chap
 COMMON         0x00000000000a32b4        0x0 bin/blib.a(shell_banner.o)
                0x00000000000a32b4                obj_shell_banner
 COMMON         0x00000000000a32b4        0x0 bin/blib.a(strerror.o)
                0x00000000000a32b4                obj_strerror
 COMMON         0x00000000000a32b4        0x0 bin/blib.a(shell.o)
                0x00000000000a32b4                obj_shell
 COMMON         0x00000000000a32b4        0x0 bin/blib.a(image_cmd.o)
                0x00000000000a32b4                obj_image_cmd
 COMMON         0x00000000000a32b4        0x0 bin/blib.a(route_cmd.o)
                0x00000000000a32b4                obj_route_cmd
 COMMON         0x00000000000a32b4        0x0 bin/blib.a(dhcp_cmd.o)
                0x00000000000a32b4                obj_dhcp_cmd
 COMMON         0x00000000000a32b4        0x0 bin/blib.a(autoboot_cmd.o)
                0x00000000000a32b4                obj_autoboot_cmd
 COMMON         0x00000000000a32b4        0x0 bin/blib.a(ifmgmt_cmd.o)
                0x00000000000a32b4                obj_ifmgmt_cmd
 COMMON         0x00000000000a32b4        0x0 bin/blib.a(sanboot_cmd.o)
                0x00000000000a32b4                obj_sanboot_cmd
 COMMON         0x00000000000a32b4        0x0 bin/blib.a(login_cmd.o)
                0x00000000000a32b4                obj_login_cmd
 COMMON         0x00000000000a32b4        0x0 bin/blib.a(config_cmd.o)
                0x00000000000a32b4                obj_config_cmd
 COMMON         0x00000000000a32b4        0x0 bin/blib.a(nvo_cmd.o)
                0x00000000000a32b4                obj_nvo_cmd
 COMMON         0x00000000000a32b4        0x0 bin/blib.a(settings_ui.o)
                0x00000000000a32b4                obj_settings_ui
 COMMON         0x00000000000a32b4        0x0 bin/blib.a(login_ui.o)
                0x00000000000a32b4                obj_login_ui
 COMMON         0x00000000000a32b4        0x0 bin/blib.a(colour.o)
                0x00000000000a32b4                obj_colour
 COMMON         0x00000000000a32b4        0x0 bin/blib.a(print.o)
                0x00000000000a32b4                obj_print
 COMMON         0x00000000000a32b4        0x0 bin/blib.a(mucurses.o)
                0x00000000000a32b4                obj_mucurses
 COMMON         0x00000000000a32b4        0x0 bin/blib.a(wininit.o)
                0x00000000000a32b4                obj_wininit
 COMMON         0x00000000000a32b4        0x0 bin/blib.a(winattrs.o)
                0x00000000000a32b4                obj_winattrs
 COMMON         0x00000000000a32b4        0x0 bin/blib.a(ansi_screen.o)
                0x00000000000a32b4                obj_ansi_screen
 COMMON         0x00000000000a32b4        0x0 bin/blib.a(clear.o)
                0x00000000000a32b4                obj_clear
 COMMON         0x00000000000a32b4        0x0 bin/blib.a(editbox.o)
                0x00000000000a32b4                obj_editbox
 COMMON         0x00000000000a32b4        0x0 bin/blib.a(autoboot.o)
                0x00000000000a32b4                obj_autoboot
 COMMON         0x00000000000a32b4        0x0 bin/blib.a(ifmgmt.o)
                0x00000000000a32b4                obj_ifmgmt
 COMMON         0x00000000000a32b4        0x0 bin/blib.a(dhcpmgmt.o)
                0x00000000000a32b4                obj_dhcpmgmt
 COMMON         0x00000000000a32b4        0x0 bin/blib.a(pxemenu.o)
                0x00000000000a32b4                obj_pxemenu
 COMMON         0x00000000000a32b4        0x0 bin/blib.a(imgmgmt.o)
                0x00000000000a32b4                obj_imgmgmt
 COMMON         0x00000000000a32b4        0x0 bin/blib.a(route.o)
                0x00000000000a32b4                obj_route
 COMMON         0x00000000000a32b4        0x0 bin/blib.a(relocate.o)
                0x00000000000a32b4                obj_relocate
 COMMON         0x00000000000a32b4        0x0 bin/blib.a(timer2.o)
                0x00000000000a32b4                obj_timer2
 COMMON         0x00000000000a32b4        0x0 bin/blib.a(librm_mgmt.o)
                0x00000000000a32b4                obj_librm_mgmt
 COMMON         0x00000000000a32b4        0x0 bin/blib.a(gateA20.o)
                0x00000000000a32b4                obj_gateA20
 COMMON         0x00000000000a32b4        0x0 bin/blib.a(memmap.o)
                0x00000000000a32b4                obj_memmap
 COMMON         0x00000000000a32b4        0x0 bin/blib.a(bootsector.o)
                0x00000000000a32b4                obj_bootsector
 COMMON         0x00000000000a32b4        0x0 bin/blib.a(undinet.o)
                0x00000000000a32b4                obj_undinet
 COMMON         0x00000000000a32b4        0x0 bin/blib.a(abft.o)
                0x00000000000a32b4                obj_abft
 COMMON         0x00000000000a32b4        0x0 bin/blib.a(memtop_umalloc.o)
                0x00000000000a32b4                obj_memtop_umalloc
 COMMON         0x00000000000a32b4        0x0 bin/blib.a(biosint.o)
                0x00000000000a32b4                obj_biosint
 COMMON         0x00000000000a32b4        0x0 bin/blib.a(bios_timer.o)
                0x00000000000a32b4                obj_bios_timer
 COMMON         0x00000000000a32b4        0x0 bin/blib.a(bios_nap.o)
                0x00000000000a32b4                obj_bios_nap
 COMMON         0x00000000000a32b4        0x0 bin/blib.a(pxe_udp.o)
                0x00000000000a32b4                obj_pxe_udp
 COMMON         0x00000000000a32b4        0x0 bin/blib.a(pxe_undi.o)
                0x00000000000a32b4                obj_pxe_undi
 COMMON         0x00000000000a32b4        0x0 bin/blib.a(pxe_loader.o)
                0x00000000000a32b4                obj_pxe_loader
 COMMON         0x00000000000a32b4        0x2 bin/blib.a(pxe_preboot.o)
                0x00000000000a32b4                isapnp_read_port
                0x00000000000a32b6                obj_pxe_preboot
 COMMON         0x00000000000a32b6        0x0 bin/blib.a(pxe_tftp.o)
                0x00000000000a32b6                obj_pxe_tftp
 COMMON         0x00000000000a32b6        0x0 bin/blib.a(pxe_file.o)
                0x00000000000a32b6                obj_pxe_file
 COMMON         0x00000000000a32b6        0x0 bin/blib.a(pxeparent_dhcp.o)
                0x00000000000a32b6                obj_pxeparent_dhcp
 COMMON         0x00000000000a32b6        0x0 bin/blib.a(pxeparent.o)
                0x00000000000a32b6                obj_pxeparent
 COMMON         0x00000000000a32b6        0x0 bin/blib.a(stack16.o)
                0x00000000000a32b6                obj_stack16
 COMMON         0x00000000000a32b6        0x0 bin/blib.a(stack.o)
                0x00000000000a32b6                obj_stack
 COMMON         0x00000000000a32b6        0x0 bin/blib.a(unnrv2b16.o)
                0x00000000000a32b6                obj_unnrv2b16
 COMMON         0x00000000000a32b6        0x0 bin/blib.a(undiisr.o)
                0x00000000000a32b6                obj_undiisr
 COMMON         0x00000000000a32b6        0x0 bin/blib.a(ctype.o)
                0x00000000000a32b6                obj_ctype
 COMMON         0x00000000000a32b6        0x0 bin/blib.a(getkey.o)
                0x00000000000a32b6                obj_getkey
 *fill*         0x00000000000a32b6        0x2 
 COMMON         0x00000000000a32b8        0x8 bin/blib.a(getopt.o)
                0x00000000000a32b8                optarg
                0x00000000000a32bc                obj_getopt
                0x00000000000a32bc                optopt
 COMMON         0x00000000000a32c0        0x0 bin/blib.a(bitmap.o)
                0x00000000000a32c0                obj_bitmap
 COMMON         0x00000000000a32c0        0x0 bin/blib.a(downloader.o)
                0x00000000000a32c0                obj_downloader
 COMMON         0x00000000000a32c0        0x0 bin/blib.a(xfer.o)
                0x00000000000a32c0                obj_xfer
 COMMON         0x00000000000a32c0        0x0 bin/blib.a(linebuf.o)
                0x00000000000a32c0                obj_linebuf
 COMMON         0x00000000000a32c0        0x0 bin/blib.a(base64.o)
                0x00000000000a32c0                obj_base64
 COMMON         0x00000000000a32c0        0x0 bin/blib.a(job.o)
                0x00000000000a32c0                obj_job
 COMMON         0x00000000000a32c0        0x0 bin/blib.a(monojob.o)
                0x00000000000a32c0                obj_monojob
 COMMON         0x00000000000a32c0        0x0 bin/blib.a(random.o)
                0x00000000000a32c0                obj_random
 COMMON         0x00000000000a32c0        0x0 bin/blib.a(fakedhcp.o)
                0x00000000000a32c0                obj_fakedhcp
 COMMON         0x00000000000a32c0        0x0 bin/blib.a(tcp.o)
                0x00000000000a32c0                obj_tcp
 COMMON         0x00000000000a32c0        0x0 bin/blib.a(arp.o)
                0x00000000000a32c0                obj_arp
 COMMON         0x00000000000a32c0        0x0 bin/blib.a(ethernet.o)
                0x00000000000a32c0                obj_ethernet
 COMMON         0x00000000000a32c0        0x0 bin/blib.a(tcpip.o)
                0x00000000000a32c0                obj_tcpip
 COMMON         0x00000000000a32c0        0x0 bin/blib.a(tls.o)
                0x00000000000a32c0                obj_tls
 COMMON         0x00000000000a32c0        0x0 bin/blib.a(rarp.o)
                0x00000000000a32c0                obj_rarp
 COMMON         0x00000000000a32c0        0x0 bin/blib.a(nullnet.o)
                0x00000000000a32c0                obj_nullnet
 COMMON         0x00000000000a32c0        0x0 bin/blib.a(dhcppkt.o)
                0x00000000000a32c0                obj_dhcppkt
 COMMON         0x00000000000a32c0        0x0 bin/blib.a(cachedhcp.o)
                0x00000000000a32c0                obj_cachedhcp
 COMMON         0x00000000000a32c0        0x0 bin/blib.a(udp.o)
                0x00000000000a32c0                obj_udp
 COMMON         0x00000000000a32c0        0x0 bin/blib.a(dhcpopts.o)
                0x00000000000a32c0                obj_dhcpopts
 COMMON         0x00000000000a32c0        0x0 bin/blib.a(dhcp.o)
                0x00000000000a32c0                obj_dhcp
 COMMON         0x00000000000a32c0        0x0 bin/blib.a(smbios_settings.o)
                0x00000000000a32c0                obj_smbios_settings
 COMMON         0x00000000000a32c0        0x0 bin/blib.a(axtls_sha1.o)
                0x00000000000a32c0                obj_axtls_sha1
 COMMON         0x00000000000a32c0        0x0 bin/blib.a(axtls_aes.o)
                0x00000000000a32c0                obj_axtls_aes
 COMMON         0x00000000000a32c0        0x0 bin/blib.a(hmac.o)
                0x00000000000a32c0                obj_hmac
 COMMON         0x00000000000a32c0        0x0 bin/blib.a(crypto_null.o)
                0x00000000000a32c0                obj_crypto_null
 COMMON         0x00000000000a32c0        0x0 bin/blib.a(x509.o)
                0x00000000000a32c0                obj_x509
 COMMON         0x00000000000a32c0        0x0 bin/blib.a(aes.o)
                0x00000000000a32c0                obj_aes
 COMMON         0x00000000000a32c0        0x0 bin/blib.a(sha1.o)
                0x00000000000a32c0                obj_sha1
 COMMON         0x00000000000a32c0        0x0 bin/blib.a(rsa.o)
                0x00000000000a32c0                obj_rsa
 COMMON         0x00000000000a32c0        0x0 bin/blib.a(bigint.o)
                0x00000000000a32c0                obj_bigint
 COMMON         0x00000000000a32c0        0x0 bin/blib.a(editstring.o)
                0x00000000000a32c0                obj_editstring
 COMMON         0x00000000000a32c0        0x0 bin/blib.a(readline.o)
                0x00000000000a32c0                obj_readline
 COMMON         0x00000000000a32c0        0x0 bin/blib.a(pic8259.o)
                0x00000000000a32c0                obj_pic8259
 COMMON         0x00000000000a32c0        0x0 bin/blib.a(basemem_packet.o)
                0x00000000000a32c0                obj_basemem_packet
 COMMON         0x00000000000a32c0        0x0 bin/blib.a(pnpbios.o)
                0x00000000000a32c0                obj_pnpbios
 COMMON         0x00000000000a32c0        0x0 bin/blib.a(hidemem.o)
                0x00000000000a32c0                obj_hidemem
 COMMON         0x00000000000a32c0        0x0 bin/blib.a(e820mangler.o)
                0x00000000000a32c0                obj_e820mangler
 COMMON         0x00000000000a32c0        0x0 bin/blib.a(__udivdi3.o)
                0x00000000000a32c0                obj___udivdi3
 COMMON         0x00000000000a32c0        0x0 bin/blib.a(__umoddi3.o)
                0x00000000000a32c0                obj___umoddi3
 COMMON         0x00000000000a32c0        0x0 bin/blib.a(__udivmoddi4.o)
                0x00000000000a32c0                obj___udivmoddi4
 COMMON         0x00000000000a32c0        0x0 bin/blib.a(filter.o)
                0x00000000000a32c0                obj_filter
 COMMON         0x00000000000a32c0        0x0 bin/blib.a(smbios.o)
                0x00000000000a32c0                obj_smbios
 COMMON         0x00000000000a32c0        0x0 bin/blib.a(cbc.o)
                0x00000000000a32c0                obj_cbc
 COMMON         0x00000000000a32c0        0x0 bin/blib.a(asn1.o)
                0x00000000000a32c0                obj_asn1
 COMMON         0x00000000000a32c0        0x0 bin/blib.a(bios_smbios.o)
                0x00000000000a32c0                obj_bios_smbios
 *(.stack)
 .stack         0x00000000000a32c0     0x1000 bin/blib.a(stack.o)
                0x00000000000a32c0                _stack
                0x00000000000a42c0                _estack
 *(.stack.*)
                0x00000000000a42c0                _etextdata = .
                0x0000000000023058                _textdata_filesz = ABSOLUTE ((_mtextdata - _textdata))
                0x00000000000a42c0                _textdata_memsz = ABSOLUTE ((_etextdata - _textdata))

.zinfo          0x0000000000000000       0x40 load address 0x0000000000024550
                0x0000000000000000                _zinfo = .
 *(.zinfo)
 .zinfo         0x0000000000000000       0x40 bin/blib.a(libprefix.o)
 *(.zinfo.*)
                0x0000000000000040                _mzinfo = .

.bss.zinfo      0x0000000000000040        0x0 load address 0x0000000000024590
                0x0000000000000040                _ezinfo = .
                0x0000000000000040                _zinfo_filesz = ABSOLUTE ((_mzinfo - _zinfo))
                0x0000000000000040                _zinfo_memsz = ABSOLUTE ((_ezinfo - _zinfo))

.weak           0x0000000000000000        0x0 load address 0x0000000000024590
                0x0000000000000000                _weak = .
 *(.weak)
 .weak          0x0000000000000000        0x0 bin/blib.a(pxe_entry.o)
                0x0000000000000000                _eweak = .
                0x0000000000000001                _assert = ASSERT ((_weak == _eweak), .weak is non-zero length)

/DISCARD/
 *(.comment)
 *(.comment.*)
 *(.note)
 *(.note.*)
 *(.eh_frame)
 *(.eh_frame.*)
 *(.rel)
 *(.rel.*)
 *(.discard)
                0x0000000000000010                PROVIDE (_max_align, 0x10)
                0x0000000000000000                . = 0x0
                0x0000000000000000                . = ALIGN (_max_align)
                0x0000000000000000                _prefix_lma = .
                0x00000000000007e6                . = (. + _prefix_filesz)
                0x00000000000007f0                . = ALIGN (_max_align)
                0x00000000000007f0                _payload_lma = .
                0x00000000000007f0                _text16_lma = .
                0x0000000000001004                . = (. + _text16_filesz)
                0x0000000000001010                . = ALIGN (_max_align)
                0x0000000000001010                _data16_lma = .
                0x00000000000014e2                . = (. + _data16_filesz)
                0x00000000000014f0                . = ALIGN (_max_align)
                0x00000000000014f0                _textdata_lma = .
                0x0000000000024548                . = (. + _textdata_filesz)
                0x0000000000024548                _filesz = .
                0x0000000000024550                . = ALIGN (_max_align)
                0x0000000000024550                _zinfo_lma = .
                0x0000000000024590                . = (. + _zinfo_filesz)
                0x0000000000024590                . = ALIGN (_max_align)
                0x0000000000024590                _end_lma = .
                0x0000000000000004                _prefix_filesz_sect = ((_prefix_filesz + 0x1ff) / 0x200)
                0x000000000000007f                _prefix_memsz_pgh = ((_prefix_memsz + 0xf) / 0x10)
                0x0000000000000004                _prefix_memsz_sect = ((_prefix_memsz + 0x1ff) / 0x200)
                0x0000000000000082                _text16_memsz_pgh = ((_text16_memsz + 0xf) / 0x10)
                0x00000000000002ea                _data16_memsz_pgh = ((_data16_memsz + 0xf) / 0x10)
                0x00000000000a32a8                check_obj_kkpxeprefix = obj_kkpxeprefix
                0x00000000000a3288                check_obj_undionly = obj_undionly
                0x00000000000a3288                check_obj_config = obj_config
                0x0000000000000000                pci_vendor_id = 0x0
                0x0000000000000000                pci_device_id = 0x0
LOAD bin/blib.a
OUTPUT(bin/undionly.kkpxe.tmp elf32-i386)

.debug_info     0x0000000000000000    0x89fb3
 .debug_info    0x0000000000000000      0x42f bin/blib.a(config.o)
 .debug_info    0x000000000000042f      0x5ad bin/blib.a(bios_console.o)
 .debug_info    0x00000000000009dc     0x1bce bin/blib.a(comboot.o)
 .debug_info    0x00000000000025aa     0x256f bin/blib.a(bzimage.o)
 .debug_info    0x0000000000004b19     0x106a bin/blib.a(elfboot.o)
 .debug_info    0x0000000000005b83     0x1dcf bin/blib.a(multiboot.o)
 .debug_info    0x0000000000007952     0x1235 bin/blib.a(pxe_image.o)
 .debug_info    0x0000000000008b87     0x1133 bin/blib.a(com32.o)
 .debug_info    0x0000000000009cba      0x705 bin/blib.a(undionly.o)
 .debug_info    0x000000000000a3bf      0x37e bin/blib.a(undipreload.o)
 .debug_info    0x000000000000a73d     0x1c85 bin/blib.a(iscsiboot.o)
 .debug_info    0x000000000000c3c2     0x270c bin/blib.a(ibft.o)
 .debug_info    0x000000000000eace      0xfd1 bin/blib.a(aoeboot.o)
 .debug_info    0x000000000000fa9f     0x1e37 bin/blib.a(int13.o)
 .debug_info    0x00000000000118d6      0x842 bin/blib.a(keepsan.o)
 .debug_info    0x0000000000012118     0x2722 bin/blib.a(pxe_call.o)
 .debug_info    0x000000000001483a      0x4b3 bin/blib.a(comboot_resolv.o)
 .debug_info    0x0000000000014ced      0x992 bin/blib.a(com32_call.o)
 .debug_info    0x000000000001567f     0x2596 bin/blib.a(comboot_call.o)
 .debug_info    0x0000000000017c15      0x8e2 bin/blib.a(pxe_cmd.o)
 .debug_info    0x00000000000184f7      0x17e bin/blib.a(x86_string.o)
 .debug_info    0x0000000000018675     0x35f0 bin/blib.a(settings.o)
 .debug_info    0x000000000001bc65      0x241 bin/blib.a(interface.o)
 .debug_info    0x000000000001bea6      0xe1d bin/blib.a(uri.o)
 .debug_info    0x000000000001ccc3      0x252 bin/blib.a(asprintf.o)
 .debug_info    0x000000000001cf15      0x623 bin/blib.a(process.o)
 .debug_info    0x000000000001d538      0x220 bin/blib.a(refcnt.o)
 .debug_info    0x000000000001d758      0x2b0 bin/blib.a(init.o)
 .debug_info    0x000000000001da08      0x758 bin/blib.a(string.o)
 .debug_info    0x000000000001e160      0x84e bin/blib.a(vsprintf.o)
 .debug_info    0x000000000001e9ae     0x12ab bin/blib.a(posix_io.o)
 .debug_info    0x000000000001fc59      0x2f9 bin/blib.a(console.o)
 .debug_info    0x000000000001ff52      0xb1b bin/blib.a(open.o)
 .debug_info    0x0000000000020a6d      0x1bf bin/blib.a(acpi.o)
 .debug_info    0x0000000000020c2c     0x175e bin/blib.a(resolv.o)
 .debug_info    0x000000000002238a      0x258 bin/blib.a(misc.o)
 .debug_info    0x00000000000225e2      0x25e bin/blib.a(cwuri.o)
 .debug_info    0x0000000000022840      0xc46 bin/blib.a(main.o)
 .debug_info    0x0000000000023486      0xb29 bin/blib.a(malloc.o)
 .debug_info    0x0000000000023faf      0x326 bin/blib.a(ansiesc.o)
 .debug_info    0x00000000000242d5      0x65f bin/blib.a(device.o)
 .debug_info    0x0000000000024934      0x9cd bin/blib.a(exec.o)
 .debug_info    0x0000000000025301      0xc78 bin/blib.a(serial.o)
 .debug_info    0x0000000000025f79      0x1a8 bin/blib.a(basename.o)
 .debug_info    0x0000000000026121      0x2e2 bin/blib.a(cpio.o)
 .debug_info    0x0000000000026403      0x30c bin/blib.a(iobuf.o)
 .debug_info    0x000000000002670f      0xf10 bin/blib.a(image.o)
 .debug_info    0x000000000002761f      0x187 bin/blib.a(timer.o)
 .debug_info    0x00000000000277a6      0x277 bin/blib.a(uuid.o)
 .debug_info    0x0000000000027a1d     0x2167 bin/blib.a(aoe.o)
 .debug_info    0x0000000000029b84     0x2277 bin/blib.a(ipv4.o)
 .debug_info    0x000000000002bdfb     0x1eb2 bin/blib.a(netdevice.o)
 .debug_info    0x000000000002dcad      0x58a bin/blib.a(retry.o)
 .debug_info    0x000000000002e237      0x46d bin/blib.a(icmp.o)
 .debug_info    0x000000000002e6a4      0xe12 bin/blib.a(netdev_settings.o)
 .debug_info    0x000000000002f4b6     0x5089 bin/blib.a(iscsi.o)
 .debug_info    0x000000000003453f     0x1b64 bin/blib.a(ftp.o)
 .debug_info    0x00000000000360a3     0x222a bin/blib.a(http.o)
 .debug_info    0x00000000000382cd      0xe1a bin/blib.a(https.o)
 .debug_info    0x00000000000390e7     0x1e37 bin/blib.a(dns.o)
 .debug_info    0x000000000003af1e     0x3cd6 bin/blib.a(tftp.o)
 .debug_info    0x000000000003ebf4      0x9f8 bin/blib.a(script.o)
 .debug_info    0x000000000003f5ec      0xd0b bin/blib.a(elf.o)
 .debug_info    0x00000000000402f7      0x4dd bin/blib.a(segment.o)
 .debug_info    0x00000000000407d4      0x4b7 bin/blib.a(embedded.o)
 .debug_info    0x0000000000040c8b      0x933 bin/blib.a(ata.o)
 .debug_info    0x00000000000415be     0x133c bin/blib.a(scsi.o)
 .debug_info    0x00000000000428fa      0xb2d bin/blib.a(md5.o)
 .debug_info    0x0000000000043427      0x5ec bin/blib.a(chap.o)
 .debug_info    0x0000000000043a13      0x113 bin/blib.a(shell_banner.o)
 .debug_info    0x0000000000043b26      0x304 bin/blib.a(strerror.o)
 .debug_info    0x0000000000043e2a      0x30c bin/blib.a(shell.o)
 .debug_info    0x0000000000044136     0x12ad bin/blib.a(image_cmd.o)
 .debug_info    0x00000000000453e3      0x301 bin/blib.a(route_cmd.o)
 .debug_info    0x00000000000456e4      0xd5d bin/blib.a(dhcp_cmd.o)
 .debug_info    0x0000000000046441      0x1d8 bin/blib.a(autoboot_cmd.o)
 .debug_info    0x0000000000046619      0xdfc bin/blib.a(ifmgmt_cmd.o)
 .debug_info    0x0000000000047415      0x388 bin/blib.a(sanboot_cmd.o)
 .debug_info    0x000000000004779d      0x229 bin/blib.a(login_cmd.o)
 .debug_info    0x00000000000479c6      0x5d5 bin/blib.a(config_cmd.o)
 .debug_info    0x0000000000047f9b      0x7dd bin/blib.a(nvo_cmd.o)
 .debug_info    0x0000000000048778     0x18cd bin/blib.a(settings_ui.o)
 .debug_info    0x000000000004a045      0xc1e bin/blib.a(login_ui.o)
 .debug_info    0x000000000004ac63      0x3d3 bin/blib.a(colour.o)
 .debug_info    0x000000000004b036      0x580 bin/blib.a(print.o)
 .debug_info    0x000000000004b5b6      0x541 bin/blib.a(mucurses.o)
 .debug_info    0x000000000004baf7      0x44c bin/blib.a(wininit.o)
 .debug_info    0x000000000004bf43      0x587 bin/blib.a(winattrs.o)
 .debug_info    0x000000000004c4ca      0x503 bin/blib.a(ansi_screen.o)
 .debug_info    0x000000000004c9cd      0x61c bin/blib.a(clear.o)
 .debug_info    0x000000000004cfe9      0x7ff bin/blib.a(editbox.o)
 .debug_info    0x000000000004d7e8     0x1489 bin/blib.a(autoboot.o)
 .debug_info    0x000000000004ec71      0xc72 bin/blib.a(ifmgmt.o)
 .debug_info    0x000000000004f8e3      0xacc bin/blib.a(dhcpmgmt.o)
 .debug_info    0x00000000000503af     0x15d8 bin/blib.a(pxemenu.o)
 .debug_info    0x0000000000051987      0x834 bin/blib.a(imgmgmt.o)
 .debug_info    0x00000000000521bb      0xa26 bin/blib.a(route.o)
 .debug_info    0x0000000000052be1      0x63d bin/blib.a(relocate.o)
 .debug_info    0x000000000005321e      0x453 bin/blib.a(timer2.o)
 .debug_info    0x0000000000053671      0x56b bin/blib.a(librm_mgmt.o)
 .debug_info    0x0000000000053bdc      0x96a bin/blib.a(gateA20.o)
 .debug_info    0x0000000000054546      0x966 bin/blib.a(memmap.o)
 .debug_info    0x0000000000054eac      0x2f1 bin/blib.a(bootsector.o)
 .debug_info    0x000000000005519d     0x29a4 bin/blib.a(undinet.o)
 .debug_info    0x0000000000057b41      0xe38 bin/blib.a(abft.o)
 .debug_info    0x0000000000058979      0xccf bin/blib.a(memtop_umalloc.o)
 .debug_info    0x0000000000059648      0xae2 bin/blib.a(biosint.o)
 .debug_info    0x000000000005a12a      0x7b6 bin/blib.a(bios_timer.o)
 .debug_info    0x000000000005a8e0      0x116 bin/blib.a(bios_nap.o)
 .debug_info    0x000000000005a9f6      0xfbe bin/blib.a(pxe_udp.o)
 .debug_info    0x000000000005b9b4     0x258f bin/blib.a(pxe_undi.o)
 .debug_info    0x000000000005df43      0x50a bin/blib.a(pxe_loader.o)
 .debug_info    0x000000000005e44d     0x15f7 bin/blib.a(pxe_preboot.o)
 .debug_info    0x000000000005fa44     0x10f1 bin/blib.a(pxe_tftp.o)
 .debug_info    0x0000000000060b35     0x14c4 bin/blib.a(pxe_file.o)
 .debug_info    0x0000000000061ff9      0xb58 bin/blib.a(pxeparent_dhcp.o)
 .debug_info    0x0000000000062b51     0x1927 bin/blib.a(pxeparent.o)
 .debug_info    0x0000000000064478       0xa3 bin/blib.a(ctype.o)
 .debug_info    0x000000000006451b      0x1d6 bin/blib.a(getkey.o)
 .debug_info    0x00000000000646f1      0x5d6 bin/blib.a(getopt.o)
 .debug_info    0x0000000000064cc7      0x318 bin/blib.a(bitmap.o)
 .debug_info    0x0000000000064fdf     0x112d bin/blib.a(downloader.o)
 .debug_info    0x000000000006610c     0x13d8 bin/blib.a(xfer.o)
 .debug_info    0x00000000000674e4      0x3e5 bin/blib.a(linebuf.o)
 .debug_info    0x00000000000678c9      0x230 bin/blib.a(base64.o)
 .debug_info    0x0000000000067af9      0x6fa bin/blib.a(job.o)
 .debug_info    0x00000000000681f3      0x438 bin/blib.a(monojob.o)
 .debug_info    0x000000000006862b      0x162 bin/blib.a(random.o)
 .debug_info    0x000000000006878d      0xfcf bin/blib.a(fakedhcp.o)
 .debug_info    0x000000000006975c     0x2d00 bin/blib.a(tcp.o)
 .debug_info    0x000000000006c45c     0x14f5 bin/blib.a(arp.o)
 .debug_info    0x000000000006d951      0xedb bin/blib.a(ethernet.o)
 .debug_info    0x000000000006e82c      0x59c bin/blib.a(tcpip.o)
 .debug_info    0x000000000006edc8     0x6289 bin/blib.a(tls.o)
 .debug_info    0x0000000000075051      0x9af bin/blib.a(rarp.o)
 .debug_info    0x0000000000075a00      0x992 bin/blib.a(nullnet.o)
 .debug_info    0x0000000000076392     0x1296 bin/blib.a(dhcppkt.o)
 .debug_info    0x0000000000077628      0xf71 bin/blib.a(cachedhcp.o)
 .debug_info    0x0000000000078599     0x1938 bin/blib.a(udp.o)
 .debug_info    0x0000000000079ed1     0x1464 bin/blib.a(dhcpopts.o)
 .debug_info    0x000000000007b335     0x414e bin/blib.a(dhcp.o)
 .debug_info    0x000000000007f483      0x928 bin/blib.a(smbios_settings.o)
 .debug_info    0x000000000007fdab      0x3e7 bin/blib.a(axtls_sha1.o)
 .debug_info    0x0000000000080192      0xb42 bin/blib.a(axtls_aes.o)
 .debug_info    0x0000000000080cd4      0x9cc bin/blib.a(hmac.o)
 .debug_info    0x00000000000816a0      0x5ae bin/blib.a(crypto_null.o)
 .debug_info    0x0000000000081c4e      0x9af bin/blib.a(x509.o)
 .debug_info    0x00000000000825fd      0x80b bin/blib.a(aes.o)
 .debug_info    0x0000000000082e08      0x42a bin/blib.a(sha1.o)
 .debug_info    0x0000000000083232      0xb72 bin/blib.a(rsa.o)
 .debug_info    0x0000000000083da4     0x1b62 bin/blib.a(bigint.o)
 .debug_info    0x0000000000085906      0x633 bin/blib.a(editstring.o)
 .debug_info    0x0000000000085f39      0x426 bin/blib.a(readline.o)
 .debug_info    0x000000000008635f      0x2a5 bin/blib.a(pic8259.o)
 .debug_info    0x0000000000086604      0x186 bin/blib.a(basemem_packet.o)
 .debug_info    0x000000000008678a      0x7d3 bin/blib.a(pnpbios.o)
 .debug_info    0x0000000000086f5d      0x95a bin/blib.a(hidemem.o)
 .debug_info    0x00000000000878b7      0x140 bin/blib.a(__udivdi3.o)
 .debug_info    0x00000000000879f7      0x14c bin/blib.a(__umoddi3.o)
 .debug_info    0x0000000000087b43      0x15b bin/blib.a(__udivmoddi4.o)
 .debug_info    0x0000000000087c9e      0x65c bin/blib.a(filter.o)
 .debug_info    0x00000000000882fa      0x99d bin/blib.a(smbios.o)
 .debug_info    0x0000000000088c97      0x71f bin/blib.a(cbc.o)
 .debug_info    0x00000000000893b6      0x396 bin/blib.a(asn1.o)
 .debug_info    0x000000000008974c      0x867 bin/blib.a(bios_smbios.o)

.debug_abbrev   0x0000000000000000    0x1990c
 .debug_abbrev  0x0000000000000000       0x96 bin/blib.a(config.o)
 .debug_abbrev  0x0000000000000096      0x1ff bin/blib.a(bios_console.o)
 .debug_abbrev  0x0000000000000295      0x38d bin/blib.a(comboot.o)
 .debug_abbrev  0x0000000000000622      0x419 bin/blib.a(bzimage.o)
 .debug_abbrev  0x0000000000000a3b      0x2fd bin/blib.a(elfboot.o)
 .debug_abbrev  0x0000000000000d38      0x3f2 bin/blib.a(multiboot.o)
 .debug_abbrev  0x000000000000112a      0x2a0 bin/blib.a(pxe_image.o)
 .debug_abbrev  0x00000000000013ca      0x34d bin/blib.a(com32.o)
 .debug_abbrev  0x0000000000001717      0x25f bin/blib.a(undionly.o)
 .debug_abbrev  0x0000000000001976       0xf2 bin/blib.a(undipreload.o)
 .debug_abbrev  0x0000000000001a68      0x29a bin/blib.a(iscsiboot.o)
 .debug_abbrev  0x0000000000001d02      0x3d5 bin/blib.a(ibft.o)
 .debug_abbrev  0x00000000000020d7      0x22e bin/blib.a(aoeboot.o)
 .debug_abbrev  0x0000000000002305      0x49b bin/blib.a(int13.o)
 .debug_abbrev  0x00000000000027a0      0x1b1 bin/blib.a(keepsan.o)
 .debug_abbrev  0x0000000000002951      0x49c bin/blib.a(pxe_call.o)
 .debug_abbrev  0x0000000000002ded      0x1f6 bin/blib.a(comboot_resolv.o)
 .debug_abbrev  0x0000000000002fe3      0x276 bin/blib.a(com32_call.o)
 .debug_abbrev  0x0000000000003259      0x4af bin/blib.a(comboot_call.o)
 .debug_abbrev  0x0000000000003708      0x1a1 bin/blib.a(pxe_cmd.o)
 .debug_abbrev  0x00000000000038a9       0xc3 bin/blib.a(x86_string.o)
 .debug_abbrev  0x000000000000396c      0x5fe bin/blib.a(settings.o)
 .debug_abbrev  0x0000000000003f6a      0x196 bin/blib.a(interface.o)
 .debug_abbrev  0x0000000000004100      0x35a bin/blib.a(uri.o)
 .debug_abbrev  0x000000000000445a      0x154 bin/blib.a(asprintf.o)
 .debug_abbrev  0x00000000000045ae      0x205 bin/blib.a(process.o)
 .debug_abbrev  0x00000000000047b3      0x153 bin/blib.a(refcnt.o)
 .debug_abbrev  0x0000000000004906      0x123 bin/blib.a(init.o)
 .debug_abbrev  0x0000000000004a29      0x239 bin/blib.a(string.o)
 .debug_abbrev  0x0000000000004c62      0x33f bin/blib.a(vsprintf.o)
 .debug_abbrev  0x0000000000004fa1      0x3d7 bin/blib.a(posix_io.o)
 .debug_abbrev  0x0000000000005378      0x17f bin/blib.a(console.o)
 .debug_abbrev  0x00000000000054f7      0x2bb bin/blib.a(open.o)
 .debug_abbrev  0x00000000000057b2       0xd1 bin/blib.a(acpi.o)
 .debug_abbrev  0x0000000000005883      0x4b1 bin/blib.a(resolv.o)
 .debug_abbrev  0x0000000000005d34      0x17c bin/blib.a(misc.o)
 .debug_abbrev  0x0000000000005eb0      0x16a bin/blib.a(cwuri.o)
 .debug_abbrev  0x000000000000601a      0x24d bin/blib.a(main.o)
 .debug_abbrev  0x0000000000006267      0x386 bin/blib.a(malloc.o)
 .debug_abbrev  0x00000000000065ed      0x1a9 bin/blib.a(ansiesc.o)
 .debug_abbrev  0x0000000000006796      0x217 bin/blib.a(device.o)
 .debug_abbrev  0x00000000000069ad      0x27d bin/blib.a(exec.o)
 .debug_abbrev  0x0000000000006c2a      0x297 bin/blib.a(serial.o)
 .debug_abbrev  0x0000000000006ec1       0xc7 bin/blib.a(basename.o)
 .debug_abbrev  0x0000000000006f88      0x17f bin/blib.a(cpio.o)
 .debug_abbrev  0x0000000000007107      0x1da bin/blib.a(iobuf.o)
 .debug_abbrev  0x00000000000072e1      0x3ea bin/blib.a(image.o)
 .debug_abbrev  0x00000000000076cb       0xff bin/blib.a(timer.o)
 .debug_abbrev  0x00000000000077ca      0x150 bin/blib.a(uuid.o)
 .debug_abbrev  0x000000000000791a      0x4db bin/blib.a(aoe.o)
 .debug_abbrev  0x0000000000007df5      0x460 bin/blib.a(ipv4.o)
 .debug_abbrev  0x0000000000008255      0x4ab bin/blib.a(netdevice.o)
 .debug_abbrev  0x0000000000008700      0x1de bin/blib.a(retry.o)
 .debug_abbrev  0x00000000000088de      0x20c bin/blib.a(icmp.o)
 .debug_abbrev  0x0000000000008aea      0x2bc bin/blib.a(netdev_settings.o)
 .debug_abbrev  0x0000000000008da6      0x5b4 bin/blib.a(iscsi.o)
 .debug_abbrev  0x000000000000935a      0x43a bin/blib.a(ftp.o)
 .debug_abbrev  0x0000000000009794      0x4ce bin/blib.a(http.o)
 .debug_abbrev  0x0000000000009c62      0x1b5 bin/blib.a(https.o)
 .debug_abbrev  0x0000000000009e17      0x4a5 bin/blib.a(dns.o)
 .debug_abbrev  0x000000000000a2bc      0x526 bin/blib.a(tftp.o)
 .debug_abbrev  0x000000000000a7e2      0x2fd bin/blib.a(script.o)
 .debug_abbrev  0x000000000000aadf      0x2e4 bin/blib.a(elf.o)
 .debug_abbrev  0x000000000000adc3      0x1f4 bin/blib.a(segment.o)
 .debug_abbrev  0x000000000000afb7      0x1d5 bin/blib.a(embedded.o)
 .debug_abbrev  0x000000000000b18c      0x2a3 bin/blib.a(ata.o)
 .debug_abbrev  0x000000000000b42f      0x37b bin/blib.a(scsi.o)
 .debug_abbrev  0x000000000000b7aa      0x29c bin/blib.a(md5.o)
 .debug_abbrev  0x000000000000ba46      0x20f bin/blib.a(chap.o)
 .debug_abbrev  0x000000000000bc55       0x9f bin/blib.a(shell_banner.o)
 .debug_abbrev  0x000000000000bcf4      0x18b bin/blib.a(strerror.o)
 .debug_abbrev  0x000000000000be7f      0x14d bin/blib.a(shell.o)
 .debug_abbrev  0x000000000000bfcc      0x34c bin/blib.a(image_cmd.o)
 .debug_abbrev  0x000000000000c318      0x19c bin/blib.a(route_cmd.o)
 .debug_abbrev  0x000000000000c4b4      0x228 bin/blib.a(dhcp_cmd.o)
 .debug_abbrev  0x000000000000c6dc      0x10f bin/blib.a(autoboot_cmd.o)
 .debug_abbrev  0x000000000000c7eb      0x2a2 bin/blib.a(ifmgmt_cmd.o)
 .debug_abbrev  0x000000000000ca8d      0x1b2 bin/blib.a(sanboot_cmd.o)
 .debug_abbrev  0x000000000000cc3f      0x119 bin/blib.a(login_cmd.o)
 .debug_abbrev  0x000000000000cd58      0x18c bin/blib.a(config_cmd.o)
 .debug_abbrev  0x000000000000cee4      0x1e3 bin/blib.a(nvo_cmd.o)
 .debug_abbrev  0x000000000000d0c7      0x48e bin/blib.a(settings_ui.o)
 .debug_abbrev  0x000000000000d555      0x24a bin/blib.a(login_ui.o)
 .debug_abbrev  0x000000000000d79f      0x155 bin/blib.a(colour.o)
 .debug_abbrev  0x000000000000d8f4      0x1ba bin/blib.a(print.o)
 .debug_abbrev  0x000000000000daae      0x1e5 bin/blib.a(mucurses.o)
 .debug_abbrev  0x000000000000dc93      0x18d bin/blib.a(wininit.o)
 .debug_abbrev  0x000000000000de20      0x19c bin/blib.a(winattrs.o)
 .debug_abbrev  0x000000000000dfbc      0x1eb bin/blib.a(ansi_screen.o)
 .debug_abbrev  0x000000000000e1a7      0x18a bin/blib.a(clear.o)
 .debug_abbrev  0x000000000000e331      0x25a bin/blib.a(editbox.o)
 .debug_abbrev  0x000000000000e58b      0x3ab bin/blib.a(autoboot.o)
 .debug_abbrev  0x000000000000e936      0x231 bin/blib.a(ifmgmt.o)
 .debug_abbrev  0x000000000000eb67      0x1f6 bin/blib.a(dhcpmgmt.o)
 .debug_abbrev  0x000000000000ed5d      0x39e bin/blib.a(pxemenu.o)
 .debug_abbrev  0x000000000000f0fb      0x2a4 bin/blib.a(imgmgmt.o)
 .debug_abbrev  0x000000000000f39f      0x18b bin/blib.a(route.o)
 .debug_abbrev  0x000000000000f52a      0x205 bin/blib.a(relocate.o)
 .debug_abbrev  0x000000000000f72f      0x189 bin/blib.a(timer2.o)
 .debug_abbrev  0x000000000000f8b8      0x1d9 bin/blib.a(librm_mgmt.o)
 .debug_abbrev  0x000000000000fa91      0x2fc bin/blib.a(gateA20.o)
 .debug_abbrev  0x000000000000fd8d      0x2d6 bin/blib.a(memmap.o)
 .debug_abbrev  0x0000000000010063      0x141 bin/blib.a(bootsector.o)
 .debug_abbrev  0x00000000000101a4      0x480 bin/blib.a(undinet.o)
 .debug_abbrev  0x0000000000010624      0x265 bin/blib.a(abft.o)
 .debug_abbrev  0x0000000000010889      0x2de bin/blib.a(memtop_umalloc.o)
 .debug_abbrev  0x0000000000010b67      0x265 bin/blib.a(biosint.o)
 .debug_abbrev  0x0000000000010dcc      0x1f0 bin/blib.a(bios_timer.o)
 .debug_abbrev  0x0000000000010fbc       0x72 bin/blib.a(bios_nap.o)
 .debug_abbrev  0x000000000001102e      0x38f bin/blib.a(pxe_udp.o)
 .debug_abbrev  0x00000000000113bd      0x46d bin/blib.a(pxe_undi.o)
 .debug_abbrev  0x000000000001182a      0x120 bin/blib.a(pxe_loader.o)
 .debug_abbrev  0x000000000001194a      0x42f bin/blib.a(pxe_preboot.o)
 .debug_abbrev  0x0000000000011d79      0x39d bin/blib.a(pxe_tftp.o)
 .debug_abbrev  0x0000000000012116      0x31f bin/blib.a(pxe_file.o)
 .debug_abbrev  0x0000000000012435      0x234 bin/blib.a(pxeparent_dhcp.o)
 .debug_abbrev  0x0000000000012669      0x2d9 bin/blib.a(pxeparent.o)
 .debug_abbrev  0x0000000000012942       0x87 bin/blib.a(ctype.o)
 .debug_abbrev  0x00000000000129c9      0x11c bin/blib.a(getkey.o)
 .debug_abbrev  0x0000000000012ae5      0x1f6 bin/blib.a(getopt.o)
 .debug_abbrev  0x0000000000012cdb      0x178 bin/blib.a(bitmap.o)
 .debug_abbrev  0x0000000000012e53      0x3e4 bin/blib.a(downloader.o)
 .debug_abbrev  0x0000000000013237      0x421 bin/blib.a(xfer.o)
 .debug_abbrev  0x0000000000013658      0x1df bin/blib.a(linebuf.o)
 .debug_abbrev  0x0000000000013837      0x147 bin/blib.a(base64.o)
 .debug_abbrev  0x000000000001397e      0x249 bin/blib.a(job.o)
 .debug_abbrev  0x0000000000013bc7      0x1b9 bin/blib.a(monojob.o)
 .debug_abbrev  0x0000000000013d80      0x114 bin/blib.a(random.o)
 .debug_abbrev  0x0000000000013e94      0x29a bin/blib.a(fakedhcp.o)
 .debug_abbrev  0x000000000001412e      0x469 bin/blib.a(tcp.o)
 .debug_abbrev  0x0000000000014597      0x333 bin/blib.a(arp.o)
 .debug_abbrev  0x00000000000148ca      0x2da bin/blib.a(ethernet.o)
 .debug_abbrev  0x0000000000014ba4      0x219 bin/blib.a(tcpip.o)
 .debug_abbrev  0x0000000000014dbd      0x538 bin/blib.a(tls.o)
 .debug_abbrev  0x00000000000152f5      0x18c bin/blib.a(rarp.o)
 .debug_abbrev  0x0000000000015481      0x1d1 bin/blib.a(nullnet.o)
 .debug_abbrev  0x0000000000015652      0x361 bin/blib.a(dhcppkt.o)
 .debug_abbrev  0x00000000000159b3      0x2f8 bin/blib.a(cachedhcp.o)
 .debug_abbrev  0x0000000000015cab      0x414 bin/blib.a(udp.o)
 .debug_abbrev  0x00000000000160bf      0x397 bin/blib.a(dhcpopts.o)
 .debug_abbrev  0x0000000000016456      0x4f7 bin/blib.a(dhcp.o)
 .debug_abbrev  0x000000000001694d      0x25d bin/blib.a(smbios_settings.o)
 .debug_abbrev  0x0000000000016baa      0x14e bin/blib.a(axtls_sha1.o)
 .debug_abbrev  0x0000000000016cf8      0x2d5 bin/blib.a(axtls_aes.o)
 .debug_abbrev  0x0000000000016fcd      0x252 bin/blib.a(hmac.o)
 .debug_abbrev  0x000000000001721f      0x208 bin/blib.a(crypto_null.o)
 .debug_abbrev  0x0000000000017427      0x1fe bin/blib.a(x509.o)
 .debug_abbrev  0x0000000000017625      0x2be bin/blib.a(aes.o)
 .debug_abbrev  0x00000000000178e3      0x1f7 bin/blib.a(sha1.o)
 .debug_abbrev  0x0000000000017ada      0x282 bin/blib.a(rsa.o)
 .debug_abbrev  0x0000000000017d5c      0x44d bin/blib.a(bigint.o)
 .debug_abbrev  0x00000000000181a9      0x1f8 bin/blib.a(editstring.o)
 .debug_abbrev  0x00000000000183a1      0x1e8 bin/blib.a(readline.o)
 .debug_abbrev  0x0000000000018589      0x155 bin/blib.a(pic8259.o)
 .debug_abbrev  0x00000000000186de       0xa8 bin/blib.a(basemem_packet.o)
 .debug_abbrev  0x0000000000018786      0x277 bin/blib.a(pnpbios.o)
 .debug_abbrev  0x00000000000189fd      0x293 bin/blib.a(hidemem.o)
 .debug_abbrev  0x0000000000018c90       0xcb bin/blib.a(__udivdi3.o)
 .debug_abbrev  0x0000000000018d5b       0xda bin/blib.a(__umoddi3.o)
 .debug_abbrev  0x0000000000018e35       0xbb bin/blib.a(__udivmoddi4.o)
 .debug_abbrev  0x0000000000018ef0      0x1b1 bin/blib.a(filter.o)
 .debug_abbrev  0x00000000000190a1      0x2a9 bin/blib.a(smbios.o)
 .debug_abbrev  0x000000000001934a      0x20b bin/blib.a(cbc.o)
 .debug_abbrev  0x0000000000019555      0x16f bin/blib.a(asn1.o)
 .debug_abbrev  0x00000000000196c4      0x248 bin/blib.a(bios_smbios.o)

.debug_aranges  0x0000000000000000     0x1488
 .debug_aranges
                0x0000000000000000       0x18 bin/blib.a(config.o)
 .debug_aranges
                0x0000000000000018       0x20 bin/blib.a(bios_console.o)
 .debug_aranges
                0x0000000000000038       0x20 bin/blib.a(comboot.o)
 .debug_aranges
                0x0000000000000058       0x20 bin/blib.a(bzimage.o)
 .debug_aranges
                0x0000000000000078       0x20 bin/blib.a(elfboot.o)
 .debug_aranges
                0x0000000000000098       0x20 bin/blib.a(multiboot.o)
 .debug_aranges
                0x00000000000000b8       0x20 bin/blib.a(pxe_image.o)
 .debug_aranges
                0x00000000000000d8       0x20 bin/blib.a(com32.o)
 .debug_aranges
                0x00000000000000f8       0x20 bin/blib.a(undionly.o)
 .debug_aranges
                0x0000000000000118       0x18 bin/blib.a(undipreload.o)
 .debug_aranges
                0x0000000000000130       0x20 bin/blib.a(iscsiboot.o)
 .debug_aranges
                0x0000000000000150       0x20 bin/blib.a(ibft.o)
 .debug_aranges
                0x0000000000000170       0x20 bin/blib.a(aoeboot.o)
 .debug_aranges
                0x0000000000000190       0x20 bin/blib.a(int13.o)
 .debug_aranges
                0x00000000000001b0       0x20 bin/blib.a(keepsan.o)
 .debug_aranges
                0x00000000000001d0       0x20 bin/blib.a(pxe_call.o)
 .debug_aranges
                0x00000000000001f0       0x20 bin/blib.a(comboot_resolv.o)
 .debug_aranges
                0x0000000000000210       0x20 bin/blib.a(com32_call.o)
 .debug_aranges
                0x0000000000000230       0x20 bin/blib.a(comboot_call.o)
 .debug_aranges
                0x0000000000000250       0x20 bin/blib.a(pxe_cmd.o)
 .debug_aranges
                0x0000000000000270       0x20 bin/blib.a(x86_string.o)
 .debug_aranges
                0x0000000000000290       0x20 bin/blib.a(settings.o)
 .debug_aranges
                0x00000000000002b0       0x20 bin/blib.a(interface.o)
 .debug_aranges
                0x00000000000002d0       0x20 bin/blib.a(uri.o)
 .debug_aranges
                0x00000000000002f0       0x20 bin/blib.a(asprintf.o)
 .debug_aranges
                0x0000000000000310       0x20 bin/blib.a(process.o)
 .debug_aranges
                0x0000000000000330       0x20 bin/blib.a(refcnt.o)
 .debug_aranges
                0x0000000000000350       0x20 bin/blib.a(init.o)
 .debug_aranges
                0x0000000000000370       0x20 bin/blib.a(string.o)
 .debug_aranges
                0x0000000000000390       0x20 bin/blib.a(vsprintf.o)
 .debug_aranges
                0x00000000000003b0       0x20 bin/blib.a(posix_io.o)
 .debug_aranges
                0x00000000000003d0       0x20 bin/blib.a(console.o)
 .debug_aranges
                0x00000000000003f0       0x20 bin/blib.a(open.o)
 .debug_aranges
                0x0000000000000410       0x20 bin/blib.a(acpi.o)
 .debug_aranges
                0x0000000000000430       0x20 bin/blib.a(resolv.o)
 .debug_aranges
                0x0000000000000450       0x20 bin/blib.a(misc.o)
 .debug_aranges
                0x0000000000000470       0x20 bin/blib.a(cwuri.o)
 .debug_aranges
                0x0000000000000490       0x20 bin/blib.a(main.o)
 .debug_aranges
                0x00000000000004b0       0x20 bin/blib.a(malloc.o)
 .debug_aranges
                0x00000000000004d0       0x20 bin/blib.a(ansiesc.o)
 .debug_aranges
                0x00000000000004f0       0x20 bin/blib.a(device.o)
 .debug_aranges
                0x0000000000000510       0x20 bin/blib.a(exec.o)
 .debug_aranges
                0x0000000000000530       0x20 bin/blib.a(serial.o)
 .debug_aranges
                0x0000000000000550       0x20 bin/blib.a(basename.o)
 .debug_aranges
                0x0000000000000570       0x20 bin/blib.a(cpio.o)
 .debug_aranges
                0x0000000000000590       0x20 bin/blib.a(iobuf.o)
 .debug_aranges
                0x00000000000005b0       0x20 bin/blib.a(image.o)
 .debug_aranges
                0x00000000000005d0       0x20 bin/blib.a(timer.o)
 .debug_aranges
                0x00000000000005f0       0x20 bin/blib.a(uuid.o)
 .debug_aranges
                0x0000000000000610       0x20 bin/blib.a(aoe.o)
 .debug_aranges
                0x0000000000000630       0x20 bin/blib.a(ipv4.o)
 .debug_aranges
                0x0000000000000650       0x20 bin/blib.a(netdevice.o)
 .debug_aranges
                0x0000000000000670       0x20 bin/blib.a(retry.o)
 .debug_aranges
                0x0000000000000690       0x20 bin/blib.a(icmp.o)
 .debug_aranges
                0x00000000000006b0       0x20 bin/blib.a(netdev_settings.o)
 .debug_aranges
                0x00000000000006d0       0x20 bin/blib.a(iscsi.o)
 .debug_aranges
                0x00000000000006f0       0x20 bin/blib.a(ftp.o)
 .debug_aranges
                0x0000000000000710       0x20 bin/blib.a(http.o)
 .debug_aranges
                0x0000000000000730       0x20 bin/blib.a(https.o)
 .debug_aranges
                0x0000000000000750       0x20 bin/blib.a(dns.o)
 .debug_aranges
                0x0000000000000770       0x20 bin/blib.a(tftp.o)
 .debug_aranges
                0x0000000000000790       0x20 bin/blib.a(script.o)
 .debug_aranges
                0x00000000000007b0       0x20 bin/blib.a(elf.o)
 .debug_aranges
                0x00000000000007d0       0x20 bin/blib.a(segment.o)
 .debug_aranges
                0x00000000000007f0       0x20 bin/blib.a(embedded.o)
 .debug_aranges
                0x0000000000000810       0x20 bin/blib.a(ata.o)
 .debug_aranges
                0x0000000000000830       0x20 bin/blib.a(scsi.o)
 .debug_aranges
                0x0000000000000850       0x20 bin/blib.a(md5.o)
 .debug_aranges
                0x0000000000000870       0x20 bin/blib.a(chap.o)
 .debug_aranges
                0x0000000000000890       0x20 bin/blib.a(shell_banner.o)
 .debug_aranges
                0x00000000000008b0       0x20 bin/blib.a(strerror.o)
 .debug_aranges
                0x00000000000008d0       0x20 bin/blib.a(shell.o)
 .debug_aranges
                0x00000000000008f0       0x20 bin/blib.a(image_cmd.o)
 .debug_aranges
                0x0000000000000910       0x20 bin/blib.a(route_cmd.o)
 .debug_aranges
                0x0000000000000930       0x20 bin/blib.a(dhcp_cmd.o)
 .debug_aranges
                0x0000000000000950       0x20 bin/blib.a(autoboot_cmd.o)
 .debug_aranges
                0x0000000000000970       0x20 bin/blib.a(ifmgmt_cmd.o)
 .debug_aranges
                0x0000000000000990       0x20 bin/blib.a(sanboot_cmd.o)
 .debug_aranges
                0x00000000000009b0       0x20 bin/blib.a(login_cmd.o)
 .debug_aranges
                0x00000000000009d0       0x20 bin/blib.a(config_cmd.o)
 .debug_aranges
                0x00000000000009f0       0x20 bin/blib.a(nvo_cmd.o)
 .debug_aranges
                0x0000000000000a10       0x20 bin/blib.a(settings_ui.o)
 .debug_aranges
                0x0000000000000a30       0x20 bin/blib.a(login_ui.o)
 .debug_aranges
                0x0000000000000a50       0x20 bin/blib.a(colour.o)
 .debug_aranges
                0x0000000000000a70       0x20 bin/blib.a(print.o)
 .debug_aranges
                0x0000000000000a90       0x20 bin/blib.a(mucurses.o)
 .debug_aranges
                0x0000000000000ab0       0x20 bin/blib.a(wininit.o)
 .debug_aranges
                0x0000000000000ad0       0x20 bin/blib.a(winattrs.o)
 .debug_aranges
                0x0000000000000af0       0x20 bin/blib.a(ansi_screen.o)
 .debug_aranges
                0x0000000000000b10       0x20 bin/blib.a(clear.o)
 .debug_aranges
                0x0000000000000b30       0x20 bin/blib.a(editbox.o)
 .debug_aranges
                0x0000000000000b50       0x20 bin/blib.a(autoboot.o)
 .debug_aranges
                0x0000000000000b70       0x20 bin/blib.a(ifmgmt.o)
 .debug_aranges
                0x0000000000000b90       0x20 bin/blib.a(dhcpmgmt.o)
 .debug_aranges
                0x0000000000000bb0       0x20 bin/blib.a(pxemenu.o)
 .debug_aranges
                0x0000000000000bd0       0x20 bin/blib.a(imgmgmt.o)
 .debug_aranges
                0x0000000000000bf0       0x20 bin/blib.a(route.o)
 .debug_aranges
                0x0000000000000c10       0x20 bin/blib.a(relocate.o)
 .debug_aranges
                0x0000000000000c30       0x20 bin/blib.a(timer2.o)
 .debug_aranges
                0x0000000000000c50       0x20 bin/blib.a(librm_mgmt.o)
 .debug_aranges
                0x0000000000000c70       0x20 bin/blib.a(gateA20.o)
 .debug_aranges
                0x0000000000000c90       0x20 bin/blib.a(memmap.o)
 .debug_aranges
                0x0000000000000cb0       0x20 bin/blib.a(bootsector.o)
 .debug_aranges
                0x0000000000000cd0       0x20 bin/blib.a(undinet.o)
 .debug_aranges
                0x0000000000000cf0       0x20 bin/blib.a(abft.o)
 .debug_aranges
                0x0000000000000d10       0x20 bin/blib.a(memtop_umalloc.o)
 .debug_aranges
                0x0000000000000d30       0x20 bin/blib.a(biosint.o)
 .debug_aranges
                0x0000000000000d50       0x20 bin/blib.a(bios_timer.o)
 .debug_aranges
                0x0000000000000d70       0x20 bin/blib.a(bios_nap.o)
 .debug_aranges
                0x0000000000000d90       0x20 bin/blib.a(pxe_udp.o)
 .debug_aranges
                0x0000000000000db0       0x20 bin/blib.a(pxe_undi.o)
 .debug_aranges
                0x0000000000000dd0       0x20 bin/blib.a(pxe_loader.o)
 .debug_aranges
                0x0000000000000df0       0x20 bin/blib.a(pxe_preboot.o)
 .debug_aranges
                0x0000000000000e10       0x20 bin/blib.a(pxe_tftp.o)
 .debug_aranges
                0x0000000000000e30       0x20 bin/blib.a(pxe_file.o)
 .debug_aranges
                0x0000000000000e50       0x20 bin/blib.a(pxeparent_dhcp.o)
 .debug_aranges
                0x0000000000000e70       0x20 bin/blib.a(pxeparent.o)
 .debug_aranges
                0x0000000000000e90       0x20 bin/blib.a(ctype.o)
 .debug_aranges
                0x0000000000000eb0       0x20 bin/blib.a(getkey.o)
 .debug_aranges
                0x0000000000000ed0       0x20 bin/blib.a(getopt.o)
 .debug_aranges
                0x0000000000000ef0       0x20 bin/blib.a(bitmap.o)
 .debug_aranges
                0x0000000000000f10       0x20 bin/blib.a(downloader.o)
 .debug_aranges
                0x0000000000000f30       0x20 bin/blib.a(xfer.o)
 .debug_aranges
                0x0000000000000f50       0x20 bin/blib.a(linebuf.o)
 .debug_aranges
                0x0000000000000f70       0x20 bin/blib.a(base64.o)
 .debug_aranges
                0x0000000000000f90       0x20 bin/blib.a(job.o)
 .debug_aranges
                0x0000000000000fb0       0x20 bin/blib.a(monojob.o)
 .debug_aranges
                0x0000000000000fd0       0x20 bin/blib.a(random.o)
 .debug_aranges
                0x0000000000000ff0       0x20 bin/blib.a(fakedhcp.o)
 .debug_aranges
                0x0000000000001010       0x20 bin/blib.a(tcp.o)
 .debug_aranges
                0x0000000000001030       0x20 bin/blib.a(arp.o)
 .debug_aranges
                0x0000000000001050       0x20 bin/blib.a(ethernet.o)
 .debug_aranges
                0x0000000000001070       0x20 bin/blib.a(tcpip.o)
 .debug_aranges
                0x0000000000001090       0x20 bin/blib.a(tls.o)
 .debug_aranges
                0x00000000000010b0       0x20 bin/blib.a(rarp.o)
 .debug_aranges
                0x00000000000010d0       0x20 bin/blib.a(nullnet.o)
 .debug_aranges
                0x00000000000010f0       0x20 bin/blib.a(dhcppkt.o)
 .debug_aranges
                0x0000000000001110       0x20 bin/blib.a(cachedhcp.o)
 .debug_aranges
                0x0000000000001130       0x20 bin/blib.a(udp.o)
 .debug_aranges
                0x0000000000001150       0x20 bin/blib.a(dhcpopts.o)
 .debug_aranges
                0x0000000000001170       0x20 bin/blib.a(dhcp.o)
 .debug_aranges
                0x0000000000001190       0x20 bin/blib.a(smbios_settings.o)
 .debug_aranges
                0x00000000000011b0       0x20 bin/blib.a(axtls_sha1.o)
 .debug_aranges
                0x00000000000011d0       0x20 bin/blib.a(axtls_aes.o)
 .debug_aranges
                0x00000000000011f0       0x20 bin/blib.a(hmac.o)
 .debug_aranges
                0x0000000000001210       0x20 bin/blib.a(crypto_null.o)
 .debug_aranges
                0x0000000000001230       0x20 bin/blib.a(x509.o)
 .debug_aranges
                0x0000000000001250       0x20 bin/blib.a(aes.o)
 .debug_aranges
                0x0000000000001270       0x20 bin/blib.a(sha1.o)
 .debug_aranges
                0x0000000000001290       0x20 bin/blib.a(rsa.o)
 .debug_aranges
                0x00000000000012b0       0x20 bin/blib.a(bigint.o)
 .debug_aranges
                0x00000000000012d0       0x20 bin/blib.a(editstring.o)
 .debug_aranges
                0x00000000000012f0       0x20 bin/blib.a(readline.o)
 .debug_aranges
                0x0000000000001310       0x20 bin/blib.a(pic8259.o)
 .debug_aranges
                0x0000000000001330       0x18 bin/blib.a(basemem_packet.o)
 .debug_aranges
                0x0000000000001348       0x20 bin/blib.a(pnpbios.o)
 .debug_aranges
                0x0000000000001368       0x20 bin/blib.a(hidemem.o)
 .debug_aranges
                0x0000000000001388       0x20 bin/blib.a(__udivdi3.o)
 .debug_aranges
                0x00000000000013a8       0x20 bin/blib.a(__umoddi3.o)
 .debug_aranges
                0x00000000000013c8       0x20 bin/blib.a(__udivmoddi4.o)
 .debug_aranges
                0x00000000000013e8       0x20 bin/blib.a(filter.o)
 .debug_aranges
                0x0000000000001408       0x20 bin/blib.a(smbios.o)
 .debug_aranges
                0x0000000000001428       0x20 bin/blib.a(cbc.o)
 .debug_aranges
                0x0000000000001448       0x20 bin/blib.a(asn1.o)
 .debug_aranges
                0x0000000000001468       0x20 bin/blib.a(bios_smbios.o)

.debug_line     0x0000000000000000    0x118ed
 .debug_line    0x0000000000000000       0x46 bin/blib.a(config.o)
 .debug_line    0x0000000000000046      0x16b bin/blib.a(bios_console.o)
 .debug_line    0x00000000000001b1      0x23e bin/blib.a(comboot.o)
 .debug_line    0x00000000000003ef      0x331 bin/blib.a(bzimage.o)
 .debug_line    0x0000000000000720      0x181 bin/blib.a(elfboot.o)
 .debug_line    0x00000000000008a1      0x2d7 bin/blib.a(multiboot.o)
 .debug_line    0x0000000000000b78      0x1ac bin/blib.a(pxe_image.o)
 .debug_line    0x0000000000000d24      0x22e bin/blib.a(com32.o)
 .debug_line    0x0000000000000f52      0x190 bin/blib.a(undionly.o)
 .debug_line    0x00000000000010e2      0x120 bin/blib.a(undipreload.o)
 .debug_line    0x0000000000001202      0x226 bin/blib.a(iscsiboot.o)
 .debug_line    0x0000000000001428      0x29b bin/blib.a(ibft.o)
 .debug_line    0x00000000000016c3      0x1d1 bin/blib.a(aoeboot.o)
 .debug_line    0x0000000000001894      0x337 bin/blib.a(int13.o)
 .debug_line    0x0000000000001bcb      0x15a bin/blib.a(keepsan.o)
 .debug_line    0x0000000000001d25      0x1fe bin/blib.a(pxe_call.o)
 .debug_line    0x0000000000001f23      0x151 bin/blib.a(comboot_resolv.o)
 .debug_line    0x0000000000002074      0x192 bin/blib.a(com32_call.o)
 .debug_line    0x0000000000002206      0x44f bin/blib.a(comboot_call.o)
 .debug_line    0x0000000000002655      0x158 bin/blib.a(pxe_cmd.o)
 .debug_line    0x00000000000027ad       0xb9 bin/blib.a(x86_string.o)
 .debug_line    0x0000000000002866      0x515 bin/blib.a(settings.o)
 .debug_line    0x0000000000002d7b       0x91 bin/blib.a(interface.o)
 .debug_line    0x0000000000002e0c      0x29a bin/blib.a(uri.o)
 .debug_line    0x00000000000030a6       0xbe bin/blib.a(asprintf.o)
 .debug_line    0x0000000000003164      0x113 bin/blib.a(process.o)
 .debug_line    0x0000000000003277       0x84 bin/blib.a(refcnt.o)
 .debug_line    0x00000000000032fb       0xaa bin/blib.a(init.o)
 .debug_line    0x00000000000033a5      0x173 bin/blib.a(string.o)
 .debug_line    0x0000000000003518      0x190 bin/blib.a(vsprintf.o)
 .debug_line    0x00000000000036a8      0x2e0 bin/blib.a(posix_io.o)
 .debug_line    0x0000000000003988       0xe1 bin/blib.a(console.o)
 .debug_line    0x0000000000003a69      0x197 bin/blib.a(open.o)
 .debug_line    0x0000000000003c00       0xa1 bin/blib.a(acpi.o)
 .debug_line    0x0000000000003ca1      0x2a1 bin/blib.a(resolv.o)
 .debug_line    0x0000000000003f42       0xea bin/blib.a(misc.o)
 .debug_line    0x000000000000402c       0x8e bin/blib.a(cwuri.o)
 .debug_line    0x00000000000040ba      0x19c bin/blib.a(main.o)
 .debug_line    0x0000000000004256      0x208 bin/blib.a(malloc.o)
 .debug_line    0x000000000000445e       0xf8 bin/blib.a(ansiesc.o)
 .debug_line    0x0000000000004556      0x13c bin/blib.a(device.o)
 .debug_line    0x0000000000004692      0x1e0 bin/blib.a(exec.o)
 .debug_line    0x0000000000004872      0x1c0 bin/blib.a(serial.o)
 .debug_line    0x0000000000004a32       0x9c bin/blib.a(basename.o)
 .debug_line    0x0000000000004ace       0xbb bin/blib.a(cpio.o)
 .debug_line    0x0000000000004b89       0xdc bin/blib.a(iobuf.o)
 .debug_line    0x0000000000004c65      0x25c bin/blib.a(image.o)
 .debug_line    0x0000000000004ec1       0x9c bin/blib.a(timer.o)
 .debug_line    0x0000000000004f5d       0xb7 bin/blib.a(uuid.o)
 .debug_line    0x0000000000005014      0x348 bin/blib.a(aoe.o)
 .debug_line    0x000000000000535c      0x3d0 bin/blib.a(ipv4.o)
 .debug_line    0x000000000000572c      0x347 bin/blib.a(netdevice.o)
 .debug_line    0x0000000000005a73      0x181 bin/blib.a(retry.o)
 .debug_line    0x0000000000005bf4      0x10d bin/blib.a(icmp.o)
 .debug_line    0x0000000000005d01      0x180 bin/blib.a(netdev_settings.o)
 .debug_line    0x0000000000005e81      0x7ad bin/blib.a(iscsi.o)
 .debug_line    0x000000000000662e      0x2b1 bin/blib.a(ftp.o)
 .debug_line    0x00000000000068df      0x38a bin/blib.a(http.o)
 .debug_line    0x0000000000006c69      0x19e bin/blib.a(https.o)
 .debug_line    0x0000000000006e07      0x323 bin/blib.a(dns.o)
 .debug_line    0x000000000000712a      0x547 bin/blib.a(tftp.o)
 .debug_line    0x0000000000007671      0x172 bin/blib.a(script.o)
 .debug_line    0x00000000000077e3      0x172 bin/blib.a(elf.o)
 .debug_line    0x0000000000007955      0x146 bin/blib.a(segment.o)
 .debug_line    0x0000000000007a9b      0x113 bin/blib.a(embedded.o)
 .debug_line    0x0000000000007bae      0x1a9 bin/blib.a(ata.o)
 .debug_line    0x0000000000007d57      0x2ae bin/blib.a(scsi.o)
 .debug_line    0x0000000000008005      0x171 bin/blib.a(md5.o)
 .debug_line    0x0000000000008176      0x124 bin/blib.a(chap.o)
 .debug_line    0x000000000000829a       0x67 bin/blib.a(shell_banner.o)
 .debug_line    0x0000000000008301       0xca bin/blib.a(strerror.o)
 .debug_line    0x00000000000083cb       0xd1 bin/blib.a(shell.o)
 .debug_line    0x000000000000849c      0x289 bin/blib.a(image_cmd.o)
 .debug_line    0x0000000000008725       0xc1 bin/blib.a(route_cmd.o)
 .debug_line    0x00000000000087e6      0x191 bin/blib.a(dhcp_cmd.o)
 .debug_line    0x0000000000008977       0xaf bin/blib.a(autoboot_cmd.o)
 .debug_line    0x0000000000008a26      0x153 bin/blib.a(ifmgmt_cmd.o)
 .debug_line    0x0000000000008b79       0xf7 bin/blib.a(sanboot_cmd.o)
 .debug_line    0x0000000000008c70       0xc4 bin/blib.a(login_cmd.o)
 .debug_line    0x0000000000008d34      0x122 bin/blib.a(config_cmd.o)
 .debug_line    0x0000000000008e56      0x13b bin/blib.a(nvo_cmd.o)
 .debug_line    0x0000000000008f91      0x2fd bin/blib.a(settings_ui.o)
 .debug_line    0x000000000000928e      0x1a4 bin/blib.a(login_ui.o)
 .debug_line    0x0000000000009432       0xa2 bin/blib.a(colour.o)
 .debug_line    0x00000000000094d4       0xe2 bin/blib.a(print.o)
 .debug_line    0x00000000000095b6      0x102 bin/blib.a(mucurses.o)
 .debug_line    0x00000000000096b8       0xc2 bin/blib.a(wininit.o)
 .debug_line    0x000000000000977a       0xce bin/blib.a(winattrs.o)
 .debug_line    0x0000000000009848       0xdc bin/blib.a(ansi_screen.o)
 .debug_line    0x0000000000009924       0xee bin/blib.a(clear.o)
 .debug_line    0x0000000000009a12      0x167 bin/blib.a(editbox.o)
 .debug_line    0x0000000000009b79      0x287 bin/blib.a(autoboot.o)
 .debug_line    0x0000000000009e00      0x19e bin/blib.a(ifmgmt.o)
 .debug_line    0x0000000000009f9e      0x171 bin/blib.a(dhcpmgmt.o)
 .debug_line    0x000000000000a10f      0x2ea bin/blib.a(pxemenu.o)
 .debug_line    0x000000000000a3f9      0x195 bin/blib.a(imgmgmt.o)
 .debug_line    0x000000000000a58e       0xfa bin/blib.a(route.o)
 .debug_line    0x000000000000a688      0x13d bin/blib.a(relocate.o)
 .debug_line    0x000000000000a7c5      0x11b bin/blib.a(timer2.o)
 .debug_line    0x000000000000a8e0      0x134 bin/blib.a(librm_mgmt.o)
 .debug_line    0x000000000000aa14      0x1d1 bin/blib.a(gateA20.o)
 .debug_line    0x000000000000abe5      0x1aa bin/blib.a(memmap.o)
 .debug_line    0x000000000000ad8f      0x107 bin/blib.a(bootsector.o)
 .debug_line    0x000000000000ae96      0x45f bin/blib.a(undinet.o)
 .debug_line    0x000000000000b2f5      0x179 bin/blib.a(abft.o)
 .debug_line    0x000000000000b46e      0x1d5 bin/blib.a(memtop_umalloc.o)
 .debug_line    0x000000000000b643      0x17e bin/blib.a(biosint.o)
 .debug_line    0x000000000000b7c1      0x122 bin/blib.a(bios_timer.o)
 .debug_line    0x000000000000b8e3       0xb7 bin/blib.a(bios_nap.o)
 .debug_line    0x000000000000b99a      0x21a bin/blib.a(pxe_udp.o)
 .debug_line    0x000000000000bbb4      0x3d3 bin/blib.a(pxe_undi.o)
 .debug_line    0x000000000000bf87      0x12e bin/blib.a(pxe_loader.o)
 .debug_line    0x000000000000c0b5      0x201 bin/blib.a(pxe_preboot.o)
 .debug_line    0x000000000000c2b6      0x28f bin/blib.a(pxe_tftp.o)
 .debug_line    0x000000000000c545      0x235 bin/blib.a(pxe_file.o)
 .debug_line    0x000000000000c77a      0x1bf bin/blib.a(pxeparent_dhcp.o)
 .debug_line    0x000000000000c939      0x177 bin/blib.a(pxeparent.o)
 .debug_line    0x000000000000cab0       0x57 bin/blib.a(ctype.o)
 .debug_line    0x000000000000cb07       0xc9 bin/blib.a(getkey.o)
 .debug_line    0x000000000000cbd0      0x13b bin/blib.a(getopt.o)
 .debug_line    0x000000000000cd0b       0xd1 bin/blib.a(bitmap.o)
 .debug_line    0x000000000000cddc      0x219 bin/blib.a(downloader.o)
 .debug_line    0x000000000000cff5      0x23c bin/blib.a(xfer.o)
 .debug_line    0x000000000000d231       0xfd bin/blib.a(linebuf.o)
 .debug_line    0x000000000000d32e       0xf3 bin/blib.a(base64.o)
 .debug_line    0x000000000000d421      0x15e bin/blib.a(job.o)
 .debug_line    0x000000000000d57f      0x141 bin/blib.a(monojob.o)
 .debug_line    0x000000000000d6c0       0x9f bin/blib.a(random.o)
 .debug_line    0x000000000000d75f      0x1a0 bin/blib.a(fakedhcp.o)
 .debug_line    0x000000000000d8ff      0x57b bin/blib.a(tcp.o)
 .debug_line    0x000000000000de7a      0x21f bin/blib.a(arp.o)
 .debug_line    0x000000000000e099      0x189 bin/blib.a(ethernet.o)
 .debug_line    0x000000000000e222      0x14b bin/blib.a(tcpip.o)
 .debug_line    0x000000000000e36d      0x667 bin/blib.a(tls.o)
 .debug_line    0x000000000000e9d4       0xcf bin/blib.a(rarp.o)
 .debug_line    0x000000000000eaa3       0xd1 bin/blib.a(nullnet.o)
 .debug_line    0x000000000000eb74      0x1b8 bin/blib.a(dhcppkt.o)
 .debug_line    0x000000000000ed2c      0x18e bin/blib.a(cachedhcp.o)
 .debug_line    0x000000000000eeba      0x2d8 bin/blib.a(udp.o)
 .debug_line    0x000000000000f192      0x228 bin/blib.a(dhcpopts.o)
 .debug_line    0x000000000000f3ba      0x5ee bin/blib.a(dhcp.o)
 .debug_line    0x000000000000f9a8      0x147 bin/blib.a(smbios_settings.o)
 .debug_line    0x000000000000faef       0xee bin/blib.a(axtls_sha1.o)
 .debug_line    0x000000000000fbdd      0x17e bin/blib.a(axtls_aes.o)
 .debug_line    0x000000000000fd5b      0x12b bin/blib.a(hmac.o)
 .debug_line    0x000000000000fe86       0xce bin/blib.a(crypto_null.o)
 .debug_line    0x000000000000ff54      0x15a bin/blib.a(x509.o)
 .debug_line    0x00000000000100ae      0x206 bin/blib.a(aes.o)
 .debug_line    0x00000000000102b4      0x1af bin/blib.a(sha1.o)
 .debug_line    0x0000000000010463      0x19c bin/blib.a(rsa.o)
 .debug_line    0x00000000000105ff      0x3e5 bin/blib.a(bigint.o)
 .debug_line    0x00000000000109e4      0x15f bin/blib.a(editstring.o)
 .debug_line    0x0000000000010b43      0x11a bin/blib.a(readline.o)
 .debug_line    0x0000000000010c5d      0x105 bin/blib.a(pic8259.o)
 .debug_line    0x0000000000010d62       0xd8 bin/blib.a(basemem_packet.o)
 .debug_line    0x0000000000010e3a      0x150 bin/blib.a(pnpbios.o)
 .debug_line    0x0000000000010f8a      0x1b6 bin/blib.a(hidemem.o)
 .debug_line    0x0000000000011140       0x93 bin/blib.a(__udivdi3.o)
 .debug_line    0x00000000000111d3       0x94 bin/blib.a(__umoddi3.o)
 .debug_line    0x0000000000011267       0x9a bin/blib.a(__udivmoddi4.o)
 .debug_line    0x0000000000011301       0xf2 bin/blib.a(filter.o)
 .debug_line    0x00000000000113f3      0x183 bin/blib.a(smbios.o)
 .debug_line    0x0000000000011576      0x112 bin/blib.a(cbc.o)
 .debug_line    0x0000000000011688       0xf0 bin/blib.a(asn1.o)
 .debug_line    0x0000000000011778      0x175 bin/blib.a(bios_smbios.o)

.debug_str      0x0000000000000000     0xb5dd
 .debug_str     0x0000000000000000      0x6b5 bin/blib.a(config.o)
                                        0x6ba (size before relaxing)
 .debug_str     0x00000000000006b5      0x26c bin/blib.a(bios_console.o)
                                        0x463 (size before relaxing)
 .debug_str     0x0000000000000921      0x622 bin/blib.a(comboot.o)
                                        0xa6b (size before relaxing)
 .debug_str     0x0000000000000f43      0x3dd bin/blib.a(bzimage.o)
                                        0xc67 (size before relaxing)
 .debug_str     0x0000000000001320      0x11e bin/blib.a(elfboot.o)
                                        0x95b (size before relaxing)
 .debug_str     0x000000000000143e      0x3ed bin/blib.a(multiboot.o)
                                        0xcf1 (size before relaxing)
 .debug_str     0x000000000000182b      0x2f8 bin/blib.a(pxe_image.o)
                                        0xb2e (size before relaxing)
 .debug_str     0x0000000000001b23       0xaf bin/blib.a(com32.o)
                                        0x673 (size before relaxing)
 .debug_str     0x0000000000001bd2      0x142 bin/blib.a(undionly.o)
                                        0x535 (size before relaxing)
 .debug_str     0x0000000000001d14       0x50 bin/blib.a(undipreload.o)
                                        0x406 (size before relaxing)
 .debug_str     0x0000000000001d64      0x62e bin/blib.a(iscsiboot.o)
                                        0xf94 (size before relaxing)
 .debug_str     0x0000000000002392      0x3e3 bin/blib.a(ibft.o)
                                       0x127b (size before relaxing)
 .debug_str     0x0000000000002775      0x13c bin/blib.a(aoeboot.o)
                                        0x9c6 (size before relaxing)
 .debug_str     0x00000000000028b1      0x41e bin/blib.a(int13.o)
                                        0x869 (size before relaxing)
 .debug_str     0x0000000000002ccf       0x69 bin/blib.a(keepsan.o)
                                        0x571 (size before relaxing)
 .debug_str     0x0000000000002d38      0x8fd bin/blib.a(pxe_call.o)
                                       0x1293 (size before relaxing)
 .debug_str     0x0000000000003635       0xe3 bin/blib.a(comboot_resolv.o)
                                        0x3d5 (size before relaxing)
 .debug_str     0x0000000000003718      0x130 bin/blib.a(com32_call.o)
                                        0x46e (size before relaxing)
 .debug_str     0x0000000000003848      0x2bb bin/blib.a(comboot_call.o)
                                        0x90f (size before relaxing)
 .debug_str     0x0000000000003b03       0x72 bin/blib.a(pxe_cmd.o)
                                        0x534 (size before relaxing)
 .debug_str     0x0000000000003b75       0x36 bin/blib.a(x86_string.o)
                                        0x244 (size before relaxing)
 .debug_str     0x0000000000003bab      0x58c bin/blib.a(settings.o)
                                        0xe89 (size before relaxing)
 .debug_str     0x0000000000004137       0x31 bin/blib.a(interface.o)
                                        0x1e1 (size before relaxing)
 .debug_str     0x0000000000004168      0x157 bin/blib.a(uri.o)
                                        0x5aa (size before relaxing)
 .debug_str     0x00000000000042bf       0x3f bin/blib.a(asprintf.o)
                                        0x267 (size before relaxing)
 .debug_str     0x00000000000042fe       0x5c bin/blib.a(process.o)
                                        0x309 (size before relaxing)
 .debug_str     0x000000000000435a       0x19 bin/blib.a(refcnt.o)
                                        0x218 (size before relaxing)
 .debug_str     0x0000000000004373       0x1d bin/blib.a(init.o)
                                        0x24e (size before relaxing)
 .debug_str     0x0000000000004390       0x37 bin/blib.a(string.o)
                                        0x2e8 (size before relaxing)
 .debug_str     0x00000000000043c7       0xcc bin/blib.a(vsprintf.o)
                                        0x360 (size before relaxing)
 .debug_str     0x0000000000004493      0x147 bin/blib.a(posix_io.o)
                                        0x693 (size before relaxing)
 .debug_str     0x00000000000045da       0x25 bin/blib.a(console.o)
                                        0x276 (size before relaxing)
 .debug_str     0x00000000000045ff       0xa6 bin/blib.a(open.o)
                                        0x50e (size before relaxing)
 .debug_str     0x00000000000046a5       0x15 bin/blib.a(acpi.o)
                                        0x297 (size before relaxing)
 .debug_str     0x00000000000046ba      0x1ab bin/blib.a(resolv.o)
                                        0x73a (size before relaxing)
 .debug_str     0x0000000000004865       0x32 bin/blib.a(misc.o)
                                        0x271 (size before relaxing)
 .debug_str     0x0000000000004897       0x1d bin/blib.a(cwuri.o)
                                        0x279 (size before relaxing)
 .debug_str     0x00000000000048b4       0x21 bin/blib.a(main.o)
                                        0x7fd (size before relaxing)
 .debug_str     0x00000000000048d5      0x12c bin/blib.a(malloc.o)
                                        0x4fa (size before relaxing)
 .debug_str     0x0000000000004a01       0x36 bin/blib.a(ansiesc.o)
                                        0x2a6 (size before relaxing)
 .debug_str     0x0000000000004a37       0x58 bin/blib.a(device.o)
                                        0x3ce (size before relaxing)
 .debug_str     0x0000000000004a8f       0x92 bin/blib.a(exec.o)
                                        0x5b2 (size before relaxing)
 .debug_str     0x0000000000004b21       0x89 bin/blib.a(serial.o)
                                        0x350 (size before relaxing)
 .debug_str     0x0000000000004baa       0x27 bin/blib.a(basename.o)
                                        0x249 (size before relaxing)
 .debug_str     0x0000000000004bd1       0x15 bin/blib.a(cpio.o)
                                        0x282 (size before relaxing)
 .debug_str     0x0000000000004be6       0x57 bin/blib.a(iobuf.o)
                                        0x2c5 (size before relaxing)
 .debug_str     0x0000000000004c3d       0xab bin/blib.a(image.o)
                                        0x519 (size before relaxing)
 .debug_str     0x0000000000004ce8       0x37 bin/blib.a(timer.o)
                                        0x236 (size before relaxing)
 .debug_str     0x0000000000004d1f       0x15 bin/blib.a(uuid.o)
                                        0x258 (size before relaxing)
 .debug_str     0x0000000000004d34      0x1ca bin/blib.a(aoe.o)
                                        0xbf8 (size before relaxing)
 .debug_str     0x0000000000004efe      0x2a9 bin/blib.a(ipv4.o)
                                        0xc4e (size before relaxing)
 .debug_str     0x00000000000051a7      0x1b4 bin/blib.a(netdevice.o)
                                        0xa12 (size before relaxing)
 .debug_str     0x000000000000535b       0x6a bin/blib.a(retry.o)
                                        0x350 (size before relaxing)
 .debug_str     0x00000000000053c5       0x3e bin/blib.a(icmp.o)
                                        0x36b (size before relaxing)
 .debug_str     0x0000000000005403       0x6c bin/blib.a(netdev_settings.o)
                                        0x807 (size before relaxing)
 .debug_str     0x000000000000546f      0x669 bin/blib.a(iscsi.o)
                                       0x17f4 (size before relaxing)
 .debug_str     0x0000000000005ad8      0x207 bin/blib.a(ftp.o)
                                        0xbc3 (size before relaxing)
 .debug_str     0x0000000000005cdf      0x280 bin/blib.a(http.o)
                                        0xe4f (size before relaxing)
 .debug_str     0x0000000000005f5f       0xd3 bin/blib.a(https.o)
                                        0x8fd (size before relaxing)
 .debug_str     0x0000000000006032      0x255 bin/blib.a(dns.o)
                                        0xcbc (size before relaxing)
 .debug_str     0x0000000000006287      0x472 bin/blib.a(tftp.o)
                                       0x1086 (size before relaxing)
 .debug_str     0x00000000000066f9       0x54 bin/blib.a(script.o)
                                        0x473 (size before relaxing)
 .debug_str     0x000000000000674d       0x7e bin/blib.a(elf.o)
                                        0x557 (size before relaxing)
 .debug_str     0x00000000000067cb       0x2b bin/blib.a(segment.o)
                                        0x370 (size before relaxing)
 .debug_str     0x00000000000067f6       0xb6 bin/blib.a(embedded.o)
                                        0x2c5 (size before relaxing)
 .debug_str     0x00000000000068ac       0xbd bin/blib.a(ata.o)
                                        0x4c4 (size before relaxing)
 .debug_str     0x0000000000006969      0x120 bin/blib.a(scsi.o)
                                        0x61f (size before relaxing)
 .debug_str     0x0000000000006a89       0xc3 bin/blib.a(md5.o)
                                        0x415 (size before relaxing)
 .debug_str     0x0000000000006b4c       0x48 bin/blib.a(chap.o)
                                        0x3a9 (size before relaxing)
 .debug_str     0x0000000000006b94       0x3b bin/blib.a(shell_banner.o)
                                        0x234 (size before relaxing)
 .debug_str     0x0000000000006bcf       0x4f bin/blib.a(strerror.o)
                                        0x2a5 (size before relaxing)
 .debug_str     0x0000000000006c1e       0x60 bin/blib.a(shell.o)
                                        0x28b (size before relaxing)
 .debug_str     0x0000000000006c7e      0x1e5 bin/blib.a(image_cmd.o)
                                        0x5da (size before relaxing)
 .debug_str     0x0000000000006e63       0x40 bin/blib.a(route_cmd.o)
                                        0x2aa (size before relaxing)
 .debug_str     0x0000000000006ea3       0x75 bin/blib.a(dhcp_cmd.o)
                                        0x793 (size before relaxing)
 .debug_str     0x0000000000006f18       0x3b bin/blib.a(autoboot_cmd.o)
                                        0x283 (size before relaxing)
 .debug_str     0x0000000000006f53       0xe7 bin/blib.a(ifmgmt_cmd.o)
                                        0x7a6 (size before relaxing)
 .debug_str     0x000000000000703a       0x56 bin/blib.a(sanboot_cmd.o)
                                        0x31a (size before relaxing)
 .debug_str     0x0000000000007090       0x32 bin/blib.a(login_cmd.o)
                                        0x279 (size before relaxing)
 .debug_str     0x00000000000070c2       0x35 bin/blib.a(config_cmd.o)
                                        0x51c (size before relaxing)
 .debug_str     0x00000000000070f7       0x57 bin/blib.a(nvo_cmd.o)
                                        0x57d (size before relaxing)
 .debug_str     0x000000000000714e      0x249 bin/blib.a(settings_ui.o)
                                        0x864 (size before relaxing)
 .debug_str     0x0000000000007397       0x63 bin/blib.a(login_ui.o)
                                        0x6d4 (size before relaxing)
 .debug_str     0x00000000000073fa       0x6b bin/blib.a(colour.o)
                                        0x30c (size before relaxing)
 .debug_str     0x0000000000007465       0x77 bin/blib.a(print.o)
                                        0x378 (size before relaxing)
 .debug_str     0x00000000000074dc       0x51 bin/blib.a(mucurses.o)
                                        0x306 (size before relaxing)
 .debug_str     0x000000000000752d       0x2c bin/blib.a(wininit.o)
                                        0x324 (size before relaxing)
 .debug_str     0x0000000000007559       0x54 bin/blib.a(winattrs.o)
                                        0x328 (size before relaxing)
 .debug_str     0x00000000000075ad       0x76 bin/blib.a(ansi_screen.o)
                                        0x352 (size before relaxing)
 .debug_str     0x0000000000007623       0x67 bin/blib.a(clear.o)
                                        0x328 (size before relaxing)
 .debug_str     0x000000000000768a       0x4c bin/blib.a(editbox.o)
                                        0x3f4 (size before relaxing)
 .debug_str     0x00000000000076d6      0x15c bin/blib.a(autoboot.o)
                                        0xb68 (size before relaxing)
 .debug_str     0x0000000000007832       0x58 bin/blib.a(ifmgmt.o)
                                        0x745 (size before relaxing)
 .debug_str     0x000000000000788a       0x5a bin/blib.a(dhcpmgmt.o)
                                        0x757 (size before relaxing)
 .debug_str     0x00000000000078e4      0x164 bin/blib.a(pxemenu.o)
                                        0xac3 (size before relaxing)
 .debug_str     0x0000000000007a48       0x5e bin/blib.a(imgmgmt.o)
                                        0x5d2 (size before relaxing)
 .debug_str     0x0000000000007aa6       0x16 bin/blib.a(route.o)
                                        0x709 (size before relaxing)
 .debug_str     0x0000000000007abc       0x69 bin/blib.a(relocate.o)
                                        0x3d7 (size before relaxing)
 .debug_str     0x0000000000007b25       0x3e bin/blib.a(timer2.o)
                                        0x2e5 (size before relaxing)
 .debug_str     0x0000000000007b63       0x32 bin/blib.a(librm_mgmt.o)
                                        0x389 (size before relaxing)
 .debug_str     0x0000000000007b95      0x156 bin/blib.a(gateA20.o)
                                        0x507 (size before relaxing)
 .debug_str     0x0000000000007ceb       0xe2 bin/blib.a(memmap.o)
                                        0x4d1 (size before relaxing)
 .debug_str     0x0000000000007dcd       0x65 bin/blib.a(bootsector.o)
                                        0x351 (size before relaxing)
 .debug_str     0x0000000000007e32      0x341 bin/blib.a(undinet.o)
                                       0x10e9 (size before relaxing)
 .debug_str     0x0000000000008173       0x50 bin/blib.a(abft.o)
                                        0x902 (size before relaxing)
 .debug_str     0x00000000000081c3       0xaa bin/blib.a(memtop_umalloc.o)
                                        0x4b8 (size before relaxing)
 .debug_str     0x000000000000826d       0x3e bin/blib.a(biosint.o)
                                        0x444 (size before relaxing)
 .debug_str     0x00000000000082ab       0x54 bin/blib.a(bios_timer.o)
                                        0x3d5 (size before relaxing)
 .debug_str     0x00000000000082ff       0x40 bin/blib.a(bios_nap.o)
                                        0x245 (size before relaxing)
 .debug_str     0x000000000000833f       0xe3 bin/blib.a(pxe_udp.o)
                                        0x70c (size before relaxing)
 .debug_str     0x0000000000008422      0x299 bin/blib.a(pxe_undi.o)
                                       0x111a (size before relaxing)
 .debug_str     0x00000000000086bb       0x34 bin/blib.a(pxe_loader.o)
                                        0x539 (size before relaxing)
 .debug_str     0x00000000000086ef      0x241 bin/blib.a(pxe_preboot.o)
                                        0xb9b (size before relaxing)
 .debug_str     0x0000000000008930      0x10c bin/blib.a(pxe_tftp.o)
                                        0x856 (size before relaxing)
 .debug_str     0x0000000000008a3c      0x139 bin/blib.a(pxe_file.o)
                                        0x986 (size before relaxing)
 .debug_str     0x0000000000008b75       0x6d bin/blib.a(pxeparent_dhcp.o)
                                        0x6e0 (size before relaxing)
 .debug_str     0x0000000000008be2       0x7a bin/blib.a(pxeparent.o)
                                       0x10f2 (size before relaxing)
 .debug_str     0x0000000000008c5c       0x17 bin/blib.a(ctype.o)
                                        0x173 (size before relaxing)
 .debug_str     0x0000000000008c73       0x30 bin/blib.a(getkey.o)
                                        0x260 (size before relaxing)
 .debug_str     0x0000000000008ca3       0x84 bin/blib.a(getopt.o)
                                        0x35c (size before relaxing)
 .debug_str     0x0000000000008d27       0x59 bin/blib.a(bitmap.o)
                                        0x2c0 (size before relaxing)
 .debug_str     0x0000000000008d80      0x15c bin/blib.a(downloader.o)
                                        0x748 (size before relaxing)
 .debug_str     0x0000000000008edc      0x10c bin/blib.a(xfer.o)
                                        0x5b1 (size before relaxing)
 .debug_str     0x0000000000008fe8       0x2c bin/blib.a(linebuf.o)
                                        0x2e7 (size before relaxing)
 .debug_str     0x0000000000009014       0x45 bin/blib.a(base64.o)
                                        0x27a (size before relaxing)
 .debug_str     0x0000000000009059       0x73 bin/blib.a(job.o)
                                        0x35e (size before relaxing)
 .debug_str     0x00000000000090cc       0x58 bin/blib.a(monojob.o)
                                        0x360 (size before relaxing)
 .debug_str     0x0000000000009124       0x2a bin/blib.a(random.o)
                                        0x220 (size before relaxing)
 .debug_str     0x000000000000914e       0xe1 bin/blib.a(fakedhcp.o)
                                        0x8af (size before relaxing)
 .debug_str     0x000000000000922f      0x301 bin/blib.a(tcp.o)
                                        0xa45 (size before relaxing)
 .debug_str     0x0000000000009530       0xea bin/blib.a(arp.o)
                                        0x86a (size before relaxing)
 .debug_str     0x000000000000961a       0xbd bin/blib.a(ethernet.o)
                                        0x7de (size before relaxing)
 .debug_str     0x00000000000096d7       0x20 bin/blib.a(tcpip.o)
                                        0x3b6 (size before relaxing)
 .debug_str     0x00000000000096f7      0x9ab bin/blib.a(tls.o)
                                       0x118d (size before relaxing)
 .debug_str     0x000000000000a0a2       0x26 bin/blib.a(rarp.o)
                                        0x6b4 (size before relaxing)
 .debug_str     0x000000000000a0c8       0x50 bin/blib.a(nullnet.o)
                                        0x69d (size before relaxing)
 .debug_str     0x000000000000a118      0x10e bin/blib.a(dhcppkt.o)
                                        0x8e0 (size before relaxing)
 .debug_str     0x000000000000a226       0x2a bin/blib.a(cachedhcp.o)
                                        0x899 (size before relaxing)
 .debug_str     0x000000000000a250       0xe0 bin/blib.a(udp.o)
                                        0x765 (size before relaxing)
 .debug_str     0x000000000000a330      0x11d bin/blib.a(dhcpopts.o)
                                        0x8c4 (size before relaxing)
 .debug_str     0x000000000000a44d      0x440 bin/blib.a(dhcp.o)
                                       0x1237 (size before relaxing)
 .debug_str     0x000000000000a88d      0x162 bin/blib.a(smbios_settings.o)
                                        0x704 (size before relaxing)
 .debug_str     0x000000000000a9ef       0x62 bin/blib.a(axtls_sha1.o)
                                        0x339 (size before relaxing)
 .debug_str     0x000000000000aa51      0x155 bin/blib.a(axtls_aes.o)
                                        0x4fd (size before relaxing)
 .debug_str     0x000000000000aba6       0x35 bin/blib.a(hmac.o)
                                        0x39c (size before relaxing)
 .debug_str     0x000000000000abdb       0xa8 bin/blib.a(crypto_null.o)
                                        0x3a9 (size before relaxing)
 .debug_str     0x000000000000ac83       0x4f bin/blib.a(x509.o)
                                        0x333 (size before relaxing)
 .debug_str     0x000000000000acd2       0x6f bin/blib.a(aes.o)
                                        0x33a (size before relaxing)
 .debug_str     0x000000000000ad41       0x98 bin/blib.a(sha1.o)
                                        0x304 (size before relaxing)
 .debug_str     0x000000000000add9      0x18e bin/blib.a(rsa.o)
                                        0x50e (size before relaxing)
 .debug_str     0x000000000000af67      0x175 bin/blib.a(bigint.o)
                                        0x544 (size before relaxing)
 .debug_str     0x000000000000b0dc       0x94 bin/blib.a(editstring.o)
                                        0x363 (size before relaxing)
 .debug_str     0x000000000000b170       0x29 bin/blib.a(readline.o)
                                        0x2b8 (size before relaxing)
 .debug_str     0x000000000000b199       0x37 bin/blib.a(pic8259.o)
                                        0x2cd (size before relaxing)
 .debug_str     0x000000000000b1d0       0x33 bin/blib.a(basemem_packet.o)
                                        0x2b4 (size before relaxing)
 .debug_str     0x000000000000b203       0x47 bin/blib.a(pnpbios.o)
                                        0x3f5 (size before relaxing)
 .debug_str     0x000000000000b24a      0x11b bin/blib.a(hidemem.o)
                                        0x5f2 (size before relaxing)
 .debug_str     0x000000000000b365       0x21 bin/blib.a(__udivdi3.o)
                                        0x22d (size before relaxing)
 .debug_str     0x000000000000b386       0x21 bin/blib.a(__umoddi3.o)
                                        0x22d (size before relaxing)
 .debug_str     0x000000000000b3a7       0x37 bin/blib.a(__udivmoddi4.o)
                                        0x241 (size before relaxing)
 .debug_str     0x000000000000b3de       0x80 bin/blib.a(filter.o)
                                        0x43d (size before relaxing)
 .debug_str     0x000000000000b45e       0x7f bin/blib.a(smbios.o)
                                        0x4a0 (size before relaxing)
 .debug_str     0x000000000000b4dd       0x1d bin/blib.a(cbc.o)
                                        0x371 (size before relaxing)
 .debug_str     0x000000000000b4fa       0x33 bin/blib.a(asn1.o)
                                        0x271 (size before relaxing)
 .debug_str     0x000000000000b52d       0xb0 bin/blib.a(bios_smbios.o)
                                        0x40d (size before relaxing)

.debug_frame    0x0000000000000000     0xee34
 .debug_frame   0x0000000000000000      0x168 bin/blib.a(bios_console.o)
 .debug_frame   0x0000000000000168       0xd8 bin/blib.a(comboot.o)
 .debug_frame   0x0000000000000240      0x218 bin/blib.a(bzimage.o)
 .debug_frame   0x0000000000000458       0xac bin/blib.a(elfboot.o)
 .debug_frame   0x0000000000000504      0x140 bin/blib.a(multiboot.o)
 .debug_frame   0x0000000000000644       0x9c bin/blib.a(pxe_image.o)
 .debug_frame   0x00000000000006e0      0x128 bin/blib.a(com32.o)
 .debug_frame   0x0000000000000808       0x9c bin/blib.a(undionly.o)
 .debug_frame   0x00000000000008a4       0xf0 bin/blib.a(iscsiboot.o)
 .debug_frame   0x0000000000000994      0x138 bin/blib.a(ibft.o)
 .debug_frame   0x0000000000000acc       0xf0 bin/blib.a(aoeboot.o)
 .debug_frame   0x0000000000000bbc      0x260 bin/blib.a(int13.o)
 .debug_frame   0x0000000000000e1c       0x34 bin/blib.a(keepsan.o)
 .debug_frame   0x0000000000000e50      0x1d8 bin/blib.a(pxe_call.o)
 .debug_frame   0x0000000000001028       0x6c bin/blib.a(comboot_resolv.o)
 .debug_frame   0x0000000000001094       0xd0 bin/blib.a(com32_call.o)
 .debug_frame   0x0000000000001164      0x188 bin/blib.a(comboot_call.o)
 .debug_frame   0x00000000000012ec       0x54 bin/blib.a(pxe_cmd.o)
 .debug_frame   0x0000000000001340       0x48 bin/blib.a(x86_string.o)
 .debug_frame   0x0000000000001388      0xc60 bin/blib.a(settings.o)
 .debug_frame   0x0000000000001fe8       0x7c bin/blib.a(interface.o)
 .debug_frame   0x0000000000002064      0x3ac bin/blib.a(uri.o)
 .debug_frame   0x0000000000002410       0x94 bin/blib.a(asprintf.o)
 .debug_frame   0x00000000000024a4      0x108 bin/blib.a(process.o)
 .debug_frame   0x00000000000025ac       0x34 bin/blib.a(refcnt.o)
 .debug_frame   0x00000000000025e0      0x100 bin/blib.a(init.o)
 .debug_frame   0x00000000000026e0      0x268 bin/blib.a(string.o)
 .debug_frame   0x0000000000002948      0x1e4 bin/blib.a(vsprintf.o)
 .debug_frame   0x0000000000002b2c      0x280 bin/blib.a(posix_io.o)
 .debug_frame   0x0000000000002dac       0xcc bin/blib.a(console.o)
 .debug_frame   0x0000000000002e78      0x1a0 bin/blib.a(open.o)
 .debug_frame   0x0000000000003018       0x38 bin/blib.a(acpi.o)
 .debug_frame   0x0000000000003050      0x358 bin/blib.a(resolv.o)
 .debug_frame   0x00000000000033a8       0xcc bin/blib.a(misc.o)
 .debug_frame   0x0000000000003474       0x58 bin/blib.a(cwuri.o)
 .debug_frame   0x00000000000034cc       0xc0 bin/blib.a(main.o)
 .debug_frame   0x000000000000358c      0x1d4 bin/blib.a(malloc.o)
 .debug_frame   0x0000000000003760       0x48 bin/blib.a(ansiesc.o)
 .debug_frame   0x00000000000037a8       0xcc bin/blib.a(device.o)
 .debug_frame   0x0000000000003874      0x1f4 bin/blib.a(exec.o)
 .debug_frame   0x0000000000003a68       0x9c bin/blib.a(serial.o)
 .debug_frame   0x0000000000003b04       0x7c bin/blib.a(basename.o)
 .debug_frame   0x0000000000003b80       0x70 bin/blib.a(cpio.o)
 .debug_frame   0x0000000000003bf0       0x58 bin/blib.a(iobuf.o)
 .debug_frame   0x0000000000003c48      0x324 bin/blib.a(image.o)
 .debug_frame   0x0000000000003f6c       0x5c bin/blib.a(timer.o)
 .debug_frame   0x0000000000003fc8       0xe4 bin/blib.a(uuid.o)
 .debug_frame   0x00000000000040ac      0x248 bin/blib.a(aoe.o)
 .debug_frame   0x00000000000042f4      0x2a8 bin/blib.a(ipv4.o)
 .debug_frame   0x000000000000459c      0x52c bin/blib.a(netdevice.o)
 .debug_frame   0x0000000000004ac8      0x114 bin/blib.a(retry.o)
 .debug_frame   0x0000000000004bdc       0xa4 bin/blib.a(icmp.o)
 .debug_frame   0x0000000000004c80      0x144 bin/blib.a(netdev_settings.o)
 .debug_frame   0x0000000000004dc4      0x9b4 bin/blib.a(iscsi.o)
 .debug_frame   0x0000000000005778      0x2d0 bin/blib.a(ftp.o)
 .debug_frame   0x0000000000005a48      0x32c bin/blib.a(http.o)
 .debug_frame   0x0000000000005d74       0x44 bin/blib.a(https.o)
 .debug_frame   0x0000000000005db8      0x214 bin/blib.a(dns.o)
 .debug_frame   0x0000000000005fcc      0x6a8 bin/blib.a(tftp.o)
 .debug_frame   0x0000000000006674       0xd0 bin/blib.a(script.o)
 .debug_frame   0x0000000000006744       0x88 bin/blib.a(elf.o)
 .debug_frame   0x00000000000067cc       0x88 bin/blib.a(segment.o)
 .debug_frame   0x0000000000006854       0x34 bin/blib.a(embedded.o)
 .debug_frame   0x0000000000006888      0x140 bin/blib.a(ata.o)
 .debug_frame   0x00000000000069c8      0x2d0 bin/blib.a(scsi.o)
 .debug_frame   0x0000000000006c98      0x1f0 bin/blib.a(md5.o)
 .debug_frame   0x0000000000006e88       0xa0 bin/blib.a(chap.o)
 .debug_frame   0x0000000000006f28       0x24 bin/blib.a(shell_banner.o)
 .debug_frame   0x0000000000006f4c       0xb4 bin/blib.a(strerror.o)
 .debug_frame   0x0000000000007000      0x138 bin/blib.a(shell.o)
 .debug_frame   0x0000000000007138      0x4ac bin/blib.a(image_cmd.o)
 .debug_frame   0x00000000000075e4       0x98 bin/blib.a(route_cmd.o)
 .debug_frame   0x000000000000767c      0x190 bin/blib.a(dhcp_cmd.o)
 .debug_frame   0x000000000000780c       0x50 bin/blib.a(autoboot_cmd.o)
 .debug_frame   0x000000000000785c      0x1a4 bin/blib.a(ifmgmt_cmd.o)
 .debug_frame   0x0000000000007a00       0xb4 bin/blib.a(sanboot_cmd.o)
 .debug_frame   0x0000000000007ab4       0x70 bin/blib.a(login_cmd.o)
 .debug_frame   0x0000000000007b24       0x90 bin/blib.a(config_cmd.o)
 .debug_frame   0x0000000000007bb4      0x1b8 bin/blib.a(nvo_cmd.o)
 .debug_frame   0x0000000000007d6c      0x334 bin/blib.a(settings_ui.o)
 .debug_frame   0x00000000000080a0      0x168 bin/blib.a(login_ui.o)
 .debug_frame   0x0000000000008208       0xb0 bin/blib.a(colour.o)
 .debug_frame   0x00000000000082b8       0xb4 bin/blib.a(print.o)
 .debug_frame   0x000000000000836c      0x18c bin/blib.a(mucurses.o)
 .debug_frame   0x00000000000084f8       0x88 bin/blib.a(wininit.o)
 .debug_frame   0x0000000000008580       0xcc bin/blib.a(winattrs.o)
 .debug_frame   0x000000000000864c      0x17c bin/blib.a(ansi_screen.o)
 .debug_frame   0x00000000000087c8      0x128 bin/blib.a(clear.o)
 .debug_frame   0x00000000000088f0       0xd0 bin/blib.a(editbox.o)
 .debug_frame   0x00000000000089c0      0x2ec bin/blib.a(autoboot.o)
 .debug_frame   0x0000000000008cac      0x2a4 bin/blib.a(ifmgmt.o)
 .debug_frame   0x0000000000008f50      0x15c bin/blib.a(dhcpmgmt.o)
 .debug_frame   0x00000000000090ac      0x204 bin/blib.a(pxemenu.o)
 .debug_frame   0x00000000000092b0      0x180 bin/blib.a(imgmgmt.o)
 .debug_frame   0x0000000000009430       0xdc bin/blib.a(route.o)
 .debug_frame   0x000000000000950c       0x88 bin/blib.a(relocate.o)
 .debug_frame   0x0000000000009594       0x24 bin/blib.a(timer2.o)
 .debug_frame   0x00000000000095b8       0xcc bin/blib.a(librm_mgmt.o)
 .debug_frame   0x0000000000009684       0xcc bin/blib.a(gateA20.o)
 .debug_frame   0x0000000000009750       0xbc bin/blib.a(memmap.o)
 .debug_frame   0x000000000000980c       0x88 bin/blib.a(bootsector.o)
 .debug_frame   0x0000000000009894      0x388 bin/blib.a(undinet.o)
 .debug_frame   0x0000000000009c1c       0x34 bin/blib.a(abft.o)
 .debug_frame   0x0000000000009c50       0x88 bin/blib.a(memtop_umalloc.o)
 .debug_frame   0x0000000000009cd8       0xac bin/blib.a(biosint.o)
 .debug_frame   0x0000000000009d84       0x54 bin/blib.a(bios_timer.o)
 .debug_frame   0x0000000000009dd8       0x24 bin/blib.a(bios_nap.o)
 .debug_frame   0x0000000000009dfc      0x168 bin/blib.a(pxe_udp.o)
 .debug_frame   0x0000000000009f64      0x404 bin/blib.a(pxe_undi.o)
 .debug_frame   0x000000000000a368       0x38 bin/blib.a(pxe_loader.o)
 .debug_frame   0x000000000000a3a0      0x148 bin/blib.a(pxe_preboot.o)
 .debug_frame   0x000000000000a4e8      0x280 bin/blib.a(pxe_tftp.o)
 .debug_frame   0x000000000000a768      0x180 bin/blib.a(pxe_file.o)
 .debug_frame   0x000000000000a8e8       0x54 bin/blib.a(pxeparent_dhcp.o)
 .debug_frame   0x000000000000a93c       0x78 bin/blib.a(pxeparent.o)
 .debug_frame   0x000000000000a9b4       0x24 bin/blib.a(ctype.o)
 .debug_frame   0x000000000000a9d8       0x58 bin/blib.a(getkey.o)
 .debug_frame   0x000000000000aa30       0xf8 bin/blib.a(getopt.o)
 .debug_frame   0x000000000000ab28       0xe0 bin/blib.a(bitmap.o)
 .debug_frame   0x000000000000ac08      0x188 bin/blib.a(downloader.o)
 .debug_frame   0x000000000000ad90      0x390 bin/blib.a(xfer.o)
 .debug_frame   0x000000000000b120       0xac bin/blib.a(linebuf.o)
 .debug_frame   0x000000000000b1cc       0x88 bin/blib.a(base64.o)
 .debug_frame   0x000000000000b254      0x140 bin/blib.a(job.o)
 .debug_frame   0x000000000000b394       0xec bin/blib.a(monojob.o)
 .debug_frame   0x000000000000b480       0x74 bin/blib.a(random.o)
 .debug_frame   0x000000000000b4f4      0x1b4 bin/blib.a(fakedhcp.o)
 .debug_frame   0x000000000000b6a8      0x4c0 bin/blib.a(tcp.o)
 .debug_frame   0x000000000000bb68      0x198 bin/blib.a(arp.o)
 .debug_frame   0x000000000000bd00      0x17c bin/blib.a(ethernet.o)
 .debug_frame   0x000000000000be7c      0x13c bin/blib.a(tcpip.o)
 .debug_frame   0x000000000000bfb8      0x4d8 bin/blib.a(tls.o)
 .debug_frame   0x000000000000c490       0x44 bin/blib.a(rarp.o)
 .debug_frame   0x000000000000c4d4       0x64 bin/blib.a(nullnet.o)
 .debug_frame   0x000000000000c538      0x1e0 bin/blib.a(dhcppkt.o)
 .debug_frame   0x000000000000c718       0x90 bin/blib.a(cachedhcp.o)
 .debug_frame   0x000000000000c7a8      0x2ec bin/blib.a(udp.o)
 .debug_frame   0x000000000000ca94      0x21c bin/blib.a(dhcpopts.o)
 .debug_frame   0x000000000000ccb0      0x910 bin/blib.a(dhcp.o)
 .debug_frame   0x000000000000d5c0       0x7c bin/blib.a(smbios_settings.o)
 .debug_frame   0x000000000000d63c       0x58 bin/blib.a(axtls_sha1.o)
 .debug_frame   0x000000000000d694      0x200 bin/blib.a(axtls_aes.o)
 .debug_frame   0x000000000000d894       0xec bin/blib.a(hmac.o)
 .debug_frame   0x000000000000d980       0x98 bin/blib.a(crypto_null.o)
 .debug_frame   0x000000000000da18       0x88 bin/blib.a(x509.o)
 .debug_frame   0x000000000000daa0      0x1c4 bin/blib.a(aes.o)
 .debug_frame   0x000000000000dc64      0x110 bin/blib.a(sha1.o)
 .debug_frame   0x000000000000dd74      0x1fc bin/blib.a(rsa.o)
 .debug_frame   0x000000000000df70      0x6dc bin/blib.a(bigint.o)
 .debug_frame   0x000000000000e64c       0xcc bin/blib.a(editstring.o)
 .debug_frame   0x000000000000e718       0xb8 bin/blib.a(readline.o)
 .debug_frame   0x000000000000e7d0       0x24 bin/blib.a(pic8259.o)
 .debug_frame   0x000000000000e7f4       0x88 bin/blib.a(pnpbios.o)
 .debug_frame   0x000000000000e87c       0xf0 bin/blib.a(hidemem.o)
 .debug_frame   0x000000000000e96c       0x48 bin/blib.a(__udivdi3.o)
 .debug_frame   0x000000000000e9b4       0x48 bin/blib.a(__umoddi3.o)
 .debug_frame   0x000000000000e9fc       0x5c bin/blib.a(__udivmoddi4.o)
 .debug_frame   0x000000000000ea58       0xb0 bin/blib.a(filter.o)
 .debug_frame   0x000000000000eb08      0x140 bin/blib.a(smbios.o)
 .debug_frame   0x000000000000ec48       0xf4 bin/blib.a(cbc.o)
 .debug_frame   0x000000000000ed3c       0xa0 bin/blib.a(asn1.o)
 .debug_frame   0x000000000000eddc       0x58 bin/blib.a(bios_smbios.o)

.debug_loc      0x0000000000000000    0x3348a
 .debug_loc     0x0000000000000000      0x282 bin/blib.a(bios_console.o)
 .debug_loc     0x0000000000000282      0x620 bin/blib.a(comboot.o)
 .debug_loc     0x00000000000008a2      0xe5b bin/blib.a(bzimage.o)
 .debug_loc     0x00000000000016fd       0xdc bin/blib.a(elfboot.o)
 .debug_loc     0x00000000000017d9      0x753 bin/blib.a(multiboot.o)
 .debug_loc     0x0000000000001f2c      0x127 bin/blib.a(pxe_image.o)
 .debug_loc     0x0000000000002053      0x30d bin/blib.a(com32.o)
 .debug_loc     0x0000000000002360      0x1d8 bin/blib.a(undionly.o)
 .debug_loc     0x0000000000002538      0x163 bin/blib.a(iscsiboot.o)
 .debug_loc     0x000000000000269b      0x68b bin/blib.a(ibft.o)
 .debug_loc     0x0000000000002d26      0x16e bin/blib.a(aoeboot.o)
 .debug_loc     0x0000000000002e94      0xd9d bin/blib.a(int13.o)
 .debug_loc     0x0000000000003c31       0x13 bin/blib.a(keepsan.o)
 .debug_loc     0x0000000000003c44      0x59f bin/blib.a(pxe_call.o)
 .debug_loc     0x00000000000041e3      0x155 bin/blib.a(comboot_resolv.o)
 .debug_loc     0x0000000000004338       0xef bin/blib.a(com32_call.o)
 .debug_loc     0x0000000000004427     0x10a1 bin/blib.a(comboot_call.o)
 .debug_loc     0x00000000000054c8       0xa5 bin/blib.a(pxe_cmd.o)
 .debug_loc     0x000000000000556d       0x8e bin/blib.a(x86_string.o)
 .debug_loc     0x00000000000055fb     0x2247 bin/blib.a(settings.o)
 .debug_loc     0x0000000000007842      0x103 bin/blib.a(interface.o)
 .debug_loc     0x0000000000007945      0xc07 bin/blib.a(uri.o)
 .debug_loc     0x000000000000854c       0xe0 bin/blib.a(asprintf.o)
 .debug_loc     0x000000000000862c      0x1f0 bin/blib.a(process.o)
 .debug_loc     0x000000000000881c       0x45 bin/blib.a(refcnt.o)
 .debug_loc     0x0000000000008861       0x75 bin/blib.a(init.o)
 .debug_loc     0x00000000000088d6      0x774 bin/blib.a(string.o)
 .debug_loc     0x000000000000904a      0x7b1 bin/blib.a(vsprintf.o)
 .debug_loc     0x00000000000097fb      0x8b6 bin/blib.a(posix_io.o)
 .debug_loc     0x000000000000a0b1       0x94 bin/blib.a(console.o)
 .debug_loc     0x000000000000a145      0x45f bin/blib.a(open.o)
 .debug_loc     0x000000000000a5a4       0x3e bin/blib.a(acpi.o)
 .debug_loc     0x000000000000a5e2      0xd0a bin/blib.a(resolv.o)
 .debug_loc     0x000000000000b2ec      0x201 bin/blib.a(misc.o)
 .debug_loc     0x000000000000b4ed       0x70 bin/blib.a(cwuri.o)
 .debug_loc     0x000000000000b55d       0x43 bin/blib.a(main.o)
 .debug_loc     0x000000000000b5a0      0x5c7 bin/blib.a(malloc.o)
 .debug_loc     0x000000000000bb67      0x1b3 bin/blib.a(ansiesc.o)
 .debug_loc     0x000000000000bd1a      0x228 bin/blib.a(device.o)
 .debug_loc     0x000000000000bf42      0x3cc bin/blib.a(exec.o)
 .debug_loc     0x000000000000c30e      0x671 bin/blib.a(serial.o)
 .debug_loc     0x000000000000c97f       0x97 bin/blib.a(basename.o)
 .debug_loc     0x000000000000ca16       0xaa bin/blib.a(cpio.o)
 .debug_loc     0x000000000000cac0      0x139 bin/blib.a(iobuf.o)
 .debug_loc     0x000000000000cbf9      0x6be bin/blib.a(image.o)
 .debug_loc     0x000000000000d2b7       0x86 bin/blib.a(timer.o)
 .debug_loc     0x000000000000d33d       0x71 bin/blib.a(uuid.o)
 .debug_loc     0x000000000000d3ae      0xbec bin/blib.a(aoe.o)
 .debug_loc     0x000000000000df9a      0xe94 bin/blib.a(ipv4.o)
 .debug_loc     0x000000000000ee2e      0xec0 bin/blib.a(netdevice.o)
 .debug_loc     0x000000000000fcee      0x2e2 bin/blib.a(retry.o)
 .debug_loc     0x000000000000ffd0      0x153 bin/blib.a(icmp.o)
 .debug_loc     0x0000000000010123      0x332 bin/blib.a(netdev_settings.o)
 .debug_loc     0x0000000000010455     0x2799 bin/blib.a(iscsi.o)
 .debug_loc     0x0000000000012bee      0xac3 bin/blib.a(ftp.o)
 .debug_loc     0x00000000000136b1      0xe50 bin/blib.a(http.o)
 .debug_loc     0x0000000000014501       0x42 bin/blib.a(https.o)
 .debug_loc     0x0000000000014543      0xb4f bin/blib.a(dns.o)
 .debug_loc     0x0000000000015092     0x18d7 bin/blib.a(tftp.o)
 .debug_loc     0x0000000000016969      0x2fa bin/blib.a(script.o)
 .debug_loc     0x0000000000016c63      0x2ea bin/blib.a(elf.o)
 .debug_loc     0x0000000000016f4d      0x1bb bin/blib.a(segment.o)
 .debug_loc     0x0000000000017108       0xce bin/blib.a(embedded.o)
 .debug_loc     0x00000000000171d6      0x282 bin/blib.a(ata.o)
 .debug_loc     0x0000000000017458      0x745 bin/blib.a(scsi.o)
 .debug_loc     0x0000000000017b9d      0x868 bin/blib.a(md5.o)
 .debug_loc     0x0000000000018405      0x29b bin/blib.a(chap.o)
 .debug_loc     0x00000000000186a0       0xfe bin/blib.a(strerror.o)
 .debug_loc     0x000000000001879e       0xed bin/blib.a(shell.o)
 .debug_loc     0x000000000001888b      0xbbb bin/blib.a(image_cmd.o)
 .debug_loc     0x0000000000019446       0xaf bin/blib.a(route_cmd.o)
 .debug_loc     0x00000000000194f5      0x337 bin/blib.a(dhcp_cmd.o)
 .debug_loc     0x000000000001982c       0x84 bin/blib.a(autoboot_cmd.o)
 .debug_loc     0x00000000000198b0      0x4a0 bin/blib.a(ifmgmt_cmd.o)
 .debug_loc     0x0000000000019d50      0x103 bin/blib.a(sanboot_cmd.o)
 .debug_loc     0x0000000000019e53       0x7e bin/blib.a(login_cmd.o)
 .debug_loc     0x0000000000019ed1       0xd3 bin/blib.a(config_cmd.o)
 .debug_loc     0x0000000000019fa4      0x271 bin/blib.a(nvo_cmd.o)
 .debug_loc     0x000000000001a215      0x870 bin/blib.a(settings_ui.o)
 .debug_loc     0x000000000001aa85      0x182 bin/blib.a(login_ui.o)
 .debug_loc     0x000000000001ac07      0x124 bin/blib.a(colour.o)
 .debug_loc     0x000000000001ad2b      0x1a3 bin/blib.a(print.o)
 .debug_loc     0x000000000001aece      0x337 bin/blib.a(mucurses.o)
 .debug_loc     0x000000000001b205       0x3c bin/blib.a(wininit.o)
 .debug_loc     0x000000000001b241      0x2f9 bin/blib.a(winattrs.o)
 .debug_loc     0x000000000001b53a      0x203 bin/blib.a(ansi_screen.o)
 .debug_loc     0x000000000001b73d      0x1e0 bin/blib.a(clear.o)
 .debug_loc     0x000000000001b91d      0x2ea bin/blib.a(editbox.o)
 .debug_loc     0x000000000001bc07      0x42a bin/blib.a(autoboot.o)
 .debug_loc     0x000000000001c031      0x239 bin/blib.a(ifmgmt.o)
 .debug_loc     0x000000000001c26a      0x148 bin/blib.a(dhcpmgmt.o)
 .debug_loc     0x000000000001c3b2      0x607 bin/blib.a(pxemenu.o)
 .debug_loc     0x000000000001c9b9      0x2da bin/blib.a(imgmgmt.o)
 .debug_loc     0x000000000001cc93       0x1e bin/blib.a(route.o)
 .debug_loc     0x000000000001ccb1      0x12a bin/blib.a(relocate.o)
 .debug_loc     0x000000000001cddb      0x116 bin/blib.a(timer2.o)
 .debug_loc     0x000000000001cef1      0x17f bin/blib.a(librm_mgmt.o)
 .debug_loc     0x000000000001d070      0x2ae bin/blib.a(gateA20.o)
 .debug_loc     0x000000000001d31e      0x25f bin/blib.a(memmap.o)
 .debug_loc     0x000000000001d57d       0x84 bin/blib.a(bootsector.o)
 .debug_loc     0x000000000001d601      0xcdc bin/blib.a(undinet.o)
 .debug_loc     0x000000000001e2dd       0x74 bin/blib.a(abft.o)
 .debug_loc     0x000000000001e351      0x581 bin/blib.a(memtop_umalloc.o)
 .debug_loc     0x000000000001e8d2      0x2d6 bin/blib.a(biosint.o)
 .debug_loc     0x000000000001eba8      0x215 bin/blib.a(bios_timer.o)
 .debug_loc     0x000000000001edbd      0x534 bin/blib.a(pxe_udp.o)
 .debug_loc     0x000000000001f2f1      0xebd bin/blib.a(pxe_undi.o)
 .debug_loc     0x00000000000201ae       0x2c bin/blib.a(pxe_loader.o)
 .debug_loc     0x00000000000201da      0x3a4 bin/blib.a(pxe_preboot.o)
 .debug_loc     0x000000000002057e      0x4fc bin/blib.a(pxe_tftp.o)
 .debug_loc     0x0000000000020a7a      0x62d bin/blib.a(pxe_file.o)
 .debug_loc     0x00000000000210a7      0x136 bin/blib.a(pxeparent_dhcp.o)
 .debug_loc     0x00000000000211dd       0xa1 bin/blib.a(pxeparent.o)
 .debug_loc     0x000000000002127e       0x20 bin/blib.a(ctype.o)
 .debug_loc     0x000000000002129e       0x64 bin/blib.a(getkey.o)
 .debug_loc     0x0000000000021302      0x701 bin/blib.a(getopt.o)
 .debug_loc     0x0000000000021a03      0x1de bin/blib.a(bitmap.o)
 .debug_loc     0x0000000000021be1      0x5ff bin/blib.a(downloader.o)
 .debug_loc     0x00000000000221e0      0x8fb bin/blib.a(xfer.o)
 .debug_loc     0x0000000000022adb      0x14c bin/blib.a(linebuf.o)
 .debug_loc     0x0000000000022c27      0x16e bin/blib.a(base64.o)
 .debug_loc     0x0000000000022d95      0x1dc bin/blib.a(job.o)
 .debug_loc     0x0000000000022f71       0xf2 bin/blib.a(monojob.o)
 .debug_loc     0x0000000000023063       0x37 bin/blib.a(random.o)
 .debug_loc     0x000000000002309a      0x422 bin/blib.a(fakedhcp.o)
 .debug_loc     0x00000000000234bc     0x1968 bin/blib.a(tcp.o)
 .debug_loc     0x0000000000024e24      0x589 bin/blib.a(arp.o)
 .debug_loc     0x00000000000253ad      0x337 bin/blib.a(ethernet.o)
 .debug_loc     0x00000000000256e4      0x2ac bin/blib.a(tcpip.o)
 .debug_loc     0x0000000000025990     0x3060 bin/blib.a(tls.o)
 .debug_loc     0x00000000000289f0       0x84 bin/blib.a(rarp.o)
 .debug_loc     0x0000000000028a74       0x42 bin/blib.a(nullnet.o)
 .debug_loc     0x0000000000028ab6      0x6b0 bin/blib.a(dhcppkt.o)
 .debug_loc     0x0000000000029166      0x14a bin/blib.a(cachedhcp.o)
 .debug_loc     0x00000000000292b0      0xd66 bin/blib.a(udp.o)
 .debug_loc     0x000000000002a016      0x924 bin/blib.a(dhcpopts.o)
 .debug_loc     0x000000000002a93a     0x1ca4 bin/blib.a(dhcp.o)
 .debug_loc     0x000000000002c5de      0x205 bin/blib.a(smbios_settings.o)
 .debug_loc     0x000000000002c7e3       0xc6 bin/blib.a(axtls_sha1.o)
 .debug_loc     0x000000000002c8a9      0x785 bin/blib.a(axtls_aes.o)
 .debug_loc     0x000000000002d02e      0x5b4 bin/blib.a(hmac.o)
 .debug_loc     0x000000000002d5e2       0x8f bin/blib.a(crypto_null.o)
 .debug_loc     0x000000000002d671      0x3ac bin/blib.a(x509.o)
 .debug_loc     0x000000000002da1d     0x1fde bin/blib.a(aes.o)
 .debug_loc     0x000000000002f9fb      0x4e0 bin/blib.a(sha1.o)
 .debug_loc     0x000000000002fedb      0x5da bin/blib.a(rsa.o)
 .debug_loc     0x00000000000304b5     0x17f2 bin/blib.a(bigint.o)
 .debug_loc     0x0000000000031ca7      0x33d bin/blib.a(editstring.o)
 .debug_loc     0x0000000000031fe4      0x151 bin/blib.a(readline.o)
 .debug_loc     0x0000000000032135       0x93 bin/blib.a(pic8259.o)
 .debug_loc     0x00000000000321c8      0x213 bin/blib.a(pnpbios.o)
 .debug_loc     0x00000000000323db      0x10f bin/blib.a(hidemem.o)
 .debug_loc     0x00000000000324ea       0x28 bin/blib.a(__udivdi3.o)
 .debug_loc     0x0000000000032512       0x28 bin/blib.a(__umoddi3.o)
 .debug_loc     0x000000000003253a      0x104 bin/blib.a(__udivmoddi4.o)
 .debug_loc     0x000000000003263e      0x1ce bin/blib.a(filter.o)
 .debug_loc     0x000000000003280c      0x752 bin/blib.a(smbios.o)
 .debug_loc     0x0000000000032f5e      0x1f1 bin/blib.a(cbc.o)
 .debug_loc     0x000000000003314f      0x148 bin/blib.a(asn1.o)
 .debug_loc     0x0000000000033297      0x1f3 bin/blib.a(bios_smbios.o)

.debug_ranges   0x0000000000000000      0xff8
 .debug_ranges  0x0000000000000000       0x18 bin/blib.a(bios_console.o)
 .debug_ranges  0x0000000000000018       0x30 bin/blib.a(comboot.o)
 .debug_ranges  0x0000000000000048       0x60 bin/blib.a(bzimage.o)
 .debug_ranges  0x00000000000000a8       0x98 bin/blib.a(multiboot.o)
 .debug_ranges  0x0000000000000140       0x30 bin/blib.a(com32.o)
 .debug_ranges  0x0000000000000170       0x30 bin/blib.a(undionly.o)
 .debug_ranges  0x00000000000001a0       0x90 bin/blib.a(com32_call.o)
 .debug_ranges  0x0000000000000230       0x90 bin/blib.a(comboot_call.o)
 .debug_ranges  0x00000000000002c0       0x60 bin/blib.a(settings.o)
 .debug_ranges  0x0000000000000320       0x18 bin/blib.a(uri.o)
 .debug_ranges  0x0000000000000338       0x60 bin/blib.a(vsprintf.o)
 .debug_ranges  0x0000000000000398       0x48 bin/blib.a(posix_io.o)
 .debug_ranges  0x00000000000003e0       0x30 bin/blib.a(open.o)
 .debug_ranges  0x0000000000000410       0x48 bin/blib.a(resolv.o)
 .debug_ranges  0x0000000000000458       0x10 bin/blib.a(main.o)
 .debug_ranges  0x0000000000000468       0x18 bin/blib.a(malloc.o)
 .debug_ranges  0x0000000000000480       0x18 bin/blib.a(ansiesc.o)
 .debug_ranges  0x0000000000000498       0x30 bin/blib.a(device.o)
 .debug_ranges  0x00000000000004c8       0x38 bin/blib.a(exec.o)
 .debug_ranges  0x0000000000000500       0x30 bin/blib.a(serial.o)
 .debug_ranges  0x0000000000000530       0x30 bin/blib.a(image.o)
 .debug_ranges  0x0000000000000560       0x60 bin/blib.a(aoe.o)
 .debug_ranges  0x00000000000005c0       0x38 bin/blib.a(ipv4.o)
 .debug_ranges  0x00000000000005f8       0xe0 bin/blib.a(netdevice.o)
 .debug_ranges  0x00000000000006d8       0xc0 bin/blib.a(iscsi.o)
 .debug_ranges  0x0000000000000798       0x30 bin/blib.a(ftp.o)
 .debug_ranges  0x00000000000007c8       0x48 bin/blib.a(http.o)
 .debug_ranges  0x0000000000000810       0x60 bin/blib.a(dns.o)
 .debug_ranges  0x0000000000000870       0x90 bin/blib.a(tftp.o)
 .debug_ranges  0x0000000000000900       0x18 bin/blib.a(script.o)
 .debug_ranges  0x0000000000000918       0x30 bin/blib.a(elf.o)
 .debug_ranges  0x0000000000000948       0x38 bin/blib.a(image_cmd.o)
 .debug_ranges  0x0000000000000980       0x90 bin/blib.a(settings_ui.o)
 .debug_ranges  0x0000000000000a10       0x18 bin/blib.a(winattrs.o)
 .debug_ranges  0x0000000000000a28       0x30 bin/blib.a(pxemenu.o)
 .debug_ranges  0x0000000000000a58       0x18 bin/blib.a(relocate.o)
 .debug_ranges  0x0000000000000a70       0x60 bin/blib.a(librm_mgmt.o)
 .debug_ranges  0x0000000000000ad0       0x18 bin/blib.a(memmap.o)
 .debug_ranges  0x0000000000000ae8       0x30 bin/blib.a(undinet.o)
 .debug_ranges  0x0000000000000b18       0xa0 bin/blib.a(memtop_umalloc.o)
 .debug_ranges  0x0000000000000bb8       0x18 bin/blib.a(pxe_undi.o)
 .debug_ranges  0x0000000000000bd0       0x18 bin/blib.a(pxe_preboot.o)
 .debug_ranges  0x0000000000000be8       0x48 bin/blib.a(getopt.o)
 .debug_ranges  0x0000000000000c30       0x18 bin/blib.a(downloader.o)
 .debug_ranges  0x0000000000000c48       0x18 bin/blib.a(xfer.o)
 .debug_ranges  0x0000000000000c60       0x48 bin/blib.a(job.o)
 .debug_ranges  0x0000000000000ca8       0x90 bin/blib.a(tcp.o)
 .debug_ranges  0x0000000000000d38       0x18 bin/blib.a(arp.o)
 .debug_ranges  0x0000000000000d50       0x78 bin/blib.a(tls.o)
 .debug_ranges  0x0000000000000dc8       0x18 bin/blib.a(dhcppkt.o)
 .debug_ranges  0x0000000000000de0       0x18 bin/blib.a(cachedhcp.o)
 .debug_ranges  0x0000000000000df8       0x30 bin/blib.a(udp.o)
 .debug_ranges  0x0000000000000e28       0x48 bin/blib.a(dhcp.o)
 .debug_ranges  0x0000000000000e70       0x18 bin/blib.a(smbios_settings.o)
 .debug_ranges  0x0000000000000e88       0x18 bin/blib.a(axtls_aes.o)
 .debug_ranges  0x0000000000000ea0       0x18 bin/blib.a(sha1.o)
 .debug_ranges  0x0000000000000eb8       0x30 bin/blib.a(bigint.o)
 .debug_ranges  0x0000000000000ee8       0x18 bin/blib.a(pic8259.o)
 .debug_ranges  0x0000000000000f00       0x78 bin/blib.a(pnpbios.o)
 .debug_ranges  0x0000000000000f78       0x50 bin/blib.a(smbios.o)
 .debug_ranges  0x0000000000000fc8       0x30 bin/blib.a(cbc.o)

bin/undionly.kkpxe.tmp:     file format elf32-i386

Sections:
Idx Name          Size      VMA       LMA       File off  Algn
  0 .prefix       000007e6  00000000  00000000  00000140  2**4
                  CONTENTS, ALLOC, LOAD, CODE
  1 .text16       00000814  00000000  000007f0  00000930  2**4
                  CONTENTS, ALLOC, LOAD, CODE
  2 .data16       000004d2  00000000  00001010  00001160  2**5
                  CONTENTS, ALLOC, LOAD, DATA
  3 .got          00000008  000004d4  000014e4  00001634  2**2
                  CONTENTS, ALLOC, LOAD, DATA
  4 .got.plt      0000000c  000004dc  000014ec  0000163c  2**2
                  CONTENTS, ALLOC, LOAD, DATA
  5 .bss.data16   00002998  00000500  000019f0  00024700  2**5
                  ALLOC
  6 .textdata     00023058  00000000  000014f0  00001660  2**5
                  CONTENTS, ALLOC, LOAD, CODE
  7 .bss.textdata 00081260  00023060  00024590  00024700  2**5
                  ALLOC
  8 .zinfo        00000040  00000000  00024550  000246b8  2**0
                  CONTENTS, ALLOC, LOAD, READONLY, DATA
  9 .debug_info   00089fb3  00000000  00000000  000246f8  2**0
                  CONTENTS, READONLY, DEBUGGING
 10 .debug_abbrev 0001990c  00000000  00000000  000ae6ab  2**0
                  CONTENTS, READONLY, DEBUGGING
 11 .debug_aranges 00001488  00000000  00000000  000c7fb7  2**0
                  CONTENTS, READONLY, DEBUGGING
 12 .debug_line   000118ed  00000000  00000000  000c943f  2**0
                  CONTENTS, READONLY, DEBUGGING
 13 .debug_str    0000b5dd  00000000  00000000  000dad2c  2**0
                  CONTENTS, READONLY, DEBUGGING
 14 .debug_frame  0000ee34  00000000  00000000  000e630c  2**2
                  CONTENTS, READONLY, DEBUGGING
 15 .debug_loc    0003348a  00000000  00000000  000f5140  2**0
                  CONTENTS, READONLY, DEBUGGING
 16 .debug_ranges 00000ff8  00000000  00000000  001285ca  2**0
                  CONTENTS, READONLY, DEBUGGING
SYMBOL TABLE:
00000000 l    df *ABS*	00000000 


00000000 l    df *ABS*	00000000 kkpxeprefix.o
00000000 l    df *ABS*	00000000 libprefix.o
00000000 l    df *ABS*	00000000 unnrv2b16.o
00000000 l    df *ABS*	00000000 pxe_entry.o
00000000 l    df *ABS*	00000000 bios_console.c
00000000 l    df *ABS*	00000000 comboot.c
00000000 l    df *ABS*	00000000 bzimage.c
00000000 l    df *ABS*	00000000 int13.c
00000000 l    df *ABS*	00000000 pxe_call.c
00000000 l    df *ABS*	00000000 com32_call.c
00000000 l    df *ABS*	00000000 comboot_call.c
00000000 l    df *ABS*	00000000 librm.o
00000000 l    df *ABS*	00000000 gateA20.c
00000000 l    df *ABS*	00000000 memmap.c
00000000 l    df *ABS*	00000000 bootsector.c
00000000 l    df *ABS*	00000000 undinet.c
00000000 l    df *ABS*	00000000 bios_timer.c
00000000 l    df *ABS*	00000000 bios_nap.c
00000000 l    df *ABS*	00000000 pxeparent.c
00000000 l    df *ABS*	00000000 undiisr.o
00000000 l    df *ABS*	00000000 e820mangler.o
00000000 l    df *ABS*	00000000 multiboot.c
00000000 l    df *ABS*	00000000 undipreload.c
00000000 l    df *ABS*	00000000 ibft.c
00000000 l    df *ABS*	00000000 abft.c
00000000 l    df *ABS*	00000000 pxe_file.c
00000000 l    df *ABS*	00000000 config.c
00000000 l    df *ABS*	00000000 elfboot.c
00000000 l    df *ABS*	00000000 pxe_image.c
00000000 l    df *ABS*	00000000 com32.c
00000000 l    df *ABS*	00000000 undionly.c
00000000 l    df *ABS*	00000000 iscsiboot.c
00000000 l    df *ABS*	00000000 aoeboot.c
00000000 l    df *ABS*	00000000 keepsan.c
00000000 l    df *ABS*	00000000 comboot_resolv.c
00000000 l    df *ABS*	00000000 pxe_cmd.c
00000000 l    df *ABS*	00000000 x86_string.c
00000000 l    df *ABS*	00000000 com32_wrapper.o
00000000 l    df *ABS*	00000000 settings.c
00000000 l    df *ABS*	00000000 interface.c
00000000 l    df *ABS*	00000000 uri.c
00000000 l    df *ABS*	00000000 asprintf.c
00000000 l    df *ABS*	00000000 process.c
00000000 l    df *ABS*	00000000 refcnt.c
00000000 l    df *ABS*	00000000 init.c
00000000 l    df *ABS*	00000000 string.c
00000000 l    df *ABS*	00000000 vsprintf.c
00000000 l    df *ABS*	00000000 posix_io.c
00000000 l    df *ABS*	00000000 console.c
00000000 l    df *ABS*	00000000 open.c
00000000 l    df *ABS*	00000000 acpi.c
00000000 l    df *ABS*	00000000 resolv.c
00000000 l    df *ABS*	00000000 misc.c
00000000 l    df *ABS*	00000000 cwuri.c
00000000 l    df *ABS*	00000000 main.c
00000000 l    df *ABS*	00000000 malloc.c
00000000 l    df *ABS*	00000000 ansiesc.c
00000000 l    df *ABS*	00000000 device.c
00000000 l    df *ABS*	00000000 exec.c
00000000 l    df *ABS*	00000000 serial.c
00000000 l    df *ABS*	00000000 basename.c
00000000 l    df *ABS*	00000000 cpio.c
00000000 l    df *ABS*	00000000 iobuf.c
00000000 l    df *ABS*	00000000 image.c
00000000 l    df *ABS*	00000000 timer.c
00000000 l    df *ABS*	00000000 uuid.c
00000000 l    df *ABS*	00000000 aoe.c
00000000 l    df *ABS*	00000000 ipv4.c
00000000 l    df *ABS*	00000000 netdevice.c
00000000 l    df *ABS*	00000000 retry.c
00000000 l    df *ABS*	00000000 icmp.c
00000000 l    df *ABS*	00000000 netdev_settings.c
00000000 l    df *ABS*	00000000 iscsi.c
00000000 l    df *ABS*	00000000 ftp.c
00000000 l    df *ABS*	00000000 http.c
00000000 l    df *ABS*	00000000 https.c
00000000 l    df *ABS*	00000000 dns.c
00000000 l    df *ABS*	00000000 tftp.c
00000000 l    df *ABS*	00000000 script.c
00000000 l    df *ABS*	00000000 elf.c
00000000 l    df *ABS*	00000000 segment.c
00000000 l    df *ABS*	00000000 embedded.c
00000000 l    df *ABS*	00000000 ata.c
00000000 l    df *ABS*	00000000 scsi.c
00000000 l    df *ABS*	00000000 md5.c
00000000 l    df *ABS*	00000000 chap.c
00000000 l    df *ABS*	00000000 shell_banner.c
00000000 l    df *ABS*	00000000 strerror.c
00000000 l    df *ABS*	00000000 shell.c
00000000 l    df *ABS*	00000000 image_cmd.c
00000000 l    df *ABS*	00000000 route_cmd.c
00000000 l    df *ABS*	00000000 dhcp_cmd.c
00000000 l    df *ABS*	00000000 autoboot_cmd.c
00000000 l    df *ABS*	00000000 ifmgmt_cmd.c
00000000 l    df *ABS*	00000000 sanboot_cmd.c
00000000 l    df *ABS*	00000000 login_cmd.c
00000000 l    df *ABS*	00000000 config_cmd.c
00000000 l    df *ABS*	00000000 nvo_cmd.c
00000000 l    df *ABS*	00000000 settings_ui.c
00000000 l    df *ABS*	00000000 login_ui.c
00000000 l    df *ABS*	00000000 colour.c
00000000 l    df *ABS*	00000000 print.c
00000000 l    df *ABS*	00000000 mucurses.c
00000000 l    df *ABS*	00000000 wininit.c
00000000 l    df *ABS*	00000000 winattrs.c
00000000 l    df *ABS*	00000000 ansi_screen.c
00000000 l    df *ABS*	00000000 clear.c
00000000 l    df *ABS*	00000000 editbox.c
00000000 l    df *ABS*	00000000 autoboot.c
00000000 l    df *ABS*	00000000 ifmgmt.c
00000000 l    df *ABS*	00000000 dhcpmgmt.c
00000000 l    df *ABS*	00000000 pxemenu.c
00000000 l    df *ABS*	00000000 imgmgmt.c
00000000 l    df *ABS*	00000000 route.c
00000000 l    df *ABS*	00000000 relocate.c
00000000 l    df *ABS*	00000000 timer2.c
00000000 l    df *ABS*	00000000 librm_mgmt.c
00000000 l    df *ABS*	00000000 memtop_umalloc.c
00000000 l    df *ABS*	00000000 biosint.c
00000000 l    df *ABS*	00000000 pxe_udp.c
00000000 l    df *ABS*	00000000 pxe_undi.c
00000000 l    df *ABS*	00000000 pxe_loader.c
00000000 l    df *ABS*	00000000 pxe_preboot.c
00000000 l    df *ABS*	00000000 pxe_tftp.c
00000000 l    df *ABS*	00000000 pxeparent_dhcp.c
00000000 l    df *ABS*	00000000 ctype.c
00000000 l    df *ABS*	00000000 getkey.c
00000000 l    df *ABS*	00000000 getopt.c
00000000 l    df *ABS*	00000000 bitmap.c
00000000 l    df *ABS*	00000000 downloader.c
00000000 l    df *ABS*	00000000 xfer.c
00000000 l    df *ABS*	00000000 linebuf.c
00000000 l    df *ABS*	00000000 base64.c
00000000 l    df *ABS*	00000000 job.c
00000000 l    df *ABS*	00000000 monojob.c
00000000 l    df *ABS*	00000000 random.c
00000000 l    df *ABS*	00000000 fakedhcp.c
00000000 l    df *ABS*	00000000 tcp.c
00000000 l    df *ABS*	00000000 arp.c
00000000 l    df *ABS*	00000000 ethernet.c
00000000 l    df *ABS*	00000000 tcpip.c
00000000 l    df *ABS*	00000000 tls.c
00000000 l    df *ABS*	00000000 rarp.c
00000000 l    df *ABS*	00000000 nullnet.c
00000000 l    df *ABS*	00000000 dhcppkt.c
00000000 l    df *ABS*	00000000 cachedhcp.c
00000000 l    df *ABS*	00000000 udp.c
00000000 l    df *ABS*	00000000 dhcpopts.c
00000000 l    df *ABS*	00000000 dhcp.c
00000000 l    df *ABS*	00000000 smbios_settings.c
00000000 l    df *ABS*	00000000 axtls_sha1.c
00000000 l    df *ABS*	00000000 axtls_aes.c
00000000 l    df *ABS*	00000000 hmac.c
00000000 l    df *ABS*	00000000 crypto_null.c
00000000 l    df *ABS*	00000000 x509.c
00000000 l    df *ABS*	00000000 aes.c
00000000 l    df *ABS*	00000000 sha1.c
00000000 l    df *ABS*	00000000 rsa.c
00000000 l    df *ABS*	00000000 bigint.c
00000000 l    df *ABS*	00000000 editstring.c
00000000 l    df *ABS*	00000000 readline.c
00000000 l    df *ABS*	00000000 pic8259.c
00000000 l    df *ABS*	00000000 basemem_packet.c
00000000 l    df *ABS*	00000000 pnpbios.c
00000000 l    df *ABS*	00000000 hidemem.c
00000000 l    df *ABS*	00000000 __udivdi3.c
00000000 l    df *ABS*	00000000 __umoddi3.c
00000000 l    df *ABS*	00000000 __udivmoddi4.c
00000000 l    df *ABS*	00000000 filter.c
00000000 l    df *ABS*	00000000 smbios.c
00000000 l    df *ABS*	00000000 cbc.c
00000000 l    df *ABS*	00000000 asn1.c
00000000 l    df *ABS*	00000000 bios_smbios.c
00000000 g       *ABS*	00000000 pci_vendor_id
00000000 g       *ABS*	00000000 pci_device_id
00000001 g       *ABS*	00000000 _assert
00000004 g       *ABS*	00000000 _prefix_memsz_sect
00000004 g       *ABS*	00000000 _prefix_filesz_sect
00000007 l       *ABS*	00000000 SegDescCnt
00000008 l       *ABS*	00000000 PM_CS
00000010 l       *ABS*	00000000 PM_SS
00000010 g       *ABS*	00000000 .hidden _max_align
00000018 l       *ABS*	00000000 PM_DS
0000001c l       *ABS*	00000000 undi_device_size
00000020 l       *ABS*	00000000 gdt_length
00000028 l       *ABS*	00000000 pm_call_vars_size
0000002c l       *ABS*	00000000 pxenv_length
00000038 l       *ABS*	00000000 gdt_length
00000040 g       *ABS*	00000000 _zinfo_memsz
00000040 g       *ABS*	00000000 _zinfo_filesz
00000045 l       *ABS*	00000000 .hidden embedded_image_1_len
00000058 l       *ABS*	00000000 pxe_length
0000007f g       *ABS*	00000000 _prefix_memsz_pgh
00000082 g       *ABS*	00000000 _text16_memsz_pgh
000002ea g       *ABS*	00000000 _data16_memsz_pgh
000004d2 g       *ABS*	00000000 _data16_filesz
000007e6 g       *ABS*	00000000 _prefix_memsz
000007e6 g       *ABS*	00000000 _prefix_filesz
00000814 g       *ABS*	00000000 .hidden _text16_memsz
00000814 g       *ABS*	00000000 _text16_filesz
00002e98 g       *ABS*	00000000 .hidden _data16_memsz
0000a671 l       *ABS*	00000000 .hidden embedded_image_2_len
00023058 g       *ABS*	00000000 _textdata_filesz
000a42c0 g       *ABS*	00000000 _textdata_memsz
00400000 g       *ABS*	00000000 HIGHMEM_LOADPOINT
00000000 l    d  .prefix	00000000 .prefix
00000000 g       .prefix	00000000 _prefix
0000003c l       .prefix	00000000 detect_pxe
00000075 l       .prefix	00000000 have_pxenv
000000b8 l       .prefix	00000000 have_ppxe
000000da l       .prefix	00000000 is_valid_ppxe
000000ef l       .prefix	00000000 is_valid_pxenv
0000010b l       .prefix	00000000 is_valid_checksum
00000118 l       .prefix	00000000 memory_scan_ppxe
0000011d l       .prefix	00000000 memory_scan_pxenv
00000120 l       .prefix	00000000 memory_scan_common
00000137 l       .prefix	00000000 check_have_stack
0000015a l       .prefix	00000000 stack_not_found
00000163 l       .prefix	00000000 find_undi_basemem_usage
00000191 l       .prefix	00000000 print_structure_information
000001d5 l       .prefix	00000000 get_physical_device
000001eb l       .prefix	00000000 pci_physical_device
00000204 l       .prefix	00000000 no_physical_device
0000020a l       .prefix	00000000 get_iface_type
0000024a l       .prefix	00000000 print_free_basemem
0000025d l       .prefix	00000000 finished
00000260 l       .prefix	00000000 print_segoff
00000272 l       .prefix	00000000 print_word
00000290 l       .prefix	00000000 zero_kb
000002a9 l       .prefix	00000000 free_basemem
000002c1 l       .prefix	00000000 pxe_call
000002df l       .prefix	00000000 print_pxe_error
000002fc l       .prefix	00000000 run_gpxe
00000469 l       .prefix	00000000 pxe_esp
0000046d l       .prefix	00000000 pxe_ss
0000046f l       .prefix	00000000 pxe_parameter_structure
000004af l       .prefix	00000000 undi_code_segoff
000004af l       .prefix	00000000 undi_code_size
000004b1 l       .prefix	00000000 undi_code_segment
000004b3 l       .prefix	00000000 undi_data_segoff
000004b3 l       .prefix	00000000 undi_data_size
000004b5 l       .prefix	00000000 undi_data_segment
000004b7 l       .prefix	00000000 pxe_hacks
000004b9 l       .prefix	00000000 pxenv_offset
000004b9 l       .prefix	00000000 pxenv_segoff
000004b9 l       .prefix	00000000 undi_device
000004bb l       .prefix	00000000 pxenv_segment
000004bd l       .prefix	00000000 ppxe_offset
000004bd l       .prefix	00000000 ppxe_segoff
000004bf l       .prefix	00000000 ppxe_segment
000004c1 l       .prefix	00000000 entry_segoff
000004c1 l       .prefix	00000000 entry_offset
000004c3 l       .prefix	00000000 entry_segment
000004c5 l       .prefix	00000000 undi_fbms_start
000004c7 l       .prefix	00000000 undi_fbms_end
000004c9 l       .prefix	00000000 pci_busdevfn
000004cb l       .prefix	00000000 isapnp_csn
000004cd l       .prefix	00000000 isapnp_read_port
000004cf l       .prefix	00000000 pci_vendor
000004d1 l       .prefix	00000000 pci_device
000004d3 l       .prefix	00000000 flags
000004e0 g       .prefix	0000001f print_character
000004ff g       .prefix	0000000d print_message
0000050c g       .prefix	0000000b print_hex_dword
00000517 g       .prefix	00000007 print_hex_word
0000051e g       .prefix	00000009 print_hex_byte
00000527 g       .prefix	0000000d print_hex_nibble
00000534 g       .prefix	00000021 print_pci_busdevfn
00000555 g       .prefix	00000019 print_kill_line
00000570 l       .prefix	00000000 pm_call_vars
00000570 l       .prefix	00000000 gdt_limit
00000570 l       .prefix	00000020 gdt
00000572 l       .prefix	00000000 gdt_base
00000578 l       .prefix	00000000 pm_cs
00000580 l       .prefix	00000000 pm_ss
00000588 l       .prefix	00000000 pm_ds
00000590 l       .prefix	00000000 gdt_end
00000590 l       .prefix	00000008 pm_saved_gdt
00000598 l       .prefix	000000b4 pm_call
0000064c l       .prefix	00000012 set_seg_base
0000065e l       .prefix	00000008 copy_bytes
00000666 l       .prefix	0000002a install_block
00000690 g       .prefix	00000021 alloc_basemem
000006b1 g       .prefix	00000018 install
000006c9 g       .prefix	00000082 install_prealloc
0000074b g       .prefix	00000000 decompress16
0000075b l       .prefix	00000000 decompr_literals_n2b
0000075d l       .prefix	00000000 decompr_loop_n2b
00000762 l       .prefix	00000000 dcl1_n2b
00000765 l       .prefix	00000000 dcl2_n2b
0000076c l       .prefix	00000000 loop1_n2b
0000078f l       .prefix	00000000 decompr_ebpeax_n2b
000007a2 l       .prefix	00000000 loop2_n2b
000007b1 l       .prefix	00000000 decompr_got_mlen_n2b
000007cc l       .prefix	00000000 getbit1
000007d1 l       .prefix	00000000 getbit32
000007dd l       .prefix	00000000 decompr_end_n2b
000007e6 g       .prefix	00000000 _mprefix
00000000 l    d  .text16	00000000 .text16
00000000 l       .text16	00000000 pxenv_null_entry
00000000 g       .text16	00000000 _text16
00000060 l       .text16	00000000 .hidden int13_wrapper
000000f8 l       .text16	00000000 com32_intcall_instr
000001b4 l       .text16	00000000 .hidden int20_wrapper
000001c2 l       .text16	00000000 .hidden int21_wrapper
000001d0 l       .text16	00000000 .hidden int22_wrapper
000001de g       .text16	00000000 init_librm
0000024a l       .text16	00000000 set_seg_base
0000025b  w      .text16	00000000 idt_init
0000025c l       .text16	00000000 real_to_prot
000002b7 l       .text16	00000000 p2r_jump_target
000002d0 g       .text16	00000000 prot_call
00000373 g       .text16	0000002c free_basemem
0000039f g       .text16	00000004 uninstall
000003a3 l       .text16	0000000f pxenv_entry
000003b2 l       .text16	00000000 pxe_entry_sp
000003b2 l       .text16	00000028 pxe_entry
000003ba l       .text16	00000000 pxe_entry_esp
000003bc l       .text16	00000000 pxe_entry_common
000003da g       .text16	00000000 .hidden pxe_int_1a
00000432 l       .text16	00000000 saved_ss
00000434 l       .text16	00000000 saved_sp
00000436 l       .text16	00000000 saved_retaddr
00000438 l       .text16	00000000 .hidden bootsector_exec_fail
00000462 g       .text16	00000000 .hidden undiisr
00000499 l       .text16	00000000 trig
0000049d l       .text16	00000000 eoi
000004ac l       .text16	00000000 chain
000004b1 l       .text16	00000000 exit
000004c7 l       .text16	0000003b window_region
00000502 l       .text16	0000002a patch_1m
0000052c l       .text16	00000026 patch_16m
00000552 l       .text16	0000000e patch_1m_16m
00000560 l       .text16	000000ad get_underlying_e820
0000060d l       .text16	00000058 get_windowed_e820
00000665 l       .text16	0000002b get_nonempty_e820
00000690 l       .text16	0000002a get_mangled_e820
000006ba l       .text16	00000000 patch_cf
000006c3 l       .text16	0000000f int15_e820
000006d2 l       .text16	0000001e int15_e801
000006f0 l       .text16	00000015 int15_88
00000705 g       .text16	00000028 .hidden int15
00000730 l     O .text16	00000004 int13_vector
00000734 l     O .text16	00000004 int22_vector
00000738 l     O .text16	00000004 int21_vector
0000073c l     O .text16	00000004 int20_vector
00000740 l     O .text16	00000030 comboot_initial_regs
00000770 g       .text16	00000000 rm_ds
00000772 g       .text16	00000002 hooked_bios_interrupts
00000780 g       .text16	00000058 ppxe
000007a0 l       .text16	00000000 pxe_segments
000007e0 g       .text16	0000002c pxenv
000007e6 g       .text16	00000000 _eprefix
0000080c g       .text16	00000000 pxe_int_1a_vector
00000810 g       .text16	00000004 int15_vector
00000814 g       .text16	00000000 _mtext16
00000000 l    d  .data16	00000000 .data16
00000000 g       .data16	00000000 _data16
00000004 l     O .data16	0000000b mb_bootloader_name
00000020 g     O .data16	00000060 .hidden preloaded_undi
00000080 g     O .data16	000002d0 .hidden ibftab
00000350 l     O .data16	00000001 comboot_feature_flags
00000351 l     O .data16	00000001 syslinux_configuration_file
00000354 l     O .data16	00000015 syslinux_copyright
0000036c l     O .data16	0000000b syslinux_version
00000380 l       .data16	00000000 gdt
00000380 l       .data16	00000000 gdtr
00000380 l       .data16	00000000 gdt_limit
00000382 l       .data16	00000000 gdt_base
00000388 l       .data16	00000000 virtual_cs
00000390 l       .data16	00000000 virtual_ds
00000398 l       .data16	00000000 physical_cs
000003a0 l       .data16	00000000 physical_ds
000003a8 l       .data16	00000000 real_cs
000003b0 l       .data16	00000000 real_ds
000003b8 l       .data16	00000000 gdt_end
000003b8 l       .data16	00000000 rm_idtr
000003b8  w      .data16	00000000 idtr
000003be l       .data16	00000000 p2r_jump_vector
000003c0 g       .data16	00000000 rm_cs
000003c2 l       .data16	00000000 rc_function
000003c6 l       .data16	00000000 _virt_offset
000003ca l       .data16	00000000 _text16
000003ce l       .data16	00000000 _data16
000003d2 l       .data16	00000004 init_librm_vector
000003d6 l       .data16	00000004 prot_call_vector
000003e0 l     O .data16	00000048 undinet_tbd
00000428 g     O .data16	00000001 .hidden undiisr_trigger_count
0000042c g     O .data16	00000004 .hidden undiisr_next_handler
00000430 g     O .data16	00000001 .hidden undiisr_irq
00000440 g     O .data16	0000002e .hidden abftab
00000470 g     O .data16	00000004 .hidden pxe_exit_hook
00000474 l       .data16	00000000 undinet_params
00000474 l       .data16	00000000 status
00000476 l       .data16	00000000 funcflag
00000478 l       .data16	00000000 bufferlength
0000047a l       .data16	00000000 framelength
0000047c l       .data16	00000000 frameheaderlength
0000047e l       .data16	00000000 frame
00000482 l       .data16	00000000 prottype
00000483 l       .data16	00000000 pkttype
00000490 l       .data16	00000000 memory_windows
00000490 l       .data16	00000000 base_memory_window
00000498 g       .data16	00000000 hidemem_base
000004a0 l       .data16	00000000 ext_memory_window
000004a8 g       .data16	00000000 hidemem_umalloc
000004b8 g       .data16	00000000 hidemem_textdata
000004d0 l       .data16	00000000 memory_windows_end
000004d0 l       .data16	00000002 underlying_e820_index
000004d2 g       .data16	00000000 _mdata16
00000814 g       .data16	00000000 _etext16
000004d4 l    d  .got	00000000 .got
000004dc l    d  .got.plt	00000000 .got.plt
000004dc l     O .got.plt	00000000 _GLOBAL_OFFSET_TABLE_
00000500 l    d  .bss.data16	00000000 .bss.data16
00000500 l     O .bss.data16	00000080 mbmodules
00000580 l     O .bss.data16	000000c0 mbmemmap
00000640 l     O .bss.data16	00000058 mbinfo
000006a0 l     O .bss.data16	00000200 mb_cmdlines
000008a0 g     O .bss.data16	00000002 .hidden com32_saved_sp
000008a4 l     O .bss.data16	00000004 com32_farcall_proc
000008a8 l     O .bss.data16	00000001 com32_int_vector
000008ac l     O .bss.data16	0000002c com32_regs
000008d8 l     O .bss.data16	00000018 e820buf
000008f0 l     O .bss.data16	00000ec4 cached_info
000017b4 g     O .bss.data16	00000004 .hidden pxeparent_entry_point
000017b8 l     O .bss.data16	0000009e pxeparent_params
00001860 g     O .bss.data16	000005ea .hidden basemem_packet
00001e4a l       .bss.data16	00000004 underlying_e820_ebx
00001e4e l       .bss.data16	00000040 underlying_e820_cache
00001e8e l       .bss.data16	00000004 underlying_e820_cache_size
00001e98 g       .bss.data16	00000000 _stack16
00002e98 g       .bss.data16	00000000 _estack16
00002e98 g       .bss.data16	00000000 _edata16
00000000 l    d  .textdata	00000000 .textdata
00000000 g       .textdata	00000000 .hidden _textdata
00000001 l     F .textdata	00000030 bios_handle_cup
00000031 l     F .textdata	0000002f bios_handle_ed
00000060 l     F .textdata	0000009f bios_handle_sgr
000000ff l     F .textdata	00000034 bios_putchar
00000133 l     F .textdata	00000067 bios_getchar
0000019a l     F .textdata	00000038 bios_iskey
000001d2 l     F .textdata	00000135 comboot_exec
00000307 l     F .textdata	000000ae comboot_load
000003b5 l     F .textdata	000000ec bzimage_load_initrd
000004a1 l     F .textdata	00000152 bzimage_parse_header.isra.0
000005f3 l     F .textdata	00000097 bzimage_update_header.isra.1
0000068a g     F .textdata	000000aa .hidden bzimage_load
00000734 l     F .textdata	000002a4 bzimage_exec
000009d8 l     F .textdata	0000001f elfboot_exec
000009f7 l     F .textdata	0000005c elfboot_load
00000a53 l     F .textdata	00000135 multiboot_load
00000b88 g     F .textdata	00000072 .hidden multiboot_add_cmdline
00000bfa l     F .textdata	000002b3 multiboot_exec
00000ead l     F .textdata	00000024 pxe_exec
00000ed1 g     F .textdata	00000062 .hidden pxe_load
00000f33 l     F .textdata	0000016a com32_exec
0000109d l     F .textdata	000000cd com32_load
0000116a l     F .textdata	000000ad undibus_probe
00001217 l     F .textdata	0000001f undionly_shutdown
00001236 l     F .textdata	0000002c undibus_remove
00001262 l     F .textdata	0000011b iscsiboot
0000137d l     F .textdata	00000054 ibft_set_string
000013d1 l     F .textdata	00000035 ibft_set_ipaddr_option
00001406 g     F .textdata	00000285 .hidden ibft_fill_data
0000168b l     F .textdata	0000011d aoeboot
000017a8 l     F .textdata	00000040 int13_set_num_drives
000017e8 l     F .textdata	00000072 int13_rw_sectors
0000185a l     F .textdata	000000b8 guess_int13_geometry
00001912 l     F .textdata	00000061 int13_extended_rw.isra.4
00001973 l     F .textdata	000001e8 int13
00001b5b g     F .textdata	0000007a .hidden register_int13_drive
00001bd5 g     F .textdata	00000031 .hidden unregister_int13_drive
00001c06 g     F .textdata	00000069 .hidden int13_boot
00001c6f g     F .textdata	0000002c .hidden keep_san
00001c9b l     F .textdata	0000000b pxenv_unknown
00001ca6 l     F .textdata	000000d3 pxe_init_structures
00001d79 g     F .textdata	00000085 .hidden pxe_api_call
00001dfe  w    F .textdata	0000000a .hidden _pxe_api_call_weak
00001e08 g     F .textdata	0000005f .hidden pxe_loader_call
00001e67 g     F .textdata	00000038 .hidden pxe_activate
00001e9f g     F .textdata	00000039 .hidden pxe_deactivate
00001ed8 g     F .textdata	00000043 .hidden pxe_start_nbp
00001f1b l     F .textdata	00000043 comboot_resolv_done
00001f5e g     F .textdata	0000003c .hidden comboot_resolv
00001f9a g     F .textdata	00000064 .hidden com32_intcall
00001ffe g     F .textdata	00000062 .hidden com32_farcall
00002060 g     F .textdata	00000041 .hidden com32_cfarcall
000020a1 l     F .textdata	00000023 int20
000020c4 l     F .textdata	0000002a print_user_string
000020ee l     F .textdata	000000f0 int21
000021de l     F .textdata	00000099 shuffle
00002277 g     F .textdata	00000034 .hidden comboot_force_text_mode
000022ab l     F .textdata	000004ce int22
00002779 g     F .textdata	0000004e .hidden hook_comboot_interrupts
000027c7 g     F .textdata	0000004e .hidden unhook_comboot_interrupts
00002815 l     F .textdata	00000008 stoppxe_exec
0000281d l     F .textdata	00000010 startpxe_exec
0000282d l     F .textdata	0000000e startpxe_payload
0000283b g     F .textdata	0000001f .hidden __memcpy
0000285a g       .textdata	00000000 .hidden setjmp
00002878 g       .textdata	00000000 .hidden longjmp
0000289f g       .textdata	00000000 _virt_to_phys
000028cb g       .textdata	00000000 _phys_to_virt
00002931 l       .textdata	00000000 prot_to_real
0000298c g       .textdata	00000000 real_call
0000299f g       .textdata	00000000 .hidden com32_farcall_wrapper
000029a6 g       .textdata	00000000 .hidden com32_cfarcall_wrapper
000029ad g       .textdata	00000000 .hidden com32_intcall_wrapper
000029b2 l       .textdata	00000000 com32_wrapper
000029f2 l     F .textdata	00000011 strlen
00002a03 l     F .textdata	0000002c apply_settings
00002a2f l     F .textdata	00000006 storef_uuid
00002a35 l     F .textdata	000000a9 parse_settings_name
00002ade l     F .textdata	00000184 parse_setting_name
00002c62 l     F .textdata	0000003a find_child_settings
00002c9c g     F .textdata	00000028 .hidden generic_settings_clear
00002cc4 g     F .textdata	00000016 .hidden find_settings
00002cda g     F .textdata	0000002c .hidden unregister_settings
00002d06 g     F .textdata	00000087 .hidden fetch_setting
00002d8d g     F .textdata	0000000a .hidden fetch_setting_len
00002d97 l     F .textdata	000000ba fetchf_hex
00002e51 g     F .textdata	0000002c .hidden fetch_string_setting
00002e7d l     F .textdata	00000004 fetchf_string
00002e81 l     F .textdata	00000055 fetchf_uristring
00002ed6 g     F .textdata	00000048 .hidden fetch_string_setting_copy
00002f1e g     F .textdata	00000014 .hidden fetch_ipv4_setting
00002f32 l     F .textdata	0000003e fetchf_ipv4
00002f70 g     F .textdata	00000049 .hidden fetch_int_setting
00002fb9 l     F .textdata	00000038 fetchf_int
00002ff1 g     F .textdata	00000028 .hidden fetch_uint_setting
00003019 l     F .textdata	00000038 fetchf_uint
00003051 g     F .textdata	0000000d .hidden fetch_intz_setting
0000305e l     F .textdata	00000093 reprioritise_settings
000030f1 g     F .textdata	00000064 .hidden register_settings
00003155 l     F .textdata	000000a0 autovivify_child_settings
000031f5 g     F .textdata	0000000d .hidden fetch_uintz_setting
00003202 g     F .textdata	00000018 .hidden fetch_uuid_setting
0000321a l     F .textdata	00000043 fetchf_uuid
0000325d g     F .textdata	0000000d .hidden clear_settings
0000326a g     F .textdata	0000002b .hidden setting_cmp
00003295 g     F .textdata	00000105 .hidden generic_settings_store
0000339a g     F .textdata	0000007c .hidden store_setting
00003416 l     F .textdata	0000001f storef_string
00003435 l     F .textdata	00000030 storef_ipv4
00003465 l     F .textdata	00000052 storef_int
000034b7 l     F .textdata	0000000a storef_int8
000034c1 l     F .textdata	0000000a storef_int16
000034cb l     F .textdata	0000000a storef_int32
000034d5 l     F .textdata	0000006d storef_hex
00003542 l     F .textdata	00000040 storef_uristring
00003582 g     F .textdata	00000059 .hidden generic_settings_fetch
000035db g     F .textdata	00000016 .hidden storef_setting
000035f1 g     F .textdata	00000054 .hidden storef_named_setting
00003645 g     F .textdata	0000005b .hidden fetchf_named_setting
000036a0 g     F .textdata	0000001d .hidden plug
000036bd g     F .textdata	00000013 .hidden plug_plug
000036d0 g     F .textdata	00000017 .hidden uri_port
000036e7 g     F .textdata	000000e0 .hidden resolve_path
000037c7 g     F .textdata	000000f5 .hidden uri_encode
000038bc g     F .textdata	0000012b .hidden unparse_uri
000039e7 g     F .textdata	00000081 .hidden uri_decode
00003a68 g     F .textdata	00000193 .hidden parse_uri
00003bfb g     F .textdata	00000040 .hidden uri_dup
00003c3b g     F .textdata	0000009e .hidden resolve_uri
00003cd9 g     F .textdata	0000003d .hidden vasprintf
00003d16 g     F .textdata	00000012 .hidden asprintf
00003d28 g     F .textdata	00000037 .hidden process_add
00003d5f l     F .textdata	0000002b init_processes
00003d8a g     F .textdata	0000001c .hidden process_del
00003da6 g     F .textdata	00000044 .hidden step
00003dea g     F .textdata	00000007 .hidden ref_get
00003df1 g     F .textdata	0000001e .hidden ref_put
00003e0f g     F .textdata	00000026 .hidden initialise
00003e35 g     F .textdata	00000042 .hidden startup
00003e77 g     F .textdata	00000049 .hidden shutdown
00003ec0 g     F .textdata	00000010 .hidden strcpy
00003ed0 g     F .textdata	00000018 .hidden strncpy
00003ee8 g     F .textdata	0000001e .hidden strcat
00003f06 g     F .textdata	0000001b .hidden strcmp
00003f21 g     F .textdata	0000003f .hidden strcasecmp
00003f60 g     F .textdata	00000011 .hidden strchr
00003f71 g     F .textdata	00000021 .hidden strrchr
00003f92 g     F .textdata	00000015 .hidden strnlen
00003fa7 g     F .textdata	00000020 .hidden memcmp
00003fc7 g     F .textdata	00000061 .hidden strstr
00004028 g     F .textdata	00000016 .hidden memchr
0000403e g     F .textdata	0000003c .hidden strndup
0000407a g     F .textdata	00000005 .hidden strdup
0000407f l     F .textdata	0000000a cputchar
00004089 l     F .textdata	0000000f printf_sputc
00004098 l     F .textdata	00000007 printf_putchar
0000409f g     F .textdata	000002a9 .hidden vcprintf
00004348 g     F .textdata	0000004d .hidden vsnprintf
00004395 g     F .textdata	00000017 .hidden snprintf
000043ac g     F .textdata	00000012 .hidden vssnprintf
000043be g     F .textdata	00000017 .hidden ssnprintf
000043d5 g     F .textdata	0000002a .hidden vprintf
000043ff g     F .textdata	0000000e .hidden printf
0000440d l     F .textdata	0000003a posix_fd_to_file
00004447 l     F .textdata	00000043 posix_file_xfer_deliver_iob
0000448a l     F .textdata	00000030 posix_file_free
000044ba l     F .textdata	00000027 posix_file_xfer_close
000044e1 g     F .textdata	0000010a .hidden open
000045eb g     F .textdata	00000066 .hidden select
00004651 g     F .textdata	0000008d .hidden read_user
000046de g     F .textdata	00000013 .hidden fsize
000046f1 g     F .textdata	00000050 .hidden close
00004741 l     F .textdata	0000003c has_input
0000477d g     F .textdata	00000048 .hidden putchar
000047c5 g     F .textdata	0000002b .hidden getchar
000047f0 g     F .textdata	0000000e .hidden iskey
000047fe g     F .textdata	00000068 .hidden xfer_open_uri
00004866 g     F .textdata	0000002f .hidden xfer_open_uri_string
00004895 g     F .textdata	00000045 .hidden xfer_open_socket
000048da g     F .textdata	00000036 .hidden xfer_vopen
00004910 g     F .textdata	00000012 .hidden xfer_open
00004922 g     F .textdata	0000001d .hidden xfer_vreopen
0000493f g     F .textdata	00000017 .hidden acpi_fix_checksum
00004956 g     F .textdata	00000001 .hidden ignore_resolv_done
00004957 l     F .textdata	00000014 resolv_mux_try
0000496b l     F .textdata	000000a1 numeric_resolv
00004a0c l     F .textdata	00000050 named_resolv_done
00004a5c l     F .textdata	00000024 named_xfer_close
00004a80 g     F .textdata	00000047 .hidden resolv_done
00004ac7 l     F .textdata	00000019 numeric_step
00004ae0 l     F .textdata	0000005c resolv_mux_done
00004b3c g     F .textdata	000000b4 .hidden resolv
00004bf0 g     F .textdata	000000b6 .hidden xfer_open_named_socket
00004ca6 g     F .textdata	0000007a .hidden strtoul
00004d20 g     F .textdata	0000007e .hidden inet_aton
00004d9e g     F .textdata	00000030 .hidden churi
00004dce g     F .textdata	00000085 .hidden alloc_memblock
00004e53 g     F .textdata	0000008f .hidden free_memblock
00004ee2 l     F .textdata	0000001a init_heap
00004efc g     F .textdata	00000057 .hidden realloc
00004f53 g     F .textdata	00000006 .hidden malloc
00004f59 g     F .textdata	00000004 .hidden free
00004f5d g     F .textdata	0000001d .hidden zalloc
00004f7a g     F .textdata	00000008 .hidden mpopulate
00004f82 g     F .textdata	000000ba .hidden ansiesc_process
0000503c l     F .textdata	00000068 probe_devices
000050a4 l     F .textdata	0000004e remove_devices
000050f2 l     F .textdata	00000069 echo_exec
0000515b l     F .textdata	00000045 split_args
000051a0 g     F .textdata	0000009a .hidden execv
0000523a g     F .textdata	00000149 .hidden system
00005383 l     F .textdata	00000013 serial_fini
00005396 l     F .textdata	0000007b serial_init
00005411 g     F .textdata	0000002f .hidden serial_putc
00005440 g     F .textdata	0000001d .hidden serial_getc
0000545d g     F .textdata	0000000a .hidden serial_ischar
00005467 g     F .textdata	00000018 .hidden basename
0000547f g     F .textdata	00000039 .hidden dirname
000054b8 g     F .textdata	00000037 .hidden cpio_set_field
000054ef g     F .textdata	00000037 .hidden alloc_iob
00005526 g     F .textdata	00000017 .hidden free_iob
0000553d g     F .textdata	00000010 .hidden iob_ensure_headroom
0000554d l     F .textdata	00000025 free_image
00005572 g     F .textdata	00000025 .hidden alloc_image
00005597 g     F .textdata	00000042 .hidden image_set_uri
000055d9 g     F .textdata	00000025 .hidden image_set_cmdline
000055fe g     F .textdata	00000063 .hidden register_image
00005661 g     F .textdata	00000010 .hidden unregister_image
00005671 g     F .textdata	00000049 .hidden find_image
000056ba g     F .textdata	00000021 .hidden image_load
000056db g     F .textdata	00000056 .hidden image_autoload
00005731 g     F .textdata	0000007d .hidden image_exec
000057ae g     F .textdata	00000016 .hidden register_and_autoload_image
000057c4 g     F .textdata	00000016 .hidden register_and_autoexec_image
000057da g     F .textdata	00000016 .hidden mdelay
000057f0 g     F .textdata	00000018 .hidden sleep
00005808 g     F .textdata	00000080 .hidden uuid_ntoa
00005888 l     F .textdata	00000006 aoe_detached_command
0000588e l     F .textdata	0000002b aoe_done
000058b9 l     F .textdata	000001af aoe_send_command
00005a68 l     F .textdata	0000016e aoe_rx
00005bd6 l     F .textdata	00000020 aoe_command
00005bf6 l     F .textdata	00000016 aoe_timer_expired
00005c0c l     F .textdata	00000013 aoe_free
00005c1f g     F .textdata	00000042 .hidden aoe_detach
00005c61 g     F .textdata	00000161 .hidden aoe_attach
00005dc2 l     F .textdata	00000001 ipv4_frag_expired
00005dc3 l     F .textdata	00000039 ipv4_arp_check
00005dfc l     F .textdata	0000004e ipv4_pshdr_chksum
00005e4a l     F .textdata	00000282 ipv4_rx
000060cc l     F .textdata	000001f0 ipv4_tx
000062bc l     F .textdata	000001ac ipv4_create_routes
00006468 g     F .textdata	0000003f .hidden inet_ntoa
000064a7 l     F .textdata	00000004 ipv4_ntoa
000064ab l     F .textdata	0000003b netdev_record_stat.part.0
000064e6 g     F .textdata	00000017 .hidden netdev_link_down
000064fd g     F .textdata	00000028 .hidden netdev_tx_complete_err
00006525 g     F .textdata	00000045 .hidden netdev_tx
0000656a g     F .textdata	00000014 .hidden netdev_tx_complete_next_err
0000657e g     F .textdata	00000019 .hidden netdev_rx
00006597 g     F .textdata	00000029 .hidden netdev_rx_err
000065c0 g     F .textdata	0000000d .hidden netdev_poll
000065cd g     F .textdata	0000001a .hidden netdev_rx_dequeue
000065e7 l     F .textdata	00000020 netdev_rx_flush
00006607 l     F .textdata	00000035 free_netdev
0000663c g     F .textdata	000000a9 .hidden alloc_netdev
000066e5 g     F .textdata	0000007e .hidden register_netdev
00006763 g     F .textdata	00000047 .hidden netdev_open
000067aa g     F .textdata	0000003f .hidden netdev_close
000067e9 g     F .textdata	00000026 .hidden unregister_netdev
0000680f g     F .textdata	00000006 .hidden netdev_irq
00006815 g     F .textdata	00000049 .hidden find_netdev
0000685e g     F .textdata	00000044 .hidden find_netdev_by_location
000068a2 g     F .textdata	00000021 .hidden last_opened_netdev
000068c3 g     F .textdata	0000004b .hidden net_tx
0000690e g     F .textdata	0000003d .hidden net_rx
0000694b l     F .textdata	00000088 net_step
000069d3 l     F .textdata	00000079 retry_step
00006a4c g     F .textdata	00000064 .hidden start_timer
00006ab0 g     F .textdata	00000011 .hidden start_timer_fixed
00006ac1 g     F .textdata	00000046 .hidden stop_timer
00006b07 l     F .textdata	00000091 icmp_rx
00006b98 l     F .textdata	00000005 netdev_clear
00006b9d l     F .textdata	000000c6 netdev_fetch
00006c63 l     F .textdata	00000070 netdev_store
00006cd3 l     F .textdata	00000003 iscsi_tx_nothing
00006cd6 l     F .textdata	00000005 iscsi_rx_discard
00006cdb l     F .textdata	000000d6 iscsi_start_data_out
00006db1 l     F .textdata	00000019 iscsi_rx_bhs
00006dca l     F .textdata	00000105 iscsi_tx_step
00006ecf l     F .textdata	0000002a iscsi_tx_data_padding
00006ef9 l     F .textdata	00000013 iscsi_tx_bhs
00006f0c l     F .textdata	00000019 iscsi_handle_chap_n_value
00006f25 l     F .textdata	00000022 iscsi_handle_chap_a_value
00006f47 l     F .textdata	0000002a iscsi_handle_authmethod_value
00006f71 l     F .textdata	00000053 iscsi_handle_targetaddress_value
00006fc4 l     F .textdata	0000002c iscsi_vredirect
00006ff0 l     F .textdata	000000b8 iscsi_handle_chap_c_value
000070a8 l     F .textdata	0000011c iscsi_handle_chap_r_value
000071c4 l     F .textdata	000000a0 apply_iscsi_settings
00007264 l     F .textdata	0000004f iscsi_close_connection
000072b3 l     F .textdata	00000150 iscsi_socket_deliver_raw
00007403 l     F .textdata	0000008a iscsi_handle_chap_i_value
0000748d l     F .textdata	00000058 iscsi_free
000074e5 l     F .textdata	000000c1 iscsi_start_command
000075a6 g     F .textdata	0000004c .hidden iscsi_detach
000075f2 g     F .textdata	00000204 .hidden iscsi_attach
000077f6 g     F .textdata	00000028 .hidden iscsi_initiator_iqn
0000781e l     F .textdata	0000020b iscsi_build_login_request_strings
00007a29 l     F .textdata	000000a2 iscsi_start_login
00007acb l     F .textdata	00000070 iscsi_open_connection
00007b3b l     F .textdata	0000003e iscsi_command
00007b79 l     F .textdata	0000005b iscsi_socket_close
00007bd4 l     F .textdata	00000374 iscsi_rx_data
00007f48 l     F .textdata	000000cc iscsi_tx_data
00008014 l     F .textdata	00000007 ftp_uri_path
0000801b l     F .textdata	0000001c ftp_user
00008037 l     F .textdata	0000001c ftp_password
00008053 l     F .textdata	00000008 ftp_data_deliver_iob
0000805b l     F .textdata	00000058 ftp_next_state
000080b3 l     F .textdata	00000035 ftp_parse_value
000080e8 l     F .textdata	00000013 ftp_free
000080fb l     F .textdata	00000040 ftp_done
0000813b l     F .textdata	00000108 ftp_open
00008243 l     F .textdata	00000011 ftp_data_closed
00008254 l     F .textdata	0000014a ftp_control_deliver_raw
0000839e l     F .textdata	00000008 ftp_control_close
000083a6 l     F .textdata	00000008 ftp_xfer_closed
000083ae l     F .textdata	00000077 http_rx_header
00008425 l     F .textdata	00000048 http_rx_content_length
0000846d l     F .textdata	00000010 http_rx_location
0000847d l     F .textdata	0000001b http_free
00008498 l     F .textdata	00000055 http_done
000084ed l     F .textdata	000000c0 http_socket_deliver_iob
000085ad l     F .textdata	00000008 http_socket_close
000085b5 l     F .textdata	00000008 http_xfer_close
000085bd l     F .textdata	000000a4 http_rx_response
00008661 l     F .textdata	00000180 http_step
000087e1 g     F .textdata	00000128 .hidden http_open_filter
00008909 l     F .textdata	0000000d http_open
00008916 l     F .textdata	0000001d https_open
00008933 l     F .textdata	00000018 dns_skip_name
0000894b l     F .textdata	0000003d dns_done
00008988 l     F .textdata	0000000e dns_xfer_close
00008996 l     F .textdata	00000047 dns_send_packet
000089dd l     F .textdata	00000013 dns_timer_expired
000089f0 l     F .textdata	0000020a dns_xfer_deliver_raw
00008bfa l     F .textdata	00000182 dns_resolv
00008d7c l     F .textdata	00000043 apply_dns_settings
00008dbf l     F .textdata	00000004 tftp_xfer_window
00008dc3 l     F .textdata	0000001b tftp_free
00008dde l     F .textdata	0000004a tftp_done
00008e28 l     F .textdata	00000005 tftp_xfer_close
00008e2d l     F .textdata	00000027 tftp_process_tsize
00008e54 l     F .textdata	00000027 tftp_process_blksize
00008e7b l     F .textdata	0000006a tftp_reopen
00008ee5 l     F .textdata	00000030 tftp_reopen_mc
00008f15 l     F .textdata	00000044 tftp_presize
00008f59 l     F .textdata	0000007f tftp_apply_settings
00008fd8 l     F .textdata	00000082 tftp_send_error.constprop.8
0000905a l     F .textdata	0000016b tftp_send_packet
000091c5 l     F .textdata	00000083 tftp_timer_expired
00009248 l     F .textdata	0000027a tftp_rx.isra.6
000094c2 l     F .textdata	0000000d tftp_mc_socket_deliver_iob
000094cf l     F .textdata	00000011 tftp_socket_deliver_iob
000094e0 l     F .textdata	000000e5 tftp_process_multicast
000095c5 l     F .textdata	0000012f tftp_core_open
000096f4 l     F .textdata	0000000f tftp_open
00009703 l     F .textdata	0000000f tftpsize_open
00009712 l     F .textdata	0000000f tftm_open
00009721 l     F .textdata	0000001f mtftp_open
00009740 g     F .textdata	0000001e .hidden tftp_set_request_blksize
0000975e g     F .textdata	00000012 .hidden tftp_set_mtftp_address
00009770 g     F .textdata	00000015 .hidden tftp_set_mtftp_port
00009785 l     F .textdata	0000008f script_exec
00009814 l     F .textdata	00000065 script_load
00009879 g     F .textdata	00000126 .hidden elf_load
0000999f g     F .textdata	000000c4 .hidden prep_segment
00009a63 l     F .textdata	00000001 embedded_image_free
00009a64 l     F .textdata	00000027 embedded_init
00009a8b l     F .textdata	00000085 ata_read
00009b10 l     F .textdata	00000085 ata_write
00009b95 l     F .textdata	000000a5 ata_identify
00009c3a g     F .textdata	00000018 .hidden init_atadev
00009c52 l     F .textdata	00000037 scsi_command
00009c89 l     F .textdata	00000073 scsi_write_16
00009cfc l     F .textdata	00000073 scsi_read_16
00009d6f l     F .textdata	00000058 scsi_write_10
00009dc7 l     F .textdata	00000058 scsi_read_10
00009e1f l     F .textdata	0000005c scsi_read_capacity_10
00009e7b g     F .textdata	00000006 .hidden scsi_detached_command
00009e81 g     F .textdata	000000c3 .hidden init_scsidev
00009f44 g     F .textdata	00000066 .hidden scsi_parse_lun
00009faa l     F .textdata	00000009 f1
00009fb3 l     F .textdata	00000009 f2
00009fbc l     F .textdata	00000007 f3
00009fc3 l     F .textdata	00000009 f4
00009fcc l     F .textdata	000000bf md5_transform
0000a08b l     F .textdata	0000002a md5_init
0000a0b5 l     F .textdata	0000009a md5_update
0000a14f l     F .textdata	00000097 md5_final
0000a1e6 g     F .textdata	00000037 .hidden chap_init
0000a21d g     F .textdata	0000000f .hidden chap_update
0000a22c g     F .textdata	00000010 .hidden chap_respond
0000a23c g     F .textdata	00000017 .hidden chap_finish
0000a253 g     F .textdata	00000003 .hidden shell_banner
0000a256 g     F .textdata	00000086 .hidden strerror
0000a2dc l     F .textdata	0000002a exit_exec
0000a306 l     F .textdata	00000098 help_exec
0000a39e g     F .textdata	00000042 .hidden shell
0000a3e0 l     F .textdata	000000b0 imgfill_cmdline
0000a490 l     F .textdata	0000008a imgload_exec
0000a51a l     F .textdata	00000087 imgargs_exec
0000a5a1 l     F .textdata	000000c1 imgexec_exec
0000a662 l     F .textdata	0000007b imgstat_exec
0000a6dd l     F .textdata	000000b4 imgfree_exec
0000a791 l     F .textdata	00000162 imgfetch_core_exec.constprop.5
0000a8f3 l     F .textdata	0000000b imgfetch_exec
0000a8fe l     F .textdata	0000000e kernel_exec
0000a90c l     F .textdata	0000000e chain_exec
0000a91a l     F .textdata	00000056 route_exec
0000a970 l     F .textdata	000000b5 pxebs_exec
0000aa25 l     F .textdata	0000008b dhcp_exec
0000aab0 l     F .textdata	0000002b autoboot_exec
0000aadb l     F .textdata	00000008 ifstat_payload
0000aae3 l     F .textdata	00000008 ifclose_payload
0000aaeb l     F .textdata	00000005 ifopen_payload
0000aaf0 g     F .textdata	000000e5 .hidden ifcommon_exec
0000abd5 l     F .textdata	00000020 ifstat_exec
0000abf5 l     F .textdata	00000020 ifclose_exec
0000ac15 l     F .textdata	00000020 ifopen_exec
0000ac35 l     F .textdata	00000074 sanboot_exec
0000aca9 l     F .textdata	0000003d login_exec
0000ace6 l     F .textdata	00000060 config_exec
0000ad46 l     F .textdata	00000054 clear_exec
0000ad9a l     F .textdata	00000058 set_exec
0000adf2 l     F .textdata	00000080 show_exec
0000ae72 l     F .textdata	0000006e vmsg
0000aee0 l     F .textdata	00000012 msg
0000aef2 l     F .textdata	0000004c load_setting
0000af3e l     F .textdata	0000001d colour_set.constprop.4
0000af5b l     F .textdata	00000027 clearmsg
0000af82 l     F .textdata	00000058 alert.constprop.0
0000afda l     F .textdata	000000ed draw_setting
0000b0c7 l     F .textdata	00000284 main_loop
0000b34b g     F .textdata	00000089 .hidden settings_ui
0000b3d4 g     F .textdata	0000022c .hidden login_ui
0000b600 g     F .textdata	00000028 .hidden colour_content
0000b628 g     F .textdata	00000031 .hidden init_pair
0000b659 g     F .textdata	00000033 .hidden pair_content
0000b68c l     F .textdata	0000000d _printw_handler
0000b699 g     F .textdata	0000000a .hidden waddch
0000b6a3 g     F .textdata	0000000d .hidden waddnstr
0000b6b0 g     F .textdata	0000002a .hidden vw_printw
0000b6da g     F .textdata	00000012 .hidden wprintw
0000b6ec l     F .textdata	00000016 _wupdcurs
0000b702 g     F .textdata	00000050 .hidden _wputch
0000b752 g     F .textdata	0000000a .hidden _wputc
0000b75c g     F .textdata	0000002f .hidden _wcursback
0000b78b g     F .textdata	0000002e .hidden _wputchstr
0000b7b9 g     F .textdata	0000002e .hidden _wputstr
0000b7e7 g     F .textdata	00000026 .hidden wmove
0000b80d g     F .textdata	00000048 .hidden initscr
0000b855 g     F .textdata	00000065 .hidden endwin
0000b8ba g     F .textdata	00000004 .hidden getbkgd
0000b8be g     F .textdata	00000008 .hidden wattroff
0000b8c6 g     F .textdata	00000006 .hidden wattron
0000b8cc g     F .textdata	00000011 .hidden wattrset
0000b8dd g     F .textdata	00000018 .hidden wattr_get
0000b8f5 g     F .textdata	00000008 .hidden wattr_off
0000b8fd g     F .textdata	00000006 .hidden wattr_on
0000b903 g     F .textdata	0000001d .hidden wattr_set
0000b920 g     F .textdata	0000001e .hidden wcolour_set
0000b93e l     F .textdata	00000005 ansiscr_peek
0000b943 l     F .textdata	00000005 ansiscr_getc
0000b948 l     F .textdata	0000003f ansiscr_movetoyx
0000b987 l     F .textdata	0000002d ansiscr_reset
0000b9b4 l     F .textdata	00000081 ansiscr_putc
0000ba35 g     F .textdata	00000032 .hidden wclrtobot
0000ba67 g     F .textdata	00000031 .hidden wclrtoeol
0000ba98 g     F .textdata	0000001d .hidden wdelch
0000bab5 g     F .textdata	0000002c .hidden wdeleteln
0000bae1 g     F .textdata	00000017 .hidden werase
0000baf8 g     F .textdata	0000006c .hidden init_editbox
0000bb64 g     F .textdata	000000f9 .hidden draw_editbox
0000bc5d l     F .textdata	00000039 close_all_netdevs
0000bc96 g     F .textdata	000000e0 .hidden boot_next_server_and_filename
0000bd76 g     F .textdata	00000062 .hidden boot_root_path
0000bdd8 l     F .textdata	000001c4 netboot
0000bf9c g     F .textdata	00000058 .hidden autoboot
0000bff4 l     F .textdata	0000004c ifstat_errors
0000c040 g     F .textdata	0000003a .hidden ifopen
0000c07a g     F .textdata	00000005 .hidden ifclose
0000c07f g     F .textdata	000000d4 .hidden ifstat
0000c153 g     F .textdata	0000008f .hidden iflinkwait
0000c1e2 g     F .textdata	000000d1 .hidden dhcp
0000c2b3 g     F .textdata	0000004b .hidden pxebs
0000c2fe l     F .textdata	000000d2 pxe_menu_draw_item
0000c3d0 l     F .textdata	00000138 pxe_menu_select
0000c508 l     F .textdata	000002d4 pxe_menu_boot
0000c7dc g     F .textdata	000000b3 .hidden imgfetch
0000c88f g     F .textdata	00000005 .hidden imgload
0000c894 g     F .textdata	00000005 .hidden imgexec
0000c899 g     F .textdata	00000045 .hidden imgautoselect
0000c8de g     F .textdata	00000075 .hidden imgstat
0000c953 g     F .textdata	00000005 .hidden imgfree
0000c958 g     F .textdata	0000009c .hidden route
0000c9f4 g     F .textdata	00000101 .hidden relocate
0000caf5 g     F .textdata	00000031 .hidden timer2_udelay
0000cb26 g     F .textdata	00000050 .hidden copy_user_to_rm_stack
0000cb76 g     F .textdata	00000045 .hidden remove_user_from_rm_stack
0000cbbb l     F .textdata	00000045 gateA20_is_set
0000cc00 l     F .textdata	00000024 empty_8042
0000cc24 g     F .textdata	00000103 .hidden gateA20_set
0000cd27 g     F .textdata	00000001 .hidden gateA20_unset
0000cd28 g     F .textdata	00000053 .hidden extmemsize
0000cd7b g     F .textdata	0000018a .hidden get_memmap
0000cf05 g     F .textdata	000000a0 .hidden call_bootsector
0000cfa5 l     F .textdata	00000001 undinet_irq
0000cfa6 l     F .textdata	00000177 undinet_poll
0000d11d l     F .textdata	000000c0 undinet_transmit
0000d1dd l     F .textdata	000000c3 undinet_close
0000d2a0 l     F .textdata	000000d9 undinet_open
0000d379 g     F .textdata	000002ca .hidden undinet_probe
0000d643 g     F .textdata	000000c2 .hidden undinet_remove
0000d705 g     F .textdata	0000003c .hidden abft_fill_data
0000d741 l     F .textdata	000001df memtop_urealloc
0000d741 g     F .textdata	000001df .hidden urealloc
0000d920 g     F .textdata	00000058 .hidden hook_bios_interrupt
0000d978 g     F .textdata	0000006a .hidden unhook_bios_interrupt
0000d9e2 l     F .textdata	00000050 bios_currticks
0000d9e2 g     F .textdata	00000050 .hidden currticks
0000da32 l     F .textdata	0000000e bios_cpu_nap
0000da32 g     F .textdata	0000000e .hidden cpu_nap
0000da40 l     F .textdata	00000089 pxe_udp_deliver_iob
0000dac9 g     F .textdata	00000041 .hidden pxenv_udp_open
0000db0a g     F .textdata	00000018 .hidden pxenv_udp_close
0000db22 g     F .textdata	000000d7 .hidden pxenv_udp_write
0000dbf9 g     F .textdata	00000059 .hidden pxenv_udp_read
0000dc52 l     F .textdata	00000021 pxe_netdev_close
0000dc73 l     F .textdata	00000024 pxe_netdev_open
0000dc97 g     F .textdata	0000002e .hidden pxe_set_netdev
0000dcc5 g     F .textdata	00000008 .hidden pxenv_undi_startup
0000dccd g     F .textdata	00000011 .hidden pxenv_undi_cleanup
0000dcde g     F .textdata	00000008 .hidden pxenv_undi_initialize
0000dce6 g     F .textdata	0000002d .hidden pxenv_undi_reset_adapter
0000dd13 g     F .textdata	00000011 .hidden pxenv_undi_shutdown
0000dd24 g     F .textdata	00000028 .hidden pxenv_undi_open
0000dd4c g     F .textdata	00000011 .hidden pxenv_undi_close
0000dd5d g     F .textdata	000001e4 .hidden pxenv_undi_transmit
0000df41 g     F .textdata	00000008 .hidden pxenv_undi_set_mcast_address
0000df49 g     F .textdata	00000038 .hidden pxenv_undi_set_station_address
0000df81 g     F .textdata	00000008 .hidden pxenv_undi_set_packet_filter
0000df89 g     F .textdata	0000006b .hidden pxenv_undi_get_information
0000dff4 g     F .textdata	00000029 .hidden pxenv_undi_get_statistics
0000e01d g     F .textdata	00000032 .hidden pxenv_undi_clear_statistics
0000e04f g     F .textdata	0000000b .hidden pxenv_undi_initiate_diags
0000e05a g     F .textdata	0000000b .hidden pxenv_undi_force_interrupt
0000e065 g     F .textdata	0000003e .hidden pxenv_undi_get_mcast_address
0000e0a3 g     F .textdata	00000092 .hidden pxenv_undi_get_nic_type
0000e135 g     F .textdata	0000003a .hidden pxenv_undi_get_iface_info
0000e16f g     F .textdata	0000000b .hidden pxenv_undi_get_state
0000e17a g     F .textdata	00000199 .hidden pxenv_undi_isr
0000e313 g     F .textdata	0000003e .hidden undi_loader
0000e351 g     F .textdata	00000030 .hidden pxe_set_cached_filename
0000e381 g     F .textdata	00000008 .hidden pxenv_unload_stack
0000e389 g     F .textdata	000000b4 .hidden pxenv_get_cached_info
0000e43d g     F .textdata	0000003b .hidden pxenv_restart_tftp
0000e478 g     F .textdata	00000064 .hidden pxenv_start_undi
0000e4dc g     F .textdata	00000036 .hidden pxenv_stop_undi
0000e512 g     F .textdata	0000000b .hidden pxenv_start_base
0000e51d g     F .textdata	00000008 .hidden pxenv_stop_base
0000e525 l     F .textdata	00000021 pxe_tftp_close
0000e546 l     F .textdata	00000004 pxe_tftp_xfer_close
0000e54a l     F .textdata	000000db pxe_tftp_open
0000e625 l     F .textdata	0000009a pxe_tftp_xfer_deliver_iob
0000e6bf g     F .textdata	00000091 .hidden pxenv_tftp_open
0000e750 g     F .textdata	00000013 .hidden pxenv_tftp_close
0000e763 g     F .textdata	00000099 .hidden pxenv_tftp_read
0000e7fc g     F .textdata	0000008e .hidden pxenv_tftp_read_file
0000e88a g     F .textdata	0000007a .hidden pxenv_tftp_get_fsize
0000e904 g     F .textdata	00000074 .hidden pxenv_file_open
0000e978 g     F .textdata	00000015 .hidden pxenv_file_close
0000e98d g     F .textdata	00000042 .hidden pxenv_file_select
0000e9cf g     F .textdata	0000004c .hidden pxenv_file_read
0000ea1b g     F .textdata	0000002f .hidden pxenv_get_file_size
0000ea4a g     F .textdata	00000072 .hidden pxenv_file_exec
0000eabc g     F .textdata	00000069 .hidden pxenv_file_api_check
0000eb25 g     F .textdata	00000042 .hidden pxenv_file_exit_hook
0000eb67 l     F .textdata	0000006c _w_get_cached_dhcpack
0000ebd3 g     F .textdata	0000008a .hidden pxeparent_call
0000ec5d g     F .textdata	0000001d .hidden isspace
0000ec7a g     F .textdata	00000062 .hidden getkey
0000ecdc g     F .textdata	00000281 .hidden getopt_long
0000ef5d g     F .textdata	0000005a .hidden bitmap_resize
0000efb7 g     F .textdata	00000020 .hidden bitmap_test
0000efd7 g     F .textdata	00000032 .hidden bitmap_set
0000f009 l     F .textdata	0000000f downloader_job_progress
0000f018 l     F .textdata	00000013 downloader_free
0000f02b l     F .textdata	00000037 downloader_finished
0000f062 l     F .textdata	00000017 downloader_xfer_close
0000f079 l     F .textdata	0000000a downloader_job_kill
0000f083 l     F .textdata	00000077 downloader_xfer_deliver_iob
0000f0fa g     F .textdata	000000a7 .hidden create_downloader
0000f1a1 g     F .textdata	00000001 .hidden ignore_xfer_close
0000f1a2 g     F .textdata	00000003 .hidden ignore_xfer_vredirect
0000f1a5 g     F .textdata	00000004 .hidden unlimited_xfer_window
0000f1a9 g     F .textdata	00000003 .hidden ignore_xfer_deliver_raw
0000f1ac g     F .textdata	00000007 .hidden default_xfer_alloc_iob
0000f1b3 g     F .textdata	00000020 .hidden xfer_deliver_as_raw
0000f1d3 g     F .textdata	00000052 .hidden xfer_close
0000f225 g     F .textdata	00000037 .hidden xfer_vredirect
0000f25c g     F .textdata	00000012 .hidden xfer_redirect
0000f26e g     F .textdata	00000023 .hidden xfer_window
0000f291 g     F .textdata	0000002b .hidden xfer_alloc_iob
0000f2bc g     F .textdata	00000037 .hidden xfer_deliver_iob_meta
0000f2f3 g     F .textdata	00000013 .hidden xfer_deliver_iob
0000f306 g     F .textdata	00000037 .hidden xfer_deliver_raw
0000f33d g     F .textdata	0000004c .hidden xfer_vprintf
0000f389 g     F .textdata	00000012 .hidden xfer_printf
0000f39b g     F .textdata	00000042 .hidden xfer_seek
0000f3dd g     F .textdata	00000003 .hidden no_xfer_window
0000f3e0 g     F .textdata	00000055 .hidden xfer_deliver_as_iob
0000f435 g     F .textdata	0000000c .hidden buffered_line
0000f441 g     F .textdata	00000020 .hidden empty_line_buffer
0000f461 g     F .textdata	000000a2 .hidden line_buffer
0000f503 g     F .textdata	0000008f .hidden base64_encode
0000f592 g     F .textdata	00000001 .hidden ignore_job_done
0000f593 g     F .textdata	00000001 .hidden ignore_job_kill
0000f594 g     F .textdata	0000000f .hidden ignore_job_progress
0000f5a3 g     F .textdata	0000003f .hidden job_done
0000f5e2 g     F .textdata	0000003a .hidden job_kill
0000f61c g     F .textdata	00000024 .hidden job_progress
0000f640 l     F .textdata	00000011 monojob_done
0000f651 g     F .textdata	000000c6 .hidden monojob_wait
0000f717 g     F .textdata	00000012 .hidden srandom
0000f729 g     F .textdata	0000005f .hidden random
0000f788 l     F .textdata	000000c5 copy_encap_settings
0000f84d g     F .textdata	0000001d .hidden create_fakedhcpdiscover
0000f86a g     F .textdata	00000045 .hidden create_fakedhcpack
0000f8af g     F .textdata	0000009b .hidden create_fakepxebsack
0000f94a l     F .textdata	00000088 tcp_bind
0000f9d2 l     F .textdata	0000008a tcp_process_queue
0000fa5c l     F .textdata	0000008e tcp_rx_ack
0000faea l     F .textdata	000000dc tcp_open
0000fbc6 l     F .textdata	00000062 tcp_open_uri
0000fc28 l     F .textdata	000000a8 tcp_xmit_reset.isra.6
0000fcd0 l     F .textdata	000001f5 tcp_xmit
0000fec5 l     F .textdata	00000021 tcp_xfer_deliver_iob
0000fee6 l     F .textdata	000000a7 tcp_close
0000ff8d l     F .textdata	0000003c tcp_expired
0000ffc9 l     F .textdata	00000015 tcp_xfer_close
0000ffde l     F .textdata	00000032 tcp_xfer_window
00010010 l     F .textdata	0000033e tcp_rx
0001034e l     F .textdata	00000011 arp_ntoa
0001035f l     F .textdata	00000050 arp_find_entry
000103af l     F .textdata	0000019e arp_rx
0001054d g     F .textdata	0000010d .hidden arp_resolve
0001065a l     F .textdata	00000038 eth_push
00010692 l     F .textdata	00000037 eth_pull
000106c9 g     F .textdata	0000000c .hidden eth_init_addr
000106d5 g     F .textdata	0000002d .hidden eth_mc_hash
00010702 g     F .textdata	0000000e .hidden eth_eth_addr
00010710 g     F .textdata	00000045 .hidden eth_ntoa
00010755 g     F .textdata	00000030 .hidden alloc_etherdev
00010785 g     F .textdata	0000004f .hidden tcpip_rx
000107d4 g     F .textdata	00000050 .hidden tcpip_tx
00010824 g     F .textdata	00000034 .hidden tcpip_continue_chksum
00010858 g     F .textdata	0000000b .hidden tcpip_chksum
00010863 l     F .textdata	00000033 tls_newdata_process_header
00010896 l     F .textdata	00000040 tls_close
000108d6 l     F .textdata	000000fd tls_cipherstream_deliver_raw
000109d3 l     F .textdata	00000008 tls_cipherstream_close
000109db l     F .textdata	00000008 tls_plainstream_close
000109e3 l     F .textdata	00000011 tls_plainstream_window
000109f4 l     F .textdata	00000042 tls_clear_cipher.isra.17
00010a36 l     F .textdata	00000044 free_tls
00010a7a l     F .textdata	0000004c tls_change_cipher.isra.18
00010ac6 l     F .textdata	00000036 tls_add_handshake
00010afc l     F .textdata	00000090 tls_hmac.isra.20
00010b8c l     F .textdata	000001d4 tls_send_plaintext
00010d60 l     F .textdata	00000021 tls_send_handshake
00010d81 l     F .textdata	00000029 tls_plainstream_deliver_raw
00010daa l     F .textdata	00000131 tls_p_hash_va.isra.21
00010edb l     F .textdata	00000081 tls_prf.constprop.23
00010f5c l     F .textdata	00000261 tls_step
000111bd l     F .textdata	000005f5 tls_newdata_process_data
000117b2 g     F .textdata	0000013d .hidden add_tls
000118ef l     F .textdata	00000011 rarp_ntoa
00011900 l     F .textdata	00000008 rarp_rx
00011908 l     F .textdata	00000006 null_open
0001190e l     F .textdata	00000006 null_transmit
00011914 l     F .textdata	00000001 null_poll
00011915 l     F .textdata	00000001 null_irq
00011916 l     F .textdata	00000001 null_close
00011917 l     F .textdata	0000000d used_len_ipv4
00011924 l     F .textdata	00000005 used_len_string
00011929 g     F .textdata	00000096 .hidden dhcppkt_store
000119bf l     F .textdata	0000000d dhcppkt_settings_store
000119cc g     F .textdata	00000094 .hidden dhcppkt_fetch
00011a60 l     F .textdata	0000000d dhcppkt_settings_fetch
00011a6d g     F .textdata	00000065 .hidden dhcppkt_init
00011ad2 g     F .textdata	00000052 .hidden store_cached_dhcpack
00011b24 l     F .textdata	0000008b udp_bind
00011baf l     F .textdata	0000015a udp_rx
00011d09 l     F .textdata	000000a8 udp_xfer_deliver_iob
00011db1 l     F .textdata	00000015 udp_alloc_iob
00011dc6 l     F .textdata	00000036 udp_xfer_close
00011dfc g     F .textdata	000000b0 .hidden udp_open
00011eac l     F .textdata	00000062 udp_open_uri
00011f0e g     F .textdata	0000006a .hidden udp_open_promisc
00011f78 l     F .textdata	00000091 find_dhcp_option_with_encap
00012009 l     F .textdata	000001dd set_dhcp_option
000121e6 g     F .textdata	00000016 .hidden dhcpopt_store
000121fc g     F .textdata	00000016 .hidden dhcpopt_extensible_store
00012212 g     F .textdata	00000034 .hidden dhcpopt_fetch
00012246 g     F .textdata	0000004f .hidden dhcpopt_init
00012295 l     F .textdata	0000004f dhcp_next_offer
000122e4 l     F .textdata	00000010 dhcp_discovery_tx
000122f4 l     F .textdata	0000003d dhcp_proxy_tx
00012331 l     F .textdata	00000054 dhcp_request_tx
00012385 l     F .textdata	00000040 dhcp_pxebs_tx
000123c5 l     F .textdata	0000002f dhcp_free
000123f4 l     F .textdata	0000003d dhcp_set_state
00012431 l     F .textdata	00000041 dhcp_finished
00012472 l     F .textdata	00000016 dhcp_timer_expired
00012488 l     F .textdata	0000000a dhcp_job_kill
00012492 l     F .textdata	000000b7 dhcp_pxebs_rx
00012549 l     F .textdata	00000165 dhcp_rx_offer
000126ae l     F .textdata	0000006d dhcp_discovery_rx
0001271b l     F .textdata	000000e4 dhcp_request_rx
000127ff l     F .textdata	0000007f dhcp_proxy_rx
0001287e l     F .textdata	000000d8 dhcp_deliver_iob
00012956 g     F .textdata	00000030 .hidden dhcp_chaddr
00012986 g     F .textdata	000000da .hidden dhcp_create_packet
00012a60 g     F .textdata	00000179 .hidden dhcp_create_request
00012bd9 l     F .textdata	000000cc dhcp_tx
00012ca5 l     F .textdata	00000049 dhcp_discovery_expired
00012cee l     F .textdata	00000005 dhcp_request_expired
00012cf3 l     F .textdata	00000064 dhcp_proxy_expired
00012d57 l     F .textdata	00000051 dhcp_pxebs_expired
00012da8 g     F .textdata	000000f8 .hidden start_dhcp
00012ea0 g     F .textdata	00000245 .hidden start_pxebs
000130e5 l     F .textdata	00000017 smbios_init
000130fc l     F .textdata	00000099 smbios_fetch
00013195 l     F .textdata	00000005 sha1_final
0001319a l     F .textdata	00000007 sha1_update
000131a1 l     F .textdata	00000005 sha1_init
000131a6 l     F .textdata	00000001 aes_setiv
000131a7 l     F .textdata	00000039 aes_call_axtls
000131e0 l     F .textdata	0000004e aes_decrypt
0001322e l     F .textdata	0000001c aes_encrypt
0001324a l     F .textdata	00000039 aes_setkey
00013283 l     F .textdata	00000029 aes_cbc_decrypt
000132ac l     F .textdata	00000029 aes_cbc_encrypt
000132d5 l     F .textdata	0000001b aes_cbc_setiv
000132f0 l     F .textdata	00000014 aes_cbc_setkey
00013304 l     F .textdata	00000039 hmac_reduce_key
0001333d g     F .textdata	00000078 .hidden hmac_init
000133b5 g     F .textdata	00000096 .hidden hmac_final
0001344b l     F .textdata	00000001 digest_null_init
0001344c l     F .textdata	00000001 digest_null_update
0001344d l     F .textdata	00000003 cipher_null_setkey
00013450 l     F .textdata	00000001 cipher_null_setiv
00013451 l     F .textdata	0000000e cipher_null_decrypt
0001345f l     F .textdata	00000004 cipher_null_encrypt
00013463 l     F .textdata	00000001 digest_null_final
00013464 g     F .textdata	00000218 .hidden x509_rsa_public_key
0001367c l     F .textdata	0000000b AES_xtime
00013687 g     F .textdata	00000176 .hidden AES_set_key
000137fd g     F .textdata	000000a6 .hidden AES_convert_key
000138a3 g     F .textdata	0000019d .hidden AES_encrypt
00013a40 g     F .textdata	000001fd .hidden AES_decrypt
00013c3d l     F .textdata	000001cb SHA1ProcessMessageBlock
00013e08 g     F .textdata	00000037 .hidden SHA1Init
00013e3f g     F .textdata	0000003c .hidden SHA1Update
00013e7b g     F .textdata	000000f1 .hidden SHA1Final
00013f6c g     F .textdata	0000006c .hidden RSA_pub_key_new
00013fd8 g     F .textdata	0000002e .hidden RSA_priv_key_new
00014006 g     F .textdata	0000004e .hidden RSA_free
00014054 g     F .textdata	00000013 .hidden RSA_private
00014067 g     F .textdata	00000013 .hidden RSA_public
0001407a g     F .textdata	000000a9 .hidden RSA_decrypt
00014123 g     F .textdata	00000096 .hidden RSA_encrypt
000141b9 l     F .textdata	00000020 trim
000141d9 l     F .textdata	0000004e more_comps
00014227 l     F .textdata	00000058 alloc
0001427f l     F .textdata	00000024 exp_bit_is_one.isra.0
000142a3 g     F .textdata	00000035 .hidden bi_initialize
000142d8 g     F .textdata	00000010 .hidden bi_copy
000142e8 g     F .textdata	00000008 .hidden bi_permanent
000142f0 g     F .textdata	00000008 .hidden bi_depermanent
000142f8 g     F .textdata	00000022 .hidden bi_free
0001431a g     F .textdata	0000003a .hidden bi_terminate
00014354 l     F .textdata	0000009f bi_int_multiply
000143f3 l     F .textdata	000000ee regular_multiply
000144e1 g     F .textdata	00000014 .hidden int_to_bi
000144f5 g     F .textdata	00000026 .hidden bi_clone
0001451b g     F .textdata	00000097 .hidden bi_add
000145b2 g     F .textdata	00000089 .hidden bi_subtract
0001463b g     F .textdata	00000064 .hidden bi_import
0001469f g     F .textdata	0000006c .hidden bi_export
0001470b g     F .textdata	00000058 .hidden bi_set_mod
00014763 g     F .textdata	00000025 .hidden bi_free_mod
00014788 g     F .textdata	00000007 .hidden bi_multiply
0001478f g     F .textdata	0000003a .hidden bi_compare
000147c9 g     F .textdata	000003ff .hidden bi_divide
00014bc8 g     F .textdata	00000148 .hidden bi_mod_power
00014d10 g     F .textdata	0000009d .hidden bi_mod_power2
00014dad l     F .textdata	000000ba insert_delete
00014e67 g     F .textdata	000000f5 .hidden edit_string
00014f5c g     F .textdata	0000012c .hidden readline
00015088 g     F .textdata	0000001f .hidden send_eoi
000150a7 g     F .textdata	0000009d .hidden find_pnp_bios
00015144 l     F .textdata	00000033 unhide_etherboot
00015177 g     F .textdata	00000034 .hidden hide_basemem
000151ab g     F .textdata	0000003f .hidden hide_umalloc
000151ea g     F .textdata	0000004c .hidden hide_textdata
00015236 l     F .textdata	000000ad hide_etherboot
000152e3 g     F .textdata	0000001b .hidden __udivdi3
000152fe g     F .textdata	00000026 .hidden __umoddi3
00015324 g     F .textdata	000000a7 .hidden __udivmoddi4
000153cb g     F .textdata	00000008 .hidden filter_close
000153d3 g     F .textdata	0000000a .hidden filter_vredirect
000153dd g     F .textdata	00000008 .hidden filter_window
000153e5 g     F .textdata	00000008 .hidden filter_alloc_iob
000153ed g     F .textdata	0000000a .hidden filter_deliver_iob
000153f7 g     F .textdata	0000000a .hidden filter_deliver_raw
00015401 g     F .textdata	000000bd .hidden find_smbios_structure
000154be g     F .textdata	00000032 .hidden read_smbios_structure
000154f0 g     F .textdata	00000076 .hidden read_smbios_string
00015566 g     F .textdata	0000006c .hidden cbc_encrypt
000155d2 g     F .textdata	0000006a .hidden cbc_decrypt
0001563c l     F .textdata	0000007b asn1_start
000156b7 g     F .textdata	00000013 .hidden asn1_enter
000156ca g     F .textdata	00000029 .hidden asn1_skip
000156f3 l     F .textdata	000000a4 bios_find_smbios
000156f3 g     F .textdata	000000a4 .hidden find_smbios
00015797 g     F .textdata	00000000 .hidden __x86.get_pc_thunk.ax
0001579b g     F .textdata	00000000 .hidden __x86.get_pc_thunk.cx
0001579f g     F .textdata	00000000 .hidden __x86.get_pc_thunk.bx
000157a3 g     F .textdata	00000000 .hidden __x86.get_pc_thunk.si
000157a7 g     F .textdata	00000000 .hidden __x86.get_pc_thunk.di
000157ab g     F .textdata	00000000 .hidden __x86.get_pc_thunk.bp
000157af g     F .textdata	00000000 .hidden __x86.get_pc_thunk.dx
000157b3 g     F .textdata	000000b2 .hidden main
00015868 l     O .textdata	0000000a bios_attr_bcols.1534
00015874 l     O .textdata	0000000a bios_attr_fcols.1533
00015880 l     O .textdata	00000007 e_ident.2105
00015888 l     O .textdata	00000005 magic.1857
00015890 l     O .textdata	000003a0 CSWTCH.48
00015c30 l     O .textdata	000000e8 CSWTCH.47
00015d8c l     O .textdata	00000009 separators.1344
00015d98 l     O .textdata	00000010 CSWTCH.94
00015da8 l     O .textdata	00000003 pad.3010
00015dac l     O .textdata	00000014 tftp_errors
00015dc0 l     O .textdata	00000007 magic.1548
00015dc7 l       .textdata	00000000 .hidden embedded_image_1_data
00015e0c l       .textdata	00000000 embedded_image_1_end
00015e0c l       .textdata	00000000 .hidden embedded_image_2_data
0002047d l       .textdata	00000000 embedded_image_2_end
00020480 l     O .textdata	00000100 k
00020580 l     O .textdata	00000040 r
000205c0 l     O .textdata	00000007 shell_prompt
000205c8 l     O .textdata	0000000c pxe_dhcp_packet_creators
000205e0 l     O .textdata	00000040 base64
00020620 l     O .textdata	00000001 change_cipher.2563
00020640 l     O .textdata	00000020 empty_sockaddr.1747
00020660 l     O .textdata	00000001 empty_encapsulator.2088
00020664 l     O .textdata	00000009 dhcp_op
00020670 l     O .textdata	00000009 oid_rsa_encryption
00020680 l     O .textdata	0000001e Rcon
000206a0 l     O .textdata	00000100 aes_isbox
000207a0 l     O .textdata	00000100 aes_sbox
00021e68 l     O .textdata	00000004 bios_attr
00021e6c l     O .textdata	00000008 drives
00021e74 l     O .textdata	0000000c comboot_resolver
00021e80 l     O .textdata	00000004 comboot_resolv_ops
00021e84 g       .textdata	00000000 .hidden rm_sp
00021e86 g       .textdata	00000000 .hidden rm_ss
00021e88 l       .textdata	00000000 pm_esp
00021e8c g       .textdata	00000000 .hidden virt_offset
00021e90 g       .textdata	00000000 .hidden text16
00021e94 g       .textdata	00000000 .hidden data16
00021e98 l     O .textdata	00000006 type_sizes
00021ea0 l     O .textdata	00000020 nameserver
00021ec0 l     O .textdata	00000020 tftp_mtftp_socket
00021ee0 l     O .textdata	00000004 tftp_request_blksize
00021ee4 l     O .textdata	00000080 embedded_images
00021f80 l     O .textdata	00000020 cpairs
00021fa0 g     O .textdata	00000002 .hidden _LINES
00021fa2 g     O .textdata	00000002 .hidden _COLS
00021fa4 l     O .textdata	00000004 test_pattern.1909
00021fa8 l     O .textdata	00000030 pxe_udp
00021fd8 l     O .textdata	00000018 pxe_udp_xfer_operations
00021ff0 l     O .textdata	00000018 pxe_tftp_xfer_ops
00022008 l     O .textdata	0000002c pxe_tftp
00022034 l     O .textdata	00000002 try_port.1853
00022038 g     O .textdata	00000004 .hidden tcp_sock_stream
0002203c l     O .textdata	00000006 eth_broadcast
00022044 l     O .textdata	00000002 try_port.1674
00022048 g     O .textdata	00000004 .hidden udp_sock_dgram
00022060 l     O .textdata	00000020 peer.2915
00022080 l     O .textdata	00000020 dhcp_peer
000220a0 l     O .textdata	00000048 dhcp_request_options_data
00022100 l     O .textdata	00000048 ansi_sequences
00022160 l     O .textdata	00000004 ansi_input
00022164 l     O .textdata	0000001c bios_ansiesc_ctx
00022180 l     O .textdata	00000020 bios_ansiesc_handlers
000221a0 l     O .textdata	00000008 undi_root_driver
000221c0 g     O .textdata	0000002c .hidden generic_settings_root
000221ec g     O .textdata	0000000c .hidden generic_settings_operations
000221f8 l     O .textdata	00000008 run_queue
00022200 l     O .textdata	00000018 posix_file_xfer_operations
00022218 l     O .textdata	00000008 posix_files
00022220 l     O .textdata	00000004 named_resolv_ops
00022224 l     O .textdata	00000018 named_xfer_ops
0002223c l     O .textdata	00000004 resolv_mux_child_ops
00022240 g     O .textdata	0000000c .hidden null_resolv
0002224c g     O .textdata	00000004 .hidden null_resolv_ops
00022250 l     O .textdata	00000008 free_blocks
00022258 l     O .textdata	00000008 devices
00022260 g     O .textdata	00000008 .hidden images
00022268 l     O .textdata	00000008 aoe_sessions
00022270 l     O .textdata	00000008 frag_buffers
00022278 g     O .textdata	00000008 .hidden ipv4_miniroutes
00022280 l     O .textdata	00000008 open_net_devices
00022288 g     O .textdata	00000008 .hidden net_devices
00022290 l     O .textdata	00000008 timers
00022298 g     O .textdata	0000000c .hidden netdev_settings_operations
000222c0 l     O .textdata	00000048 iscsi_string_settings
00022308 l     O .textdata	00000018 iscsi_socket_operations
00022320 l     O .textdata	00000040 iscsi_string_types
00022360 l     O .textdata	00000018 ftp_xfer_operations
00022378 l     O .textdata	00000018 ftp_data_operations
00022390 l     O .textdata	00000018 ftp_control_operations
000223c0 l     O .textdata	00000048 ftp_strings
00022408 l     O .textdata	00000018 http_xfer_operations
00022420 l     O .textdata	00000018 http_socket_operations
00022438 l     O .textdata	00000018 http_header_handlers
00022450 l     O .textdata	00000008 http_line_handlers
00022458 l     O .textdata	00000018 dns_socket_operations
00022480 l     O .textdata	00000018 tftp_xfer_operations
00022498 l     O .textdata	00000018 tftp_mc_socket_operations
000224b0 l     O .textdata	00000018 tftp_socket_operations
000224e0 l     O .textdata	00000020 tftp_options
00022500 l     O .textdata	00000008 ata_operations
00022508 l     O .textdata	00000008 scsi_operations_10
00022510 l     O .textdata	00000008 scsi_operations_16
00022518 g     O .textdata	0000001c .hidden md5_algorithm
00022540 l     O .textdata	00000020 md5_steps
00022560 l     O .textdata	0000000c actions.1630
00022580 l     O .textdata	00000030 longopts.1637
000225c0 l     O .textdata	00000020 longopts.1679
000225e0 l     O .textdata	00000020 longopts.1696
00022600 l     O .textdata	00000020 longopts.1713
00022620 l     O .textdata	00000020 longopts.1730
00022640 l     O .textdata	00000020 longopts.1752
00022660 l     O .textdata	00000020 longopts.1047
00022680 l     O .textdata	00000020 longopts.1692
000226a0 l     O .textdata	00000020 longopts.1709
000226c0 l     O .textdata	00000020 ifcommon_longopts
000226e0 l     O .textdata	00000020 longopts.1258
00022700 g     O .textdata	00000024 .hidden _stdscr
00022740 g     O .textdata	00000024 .hidden _ansi_screen
00022764 l     O .textdata	00000014 undinet_operations
00022778 l     O .textdata	00000018 downloader_xfer_operations
00022790 l     O .textdata	0000000c downloader_job_operations
0002279c g     O .textdata	0000000c .hidden null_xfer
000227a8 g     O .textdata	00000018 .hidden null_xfer_ops
000227c0 g     O .textdata	0000000c .hidden null_job
000227cc g     O .textdata	0000000c .hidden null_job_ops
000227d8 g     O .textdata	0000000c .hidden monojob
000227e4 l     O .textdata	0000000c monojob_operations
000227f0 l     O .textdata	00000018 tcp_xfer_operations
00022808 l     O .textdata	00000008 tcp_conns
00022810 l     O .textdata	00000018 tls_cipherstream_operations
00022828 l     O .textdata	00000018 tls_plainstream_operations
00022840 g     O .textdata	00000014 .hidden null_netdev_operations
00022860 l     O .textdata	0000000c dhcppkt_settings_operations
00022880 l     O .textdata	00000030 dhcp_packet_fields
000228b0 l     O .textdata	00000018 udp_xfer_operations
000228c8 l     O .textdata	00000008 udp_conns
000228d0 l     O .textdata	0000000c dhcp_job_operations
000228dc l     O .textdata	00000018 dhcp_xfer_operations
000228f4 l     O .textdata	00000014 dhcp_state_pxebs
00022908 l     O .textdata	00000014 dhcp_state_proxy
0002291c l     O .textdata	00000014 dhcp_state_request
00022930 l     O .textdata	00000014 dhcp_state_discover
00022960 l     O .textdata	00000024 smbios_settings
00022984 l     O .textdata	0000000c smbios_settings_operations
00022990 g     O .textdata	0000001c .hidden sha1_algorithm
000229ac g     O .textdata	0000001c .hidden aes_cbc_algorithm
000229c8 g     O .textdata	0000001c .hidden aes_algorithm
000229e4 g     O .textdata	00000008 .hidden pubkey_null
000229ec g     O .textdata	0000001c .hidden cipher_null
00022a08 g     O .textdata	0000001c .hidden digest_null
00022a24 l     O .textdata	00000000 __table_entries.1702
00022a24 g     O .textdata	00000008 .hidden ipv4_arp_protocol
00022a2c l     O .textdata	00000000 __table_entries.1513
00022a2c l     O .textdata	00000000 __table_entries.1060
00022a2c l     O .textdata	00000000 __table_entries.1704
00022a2c g     O .textdata	00000010 .hidden pxe_commands
00022a3c g     O .textdata	00000008 .hidden echo_command
00022a44 g     O .textdata	00000008 .hidden help_command
00022a4c g     O .textdata	00000008 .hidden exit_command
00022a54 g     O .textdata	00000058 .hidden image_commands
00022aac g     O .textdata	00000008 .hidden route_commands
00022ab4 g     O .textdata	00000010 .hidden dhcp_commands
00022ac4 g     O .textdata	00000008 .hidden autoboot_command
00022acc g     O .textdata	00000018 .hidden ifmgmt_commands
00022ae4 g     O .textdata	00000008 .hidden sanboot_command
00022aec g     O .textdata	00000008 .hidden login_command
00022af4 g     O .textdata	00000008 .hidden config_command
00022afc g     O .textdata	00000018 .hidden nvo_commands
00022b14 l     O .textdata	00000000 __table_entries.1084
00022b14 l     O .textdata	00000000 __table_entries.1073
00022b14 l     O .textdata	00000000 __table_entries.1515
00022b14 l     O .textdata	00000000 __table_entries.1062
00022b14 g     O .textdata	00000014 .hidden bios_console
00022b28 l     O .textdata	00000000 __table_entries.1086
00022b28 l     O .textdata	00000000 __table_entries.1075
00022b28 l     O .textdata	00000000 __table_entries.2909
00022b28 l     O .textdata	00000000 __table_entries.2905
00022b28 g     O .textdata	00000003 .hidden __dhcp_feature_comboot
00022b2b g     O .textdata	00000003 .hidden __dhcp_feature_bzimage
00022b2e g     O .textdata	00000003 .hidden __dhcp_feature_elfboot
00022b31 g     O .textdata	00000003 .hidden __dhcp_feature_multiboot
00022b34 g     O .textdata	00000003 .hidden __dhcp_feature_pxe_image
00022b37 g     O .textdata	00000003 .hidden __dhcp_feature_aoe
00022b3a g     O .textdata	00000003 .hidden __dhcp_feature_iscsi
00022b3d g     O .textdata	00000003 .hidden __dhcp_feature_ftp
00022b40 g     O .textdata	00000003 .hidden __dhcp_feature_http
00022b43 g     O .textdata	00000003 .hidden __dhcp_feature_https
00022b46 g     O .textdata	00000003 .hidden __dhcp_feature_dns
00022b49 g     O .textdata	00000003 .hidden __dhcp_feature_tftp
00022b4c g     O .textdata	00000003 .hidden __dhcp_feature_pxe_file
00022b4f g     O .textdata	00000005 .hidden __dhcp_feature_dhcp
00022b54 l     O .textdata	00000000 __table_entries.1175
00022b54 l     O .textdata	00000000 __table_entries.2907
00022b54 g     O .textdata	00000008 .hidden netdev_errors
00022b5c g     O .textdata	00000008 .hidden segment_errors
00022b64 g     O .textdata	00000088 .hidden common_errors
00022bec l     O .textdata	00000000 __table_entries.2065
00022bec l     O .textdata	00000000 __table_entries.1177
00022bec g     O .textdata	00000004 .hidden __feature_aoe
00022bf0 g     O .textdata	00000004 .hidden __feature_iscsi
00022bf4 g     O .textdata	00000004 .hidden __feature_ftp
00022bf8 g     O .textdata	00000004 .hidden __feature_http
00022bfc g     O .textdata	00000004 .hidden __feature_https
00022c00 g     O .textdata	00000004 .hidden __feature_dns
00022c04 g     O .textdata	00000004 .hidden __feature_tftp
00022c08 g     O .textdata	00000004 .hidden __feature_comboot
00022c0c g     O .textdata	00000004 .hidden __feature_bzimage
00022c10 g     O .textdata	00000004 .hidden __feature_elfboot
00022c14 g     O .textdata	00000004 .hidden __feature_multiboot
00022c18 g     O .textdata	00000004 .hidden __feature_pxe_image
00022c1c g     O .textdata	00000004 .hidden __feature_pxe_file
00022c20 l     O .textdata	00000000 __table_entries.2067
00022c20 l     O .textdata	00000000 __table_entries.1715
00022c20 g     O .textdata	0000000c .hidden multiboot_image_type
00022c2c g     O .textdata	0000000c .hidden comboot_image_type
00022c38 g     O .textdata	0000000c .hidden bzimage_image_type
00022c44 g     O .textdata	0000000c .hidden elfboot_image_type
00022c50 g     O .textdata	0000000c .hidden com32_image_type
00022c5c g     O .textdata	0000000c .hidden script_image_type
00022c68 g     O .textdata	0000000c .hidden pxe_image_type
00022c74 l     O .textdata	00000000 __table_entries.1050
00022c74 l     O .textdata	00000000 __table_entries.1717
00022c74 g     O .textdata	00000004 .hidden heap_init_fn
00022c78 g     O .textdata	00000004 .hidden serial_init_fn
00022c7c g     O .textdata	00000004 .hidden pxe_init_fn
00022c80 g     O .textdata	00000004 .hidden process_init_fn
00022c84 g     O .textdata	00000004 .hidden embedded_init_fn
00022c88 g     O .textdata	00000004 .hidden smbios_init_fn
00022c8c l     O .textdata	00000000 __table_entries.1052
00022c8c g     O .textdata	00000024 .hidden ethernet_protocol
00022cb0 l     O .textdata	00000000 __table_entries.1947
00022cb0 g     O .textdata	00000010 .hidden aoe_protocol
00022cc0 g     O .textdata	00000010 .hidden ipv4_protocol
00022cd0 g     O .textdata	00000010 .hidden arp_protocol
00022ce0 g     O .textdata	00000010 .hidden rarp_protocol
00022cf0 l     O .textdata	00000000 __table_entries.1101
00022cf0 l     O .textdata	00000000 __table_entries.1949
00022cf0 g     O .textdata	00000010 .hidden net_process
00022d00 g     O .textdata	00000010 .hidden retry_process
00022d10 l     O .textdata	00000000 __table_entries.1103
00022d10 l     O .textdata	00000000 __table_entries.1676
00022d10 g     O .textdata	00000008 .hidden numeric_resolver
00022d18 g     O .textdata	00000008 .hidden dns_resolver
00022d20 l     O .textdata	00000000 __table_entries.1661
00022d20 l     O .textdata	00000000 __table_entries.1218
00022d20 g     O .textdata	00000044 .hidden undi_root_device
00022d64 l     O .textdata	00000000 __table_entries.1220
00022d64 l     O .textdata	00000000 __table_entries.2205
00022d64 g     O .textdata	00000008 .hidden iscsi_sanboot_protocol
00022d6c g     O .textdata	00000008 .hidden aoe_sanboot_protocol
00022d74 l     O .textdata	00000000 __table_entries.2406
00022d74 l     O .textdata	00000000 __table_entries.2207
00022d74 g     O .textdata	0000000c .hidden setting_type_uristring
00022d80 g     O .textdata	0000000c .hidden setting_type_uuid
00022d8c g     O .textdata	0000000c .hidden setting_type_hex
00022d98 g     O .textdata	0000000c .hidden setting_type_uint32
00022da4 g     O .textdata	0000000c .hidden setting_type_uint16
00022db0 g     O .textdata	0000000c .hidden setting_type_uint8
00022dbc g     O .textdata	0000000c .hidden setting_type_int32
00022dc8 g     O .textdata	0000000c .hidden setting_type_int16
00022dd4 g     O .textdata	0000000c .hidden setting_type_int8
00022de0 g     O .textdata	0000000c .hidden setting_type_ipv4
00022dec g     O .textdata	0000000c .hidden setting_type_string
00022df8 l     O .textdata	00000000 __table_entries.2389
00022df8 l     O .textdata	00000000 __table_entries.2408
00022df8 l     O .textdata	00000000 __table_entries.2286
00022df8 l     O .textdata	00000000 __table_entries.2241
00022df8 l     O .textdata	00000000 __table_entries.2299
00022df8 g     O .textdata	00000010 .hidden keep_san_setting
00022e08 g     O .textdata	00000010 .hidden priority_setting
00022e18 g     O .textdata	00000010 .hidden password_setting
00022e28 g     O .textdata	00000010 .hidden username_setting
00022e38 g     O .textdata	00000010 .hidden root_path_setting
00022e48 g     O .textdata	00000010 .hidden filename_setting
00022e58 g     O .textdata	00000010 .hidden hostname_setting
00022e68 g     O .textdata	00000010 .hidden gateway_setting
00022e78 g     O .textdata	00000010 .hidden netmask_setting
00022e88 g     O .textdata	00000010 .hidden ip_setting
00022e98 g     O .textdata	00000010 .hidden busid_setting
00022ea8 g     O .textdata	00000010 .hidden mac_setting
00022eb8 g     O .textdata	00000010 .hidden reverse_password_setting
00022ec8 g     O .textdata	00000010 .hidden reverse_username_setting
00022ed8 g     O .textdata	00000010 .hidden initiator_iqn_setting
00022ee8 g     O .textdata	00000010 .hidden domain_setting
00022ef8 g     O .textdata	00000010 .hidden dns_setting
00022f08 g     O .textdata	00000010 .hidden next_server_setting
00022f18 g     O .textdata	00000010 .hidden use_cached_setting
00022f28 g     O .textdata	00000010 .hidden dhcp_server_setting
00022f38 g     O .textdata	00000010 .hidden user_class_setting
00022f48 g     O .textdata	00000040 .hidden smbios_named_settings
00022f88 g     O .textdata	00000010 .hidden uuid_setting
00022f98 l     O .textdata	00000000 __table_entries.2251
00022f98 l     O .textdata	00000000 __table_entries.2391
00022f98 l     O .textdata	00000000 __table_entries.2284
00022f98 l     O .textdata	00000000 __table_entries.2297
00022f98 g     O .textdata	00000004 .hidden ipv4_settings_applicator
00022f9c g     O .textdata	00000004 .hidden iscsi_settings_applicator
00022fa0 g     O .textdata	00000004 .hidden dns_applicator
00022fa4 g     O .textdata	00000004 .hidden tftp_settings_applicator
00022fa8 l     O .textdata	00000000 __table_entries.2253
00022fa8 l     O .textdata	00000000 __table_entries.1601
00022fa8 g     O .textdata	0000000c .hidden tcp_socket_opener
00022fb4 g     O .textdata	0000000c .hidden udp_socket_opener
00022fc0 l     O .textdata	00000000 __table_entries.1061
00022fc0 l     O .textdata	00000000 __table_entries.1074
00022fc0 l     O .textdata	00000000 __table_entries.1603
00022fc0 g     O .textdata	00000008 .hidden serial_startup_fn
00022fc8 g     O .textdata	00000008 .hidden hide_etherboot_startup_fn
00022fd0 g     O .textdata	00000008 .hidden startup_devices
00022fd8 g     O .textdata	00000008 .hidden startup_undionly
00022fe0 l     O .textdata	00000000 __table_entries.1063
00022fe0 l     O .textdata	00000000 __table_entries.1072
00022fe0 l     O .textdata	00000000 __table_entries.1351
00022fe0 g     O .textdata	0000000c .hidden ipv4_tcpip_protocol
00022fec l     O .textdata	00000000 __table_entries.1335
00022fec l     O .textdata	00000000 __table_entries.1353
00022fec g     O .textdata	0000000c .hidden icmp_protocol
00022ff8 g     O .textdata	0000000c .hidden tcp_protocol
00023004 g     O .textdata	0000000c .hidden udp_protocol
00023010 l     O .textdata	00000000 __table_entries.1564
00023010 l     O .textdata	00000000 __table_entries.1337
00023010 g     O .textdata	00000008 .hidden ftp_uri_opener
00023018 g     O .textdata	00000008 .hidden http_uri_opener
00023020 g     O .textdata	00000008 .hidden https_uri_opener
00023028 g     O .textdata	00000008 .hidden mtftp_uri_opener
00023030 g     O .textdata	00000008 .hidden tftm_uri_opener
00023038 g     O .textdata	00000008 .hidden tftpsize_uri_opener
00023040 g     O .textdata	00000008 .hidden tftp_uri_opener
00023048 g     O .textdata	00000008 .hidden tcp_uri_opener
00023050 g     O .textdata	00000008 .hidden udp_uri_opener
00023058 l     O .textdata	00000000 __table_entries.1566
00023058 g       .textdata	00000000 _mtextdata
00023060 l    d  .bss.textdata	00000000 .bss.textdata
00023060 l     O .bss.textdata	00000004 mb_cmdline_offset
00023064 l     O .bss.textdata	00000001 num_drives
00023068 l     O .bss.textdata	00000004 int_1a_hooked
0002306c l     O .bss.textdata	00000004 comboot_resolv_addr
00023070 l     O .bss.textdata	00000004 comboot_resolv_rc
00023074 l     O .bss.textdata	00000002 comboot_graphics_mode
00023078 g     O .bss.textdata	00000004 com32_internal_esp
0002307c g     O .bss.textdata	00000004 .hidden com32_external_esp
00023080 l     O .bss.textdata	00000004 com32_helper_function
00023084 l     O .bss.textdata	00000004 started
00023088 g     O .bss.textdata	00000004 .hidden cwuri
0002308c l     O .bss.textdata	00080000 heap
000a308c l     O .bss.textdata	00000004 imgindex.1675
000a30a0 l     O .bss.textdata	00000025 buf.1032
000a30c8 l     O .bss.textdata	00000010 buf.2311
000a30d8 l     O .bss.textdata	00000002 next_ident
000a30dc l     O .bss.textdata	00000004 ifindex.1862
000a30e0 l     O .bss.textdata	00000004 iscsi_target_password
000a30e4 l     O .bss.textdata	00000004 iscsi_target_username
000a30e8 l     O .bss.textdata	00000004 iscsi_initiator_password
000a30ec l     O .bss.textdata	00000004 iscsi_initiator_username
000a30f0 l     O .bss.textdata	00000004 iscsi_default_initiator_iqn
000a30f4 l     O .bss.textdata	00000004 iscsi_explicit_initiator_iqn
000a30f8 l     O .bss.textdata	00000004 qid.2512
000a30fc l     O .bss.textdata	00000004 localdomain
000a3100 l     O .bss.textdata	00000004 tftp_server.2941
000a3120 l     O .bss.textdata	00000040 errbuf.1189
000a3160 l     O .bss.textdata	00000004 exit_flag
000a3164 g     O .bss.textdata	00000004 .hidden shutdown_exit_flags
000a3168 l     O .bss.textdata	00000004 a20_method.1920
000a316c l     O .bss.textdata	00000001 reentry_guard.1919
000a3170 l     O .bss.textdata	00000004 int19_vector
000a3174 l     O .bss.textdata	00000004 int18_vector
000a3178 l     O .bss.textdata	00000004 last_trigger_count
000a317c l     O .bss.textdata	00000004 undinet_entry
000a3180 l     O .bss.textdata	00000004 bottom
000a3184 l     O .bss.textdata	00000004 top
000a3188 l     O .bss.textdata	00000004 days.1511
000a318c g     O .bss.textdata	00000004 .hidden pxe_netdev
000a3190 l     O .bss.textdata	00000004 undi_tx_count
000a3194 l     O .bss.textdata	00000014 dummy_metadata
000a31a8 l     O .bss.textdata	00000004 monojob_rc
000a31ac l     O .bss.textdata	00000004 rnd_seed
000a31c0 l     O .bss.textdata	00000004 next_new_arp_entry
000a31e0 l     O .bss.textdata	00000080 arp_table
000a3260 l     O .bss.textdata	00000012 buf.1751
000a3274 l     O .bss.textdata	00000004 pnp_offset.1511
000a3278 l     O .bss.textdata	0000000c smbios
000a3284 l     O .bss.textdata	00000004 offset.1578
000a3288 g     O .bss.textdata	00000000 .hidden obj_ibft
000a3288 g     O .bss.textdata	00000000 .hidden obj_com32
000a3288 g     O .bss.textdata	00000000 .hidden check_obj_undionly
000a3288 g     O .bss.textdata	00000000 .hidden obj_com32_call
000a3288 g     O .bss.textdata	00000000 .hidden obj_elfboot
000a3288 g     O .bss.textdata	00000000 .hidden __licence_gpl2_only
000a3288 g     O .bss.textdata	00000000 .hidden obj_aoeboot
000a3288 g     O .bss.textdata	00000000 .hidden obj_bios_console
000a3288 g     O .bss.textdata	00000000 .hidden obj_undionly
000a3288 g     O .bss.textdata	00000000 .hidden obj_iscsiboot
000a3288 g     O .bss.textdata	00000000 .hidden __licence_gpl2_or_later
000a3288 g     O .bss.textdata	00000000 .hidden obj_bzimage
000a3288 g     O .bss.textdata	00000000 .hidden obj_config
000a3288 g     O .bss.textdata	00000000 .hidden obj_int13
000a3288 g     O .bss.textdata	00000000 .hidden obj_pxe_image
000a3288 g     O .bss.textdata	00000000 .hidden obj_comboot
000a3288 g     O .bss.textdata	00000000 .hidden obj_keepsan
000a3288 g     O .bss.textdata	00000000 .hidden __licence_public_domain
000a3288 g     O .bss.textdata	00000000 .hidden obj_undipreload
000a3288 g     O .bss.textdata	00000000 .hidden obj_pxe_call
000a3288 g     O .bss.textdata	00000000 .hidden __licence_bsd2
000a3288 g     O .bss.textdata	00000000 .hidden check_obj_config
000a3288 g     O .bss.textdata	00000000 .hidden obj_comboot_resolv
000a3288 g     O .bss.textdata	00000000 .hidden obj_multiboot
000a3288 g     O .bss.textdata	0000001c .hidden comboot_return
000a32a4 g     O .bss.textdata	00000000 .hidden obj_comboot_call
000a32a4 g     O .bss.textdata	00000004 .hidden comboot_replacement_image
000a32a8 g     O .bss.textdata	00000000 obj_virtaddr
000a32a8 g     O .bss.textdata	00000000 .hidden obj_refcnt
000a32a8 g     O .bss.textdata	00000000 obj_kkpxeprefix
000a32a8 g     O .bss.textdata	00000000 .hidden obj_uri
000a32a8 g     O .bss.textdata	00000000 .hidden obj_malloc
000a32a8 g     O .bss.textdata	00000000 .hidden obj_acpi
000a32a8 g     O .bss.textdata	00000000 .hidden obj_string
000a32a8 g     O .bss.textdata	00000000 .hidden obj_x86_string
000a32a8 g     O .bss.textdata	00000000 .hidden obj_open
000a32a8 g     O .bss.textdata	00000000 .hidden obj_console
000a32a8 g     O .bss.textdata	00000000 .hidden obj_init
000a32a8 g     O .bss.textdata	00000000 .hidden obj_posix_io
000a32a8 g     O .bss.textdata	00000000 .hidden obj_main
000a32a8 g     O .bss.textdata	00000000 .hidden obj_com32_wrapper
000a32a8 g     O .bss.textdata	00000000 .hidden obj_interface
000a32a8 g     O .bss.textdata	00000000 .hidden obj_settings
000a32a8 g     O .bss.textdata	00000000 .hidden obj_resolv
000a32a8 g     O .bss.textdata	00000000 .hidden obj_cwuri
000a32a8 g     O .bss.textdata	00000000 obj_librm
000a32a8 g     O .bss.textdata	00000000 obj_pxe_entry
000a32a8 g     O .bss.textdata	00000000 .hidden obj_vsprintf
000a32a8 g     O .bss.textdata	00000000 .hidden obj_asprintf
000a32a8 g     O .bss.textdata	00000000 check_obj_kkpxeprefix
000a32a8 g     O .bss.textdata	00000000 .hidden obj_process
000a32a8 g     O .bss.textdata	00000000 obj_libprefix
000a32a8 g     O .bss.textdata	00000000 .hidden obj_pxe_cmd
000a32a8 g     O .bss.textdata	00000000 obj_setjmp
000a32a8 g     O .bss.textdata	00000000 .hidden obj_misc
000a32a8 g     O .bss.textdata	00000004 .hidden freemem
000a32ac g     O .bss.textdata	00000000 .hidden obj_ansiesc
000a32ac g     O .bss.textdata	00000000 .hidden obj_device
000a32ac g     O .bss.textdata	00000004 .hidden optind
000a32b0 g     O .bss.textdata	00000004 .hidden nextchar
000a32b4 g     O .bss.textdata	00000000 .hidden obj_timer
000a32b4 g     O .bss.textdata	00000000 .hidden obj_basename
000a32b4 g     O .bss.textdata	00000000 .hidden obj_chap
000a32b4 g     O .bss.textdata	00000000 .hidden obj_elf
000a32b4 g     O .bss.textdata	00000000 .hidden obj_shell_banner
000a32b4 g     O .bss.textdata	00000000 .hidden obj_md5
000a32b4 g     O .bss.textdata	00000000 .hidden obj_pxe_udp
000a32b4 g     O .bss.textdata	00000000 .hidden obj_bios_timer
000a32b4 g     O .bss.textdata	00000000 .hidden obj_editbox
000a32b4 g     O .bss.textdata	00000000 .hidden obj_dns
000a32b4 g     O .bss.textdata	00000000 .hidden obj_nvo_cmd
000a32b4 g     O .bss.textdata	00000000 .hidden obj_aoe
000a32b4 g     O .bss.textdata	00000000 .hidden obj_print
000a32b4 g     O .bss.textdata	00000000 .hidden obj_wininit
000a32b4 g     O .bss.textdata	00000000 .hidden obj_login_cmd
000a32b4 g     O .bss.textdata	00000000 .hidden obj_biosint
000a32b4 g     O .bss.textdata	00000000 .hidden obj_timer2
000a32b4 g     O .bss.textdata	00000000 .hidden obj_pxe_loader
000a32b4 g     O .bss.textdata	00000000 .hidden obj_abft
000a32b4 g     O .bss.textdata	00000000 .hidden obj_image
000a32b4 g     O .bss.textdata	00000000 .hidden obj_strerror
000a32b4 g     O .bss.textdata	00000000 .hidden obj_sanboot_cmd
000a32b4 g     O .bss.textdata	00000000 .hidden obj_ifmgmt
000a32b4 g     O .bss.textdata	00000000 .hidden obj_login_ui
000a32b4 g     O .bss.textdata	00000000 .hidden obj_bios_nap
000a32b4 g     O .bss.textdata	00000000 .hidden obj_memtop_umalloc
000a32b4 g     O .bss.textdata	00000000 .hidden obj_iobuf
000a32b4 g     O .bss.textdata	00000000 .hidden obj_clear
000a32b4 g     O .bss.textdata	00000000 .hidden obj_route
000a32b4 g     O .bss.textdata	00000000 .hidden obj_segment
000a32b4 g     O .bss.textdata	00000000 .hidden obj_autoboot_cmd
000a32b4 g     O .bss.textdata	00000000 .hidden obj_retry
000a32b4 g     O .bss.textdata	00000000 .hidden obj_gateA20
000a32b4 g     O .bss.textdata	00000000 .hidden obj_cpio
000a32b4 g     O .bss.textdata	00000000 .hidden obj_settings_ui
000a32b4 g     O .bss.textdata	00000000 .hidden obj_pxe_undi
000a32b4 g     O .bss.textdata	00000000 .hidden obj_colour
000a32b4 g     O .bss.textdata	00000000 .hidden obj_image_cmd
000a32b4 g     O .bss.textdata	00000000 .hidden obj_ifmgmt_cmd
000a32b4 g     O .bss.textdata	00000000 .hidden obj_pxemenu
000a32b4 g     O .bss.textdata	00000000 .hidden obj_ipv4
000a32b4 g     O .bss.textdata	00000000 .hidden obj_mucurses
000a32b4 g     O .bss.textdata	00000000 .hidden obj_undinet
000a32b4 g     O .bss.textdata	00000000 .hidden obj_autoboot
000a32b4 g     O .bss.textdata	00000000 .hidden obj_icmp
000a32b4 g     O .bss.textdata	00000000 .hidden obj_https
000a32b4 g     O .bss.textdata	00000000 .hidden obj_ansi_screen
000a32b4 g     O .bss.textdata	00000000 .hidden obj_exec
000a32b4 g     O .bss.textdata	00000000 .hidden obj_script
000a32b4 g     O .bss.textdata	00000000 .hidden obj_scsi
000a32b4 g     O .bss.textdata	00000000 .hidden obj_dhcp_cmd
000a32b4 g     O .bss.textdata	00000000 .hidden obj_config_cmd
000a32b4 g     O .bss.textdata	00000000 .hidden obj_tftp
000a32b4 g     O .bss.textdata	00000000 .hidden obj_route_cmd
000a32b4 g     O .bss.textdata	00000000 .hidden obj_bootsector
000a32b4 g     O .bss.textdata	00000000 .hidden obj_winattrs
000a32b4 g     O .bss.textdata	00000000 .hidden obj_netdev_settings
000a32b4 g     O .bss.textdata	00000000 .hidden obj_embedded
000a32b4 g     O .bss.textdata	00000000 .hidden obj_memmap
000a32b4 g     O .bss.textdata	00000000 .hidden obj_netdevice
000a32b4 g     O .bss.textdata	00000000 .hidden obj_uuid
000a32b4 g     O .bss.textdata	00000000 .hidden obj_iscsi
000a32b4 g     O .bss.textdata	00000000 .hidden obj_ata
000a32b4 g     O .bss.textdata	00000000 .hidden obj_dhcpmgmt
000a32b4 g     O .bss.textdata	00000000 .hidden obj_shell
000a32b4 g     O .bss.textdata	00000000 .hidden obj_relocate
000a32b4 g     O .bss.textdata	00000000 .hidden obj_serial
000a32b4 g     O .bss.textdata	00000000 .hidden obj_http
000a32b4 g     O .bss.textdata	00000000 .hidden obj_ftp
000a32b4 g     O .bss.textdata	00000000 .hidden obj_librm_mgmt
000a32b4 g     O .bss.textdata	00000000 .hidden obj_imgmgmt
000a32b4 g     O .bss.textdata	00000002 .hidden isapnp_read_port
000a32b6 g     O .bss.textdata	00000000 obj_undiisr
000a32b6 g     O .bss.textdata	00000000 .hidden obj_ctype
000a32b6 g     O .bss.textdata	00000000 obj_unnrv2b16
000a32b6 g     O .bss.textdata	00000000 obj_stack
000a32b6 g     O .bss.textdata	00000000 .hidden obj_pxeparent
000a32b6 g     O .bss.textdata	00000000 .hidden obj_getkey
000a32b6 g     O .bss.textdata	00000000 obj_stack16
000a32b6 g     O .bss.textdata	00000000 .hidden obj_pxe_file
000a32b6 g     O .bss.textdata	00000000 .hidden obj_pxe_preboot
000a32b6 g     O .bss.textdata	00000000 .hidden obj_pxeparent_dhcp
000a32b6 g     O .bss.textdata	00000000 .hidden obj_pxe_tftp
000a32b8 g     O .bss.textdata	00000004 .hidden optarg
000a32bc g     O .bss.textdata	00000000 .hidden obj_getopt
000a32bc g     O .bss.textdata	00000004 .hidden optopt
000a32c0 g     O .bss.textdata	00000000 .hidden obj_udp
000a32c0 g     O .bss.textdata	00000000 .hidden obj_readline
000a32c0 g     O .bss.textdata	00000000 .hidden obj_rsa
000a32c0 g     O .bss.textdata	00000000 .hidden obj___udivdi3
000a32c0 g     O .bss.textdata	00000000 .hidden obj___umoddi3
000a32c0 g     O .bss.textdata	00000000 .hidden obj_bitmap
000a32c0 g     O .bss.textdata	00000000 .hidden obj___udivmoddi4
000a32c0 g     O .bss.textdata	00000000 .hidden obj_editstring
000a32c0 g     O .bss.textdata	00000000 .hidden obj_monojob
000a32c0 g     O .bss.textdata	00000000 .hidden obj_base64
000a32c0 g     O .bss.textdata	00000000 .hidden obj_axtls_sha1
000a32c0 g     O .bss.textdata	00000000 .hidden obj_xfer
000a32c0 g     O .bss.textdata	00000000 .hidden obj_cbc
000a32c0 g     O .bss.textdata	00000000 .hidden obj_tcp
000a32c0 g     O .bss.textdata	00000000 .hidden obj_basemem_packet
000a32c0 g     O .bss.textdata	00000000 .hidden obj_smbios_settings
000a32c0 g     O .bss.textdata	00000000 .hidden obj_crypto_null
000a32c0 g     O .bss.textdata	00000000 .hidden obj_fakedhcp
000a32c0 g     O .bss.textdata	00000000 .hidden obj_nullnet
000a32c0 g     O .bss.textdata	00000000 .hidden obj_tcpip
000a32c0 g     O .bss.textdata	00000000 .hidden obj_bigint
000a32c0 g     O .bss.textdata	00000000 .hidden obj_ethernet
000a32c0 g     O .bss.textdata	00000000 .hidden obj_cachedhcp
000a32c0 g     O .bss.textdata	00000000 .hidden obj_dhcppkt
000a32c0 g     O .bss.textdata	00000000 .hidden obj_pnpbios
000a32c0 g     O .bss.textdata	00000000 .hidden obj_dhcpopts
000a32c0 g     O .bss.textdata	00000000 .hidden obj_smbios
000a32c0 g     O .bss.textdata	00000000 .hidden obj_aes
000a32c0 g     O .bss.textdata	00000000 obj_e820mangler
000a32c0 g     O .bss.textdata	00000000 .hidden obj_filter
000a32c0 g     O .bss.textdata	00000000 .hidden obj_tls
000a32c0 g     O .bss.textdata	00000000 .hidden obj_hmac
000a32c0 g     O .bss.textdata	00000000 .hidden obj_x509
000a32c0 g     O .bss.textdata	00000000 .hidden obj_sha1
000a32c0 g     O .bss.textdata	00000000 .hidden obj_dhcp
000a32c0 g     O .bss.textdata	00000000 .hidden obj_axtls_aes
000a32c0 g     O .bss.textdata	00000000 .hidden obj_pic8259
000a32c0 g     O .bss.textdata	00000000 .hidden obj_hidemem
000a32c0 g     O .bss.textdata	00000000 .hidden obj_linebuf
000a32c0 g       .bss.textdata	00000000 _stack
000a32c0 g     O .bss.textdata	00000000 .hidden obj_downloader
000a32c0 g     O .bss.textdata	00000000 .hidden obj_rarp
000a32c0 g     O .bss.textdata	00000000 .hidden obj_job
000a32c0 g     O .bss.textdata	00000000 .hidden obj_bios_smbios
000a32c0 g     O .bss.textdata	00000000 .hidden obj_arp
000a32c0 g     O .bss.textdata	00000000 .hidden obj_asn1
000a32c0 g     O .bss.textdata	00000000 .hidden obj_random
000a42c0 g       .bss.textdata	00000000 .hidden _etextdata
000a42c0 g       .bss.textdata	00000000 _estack
00000000 l    d  .zinfo	00000000 .zinfo
00000000  w      .zinfo	00000000 undiheader
00000000 g       .zinfo	00000000 _weak
00000000 g       .zinfo	00000000 _prefix_lma
00000000 g       .zinfo	00000000 _zinfo
00000000 g       .zinfo	00000000 _eweak
00000040 g       .zinfo	00000000 _ezinfo
00000040 g       .zinfo	00000000 _mzinfo
000007f0 g       .zinfo	00000000 _text16_lma
000007f0 g       .zinfo	00000000 _payload_lma
00001010 g       .zinfo	00000000 _data16_lma
000014f0 g       .zinfo	00000000 _textdata_lma
00024548 g       .zinfo	00000000 _filesz
00024550 g       .zinfo	00000000 _zinfo_lma
00024590 g       .zinfo	00000000 _end_lma
00000000 l    d  .debug_info	00000000 .debug_info
00000000 l    d  .debug_abbrev	00000000 .debug_abbrev
00000000 l    d  .debug_aranges	00000000 .debug_aranges
00000000 l    d  .debug_line	00000000 .debug_line
00000000 l    d  .debug_str	00000000 .debug_str
00000000 l    d  .debug_frame	00000000 .debug_frame
00000000 l    d  .debug_loc	00000000 .debug_loc
00000000 l    d  .debug_ranges	00000000 .debug_ranges
